

Microchip MPLAB XC8 Assembler V2.36 build 20220127204148 
                                                                                               Sat Feb 04 09:49:41 2023

Microchip MPLAB XC8 C Compiler v2.36 (Free license) build 20220127204148 Og1 
     1                           	processor	18F4620
     2                           	fnconf	rparam,??,?,0
     3                           	pagewidth 120
     4                           	opt	flic
     5                           	psect	idataCOMRAM,global,class=CODE,delta=1,noexec
     6                           	psect	idataBANK0,global,class=CODE,delta=1,noexec
     7                           	psect	smallconst,global,reloc=2,class=SMALLCONST,delta=1,noexec
     8                           	psect	nvBANK0,global,class=BANK0,space=1,delta=1,lowdata,noexec
     9                           	psect	cinit,global,reloc=2,class=CODE,delta=1
    10                           	psect	bssCOMRAM,global,class=COMRAM,space=1,delta=1,lowdata,noexec
    11                           	psect	dataCOMRAM,global,class=COMRAM,space=1,delta=1,lowdata,noexec
    12                           	psect	bssBANK0,global,class=BANK0,space=1,delta=1,lowdata,noexec
    13                           	psect	dataBANK0,global,class=BANK0,space=1,delta=1,lowdata,noexec
    14                           	psect	cstackBANK0,global,class=BANK0,space=1,delta=1,lowdata,noexec
    15                           	psect	cstackCOMRAM,global,class=COMRAM,space=1,delta=1,lowdata,noexec
    16                           	psect	text0,global,reloc=2,class=CODE,delta=1
    17                           	psect	text1,global,reloc=2,class=CODE,delta=1
    18                           	psect	text2,global,reloc=2,class=CODE,delta=1
    19                           	psect	text3,global,reloc=2,class=CODE,delta=1
    20                           	psect	text4,global,reloc=2,class=CODE,delta=1
    21                           	psect	text5,global,reloc=2,class=CODE,delta=1
    22                           	psect	text6,global,reloc=2,class=CODE,delta=1
    23                           	psect	text7,global,reloc=2,class=CODE,delta=1
    24                           	psect	text8,global,reloc=2,class=CODE,delta=1,group=1
    25                           	psect	text9,global,reloc=2,class=CODE,delta=1,group=1
    26                           	psect	text10,global,reloc=2,class=CODE,delta=1,group=1
    27                           	psect	text11,global,reloc=2,class=CODE,delta=1,group=1
    28                           	psect	text12,global,reloc=2,class=CODE,delta=1
    29                           	psect	text13,global,reloc=2,class=CODE,delta=1
    30                           	psect	text14,global,reloc=2,class=CODE,delta=1
    31                           	psect	text15,global,reloc=2,class=CODE,delta=1
    32                           	psect	text16,global,reloc=2,class=CODE,delta=1
    33                           	psect	text17,global,reloc=2,class=CODE,delta=1
    34                           	psect	text18,global,reloc=2,class=CODE,delta=1
    35                           	psect	text19,global,reloc=2,class=CODE,delta=1,group=1
    36                           	psect	text20,global,reloc=2,class=CODE,delta=1,group=1
    37                           	psect	intcode,global,reloc=2,class=CODE,delta=1
    38                           	psect	intcode_body,global,reloc=2,class=CODE,delta=1
    39                           	psect	text22,global,reloc=2,class=CODE,delta=1
    40                           	psect	text23,global,reloc=2,class=CODE,delta=1
    41                           	psect	text24,global,reloc=2,class=CODE,delta=1
    42                           	psect	text25,global,reloc=2,class=CODE,delta=1
    43                           	psect	text26,global,reloc=2,class=CODE,delta=1
    44                           	psect	text27,global,reloc=2,class=CODE,delta=1
    45                           	psect	text28,global,reloc=2,class=CODE,delta=1
    46                           	psect	text29,global,reloc=2,class=CODE,delta=1
    47                           	psect	text30,global,reloc=2,class=CODE,delta=1
    48                           	psect	text31,global,reloc=2,class=CODE,delta=1
    49                           	psect	text32,global,reloc=2,class=CODE,delta=1
    50                           	psect	text33,global,reloc=2,class=CODE,delta=1
    51                           	psect	text34,global,reloc=2,class=CODE,delta=1
    52                           	psect	text35,global,reloc=2,class=CODE,delta=1
    53                           	psect	text36,global,reloc=2,class=CODE,delta=1
    54                           	psect	text37,global,reloc=2,class=CODE,delta=1
    55                           	psect	text38,global,reloc=2,class=CODE,delta=1
    56                           	psect	text39,global,reloc=2,class=CODE,delta=1
    57                           	psect	text40,global,reloc=2,class=CODE,delta=1
    58                           	psect	text41,global,reloc=2,class=CODE,delta=1
    59                           	psect	text42,global,reloc=2,class=CODE,delta=1
    60                           	psect	intsave_regs,global,class=BIGRAM,space=1,delta=1,noexec
    61                           	psect	text43,global,reloc=2,class=CODE,delta=1
    62                           	psect	rparam,global,class=COMRAM,space=1,delta=1,noexec
    63                           	psect	temp,global,ovrld,common,class=COMRAM,space=1,delta=1
    64                           	psect	idloc,global,abs,ovrld,class=IDLOC,space=5,delta=1,noexec
    65                           	psect	config,global,abs,ovrld,class=CONFIG,space=4,delta=1,noexec
    66  0000                     
    67                           ; Version 2.20
    68                           ; Generated 12/02/2020 GMT
    69                           ; 
    70                           ; Copyright © 2020, Microchip Technology Inc. and its subsidiaries ("Microchip")
    71                           ; All rights reserved.
    72                           ; 
    73                           ; This software is developed by Microchip Technology Inc. and its subsidiaries ("Microch
      +                          ip").
    74                           ; 
    75                           ; Redistribution and use in source and binary forms, with or without modification, are
    76                           ; permitted provided that the following conditions are met:
    77                           ; 
    78                           ;     1. Redistributions of source code must retain the above copyright notice, this lis
      +                          t of
    79                           ;        conditions and the following disclaimer.
    80                           ; 
    81                           ;     2. Redistributions in binary form must reproduce the above copyright notice, this 
      +                          list
    82                           ;        of conditions and the following disclaimer in the documentation and/or other
    83                           ;        materials provided with the distribution.
    84                           ; 
    85                           ;     3. Microchip's name may not be used to endorse or promote products derived from th
      +                          is
    86                           ;        software without specific prior written permission.
    87                           ; 
    88                           ; THIS SOFTWARE IS PROVIDED BY MICROCHIP "AS IS" AND ANY EXPRESS OR IMPLIED WARRANTIES,
    89                           ; INCLUDING, BUT NOT LIMITED TO, THE IMPLIED WARRANTIES OF MERCHANTABILITY AND FITNESS F
      +                          OR
    90                           ; PURPOSE ARE DISCLAIMED.  IN NO EVENT SHALL MICROCHIP BE LIABLE FOR ANY DIRECT, INDIREC
      +                          T,
    91                           ; INCIDENTAL, SPECIAL, EXEMPLARY, OR CONSEQUENTIAL DAMAGES (INCLUDING BUT NOT LIMITED TO
    92                           ; PROCUREMENT OF SUBSTITUTE GOODS OR SERVICES; LOSS OF USE, DATA OR PROFITS; OR BUSINESS
    93                           ; INTERRUPTION) HOWSOEVER CAUSED AND ON ANY THEORY OF LIABILITY, WHETHER IN CONTRACT, ST
      +                          RICT
    94                           ; LIABILITY, OR TORT (INCLUDING NEGLIGENCE OR OTHERWISE) ARISING IN ANY WAY OUT OF THE U
      +                          SE OF
    95                           ; THIS SOFTWARE, EVEN IF ADVISED OF THE POSSIBILITY OF SUCH DAMAGE.
    96                           ; 
    97                           ; 
    98                           ; Code-generator required, PIC18F4620 Definitions
    99                           ; 
   100                           ; SFR Addresses
   101  0000                     
   102                           	psect	idataCOMRAM
   103  002FA8                     __pidataCOMRAM:
   104                           	callstack 0
   105                           
   106                           ;initializer for _sec
   107  002FA8  32                 	db	50
   108                           
   109                           ;initializer for _min
   110  002FA9  2D                 	db	45
   111                           
   112                           ;initializer for _hour
   113  002FAA  14                 	db	20
   114                           
   115                           ;initializer for MSSP_SPI_Slave_Mode_GPIO_PIN_Configurations@F3070
   116  002FAB  68                 	db	104
   117                           
   118                           ;initializer for MSSP_SPI_Slave_Mode_GPIO_PIN_Configurations@F3068
   119  002FAC  5A                 	db	90
   120                           
   121                           ;initializer for MSSP_SPI_Slave_Mode_GPIO_PIN_Configurations@F3066
   122  002FAD  62                 	db	98
   123                           
   124                           ;initializer for MSSP_SPI_Slave_Mode_GPIO_PIN_Configurations@F3064
   125  002FAE  2A                 	db	42
   126                           
   127                           ;initializer for MSSP_SPI_Msster_Mode_GPIO_PIN_Configurations@F3059
   128  002FAF  1A                 	db	26
   129                           
   130                           ;initializer for MSSP_SPI_Msster_Mode_GPIO_PIN_Configurations@F3057
   131  002FB0  62                 	db	98
   132                           
   133                           ;initializer for MSSP_SPI_Msster_Mode_GPIO_PIN_Configurations@F3055
   134  002FB1  2A                 	db	42
   135                           
   136                           ;initializer for _RB7_Flag
   137  002FB2  01                 	db	1
   138                           
   139                           ;initializer for _RB6_Flag
   140  002FB3  01                 	db	1
   141                           
   142                           ;initializer for _RB5_Flag
   143  002FB4  01                 	db	1
   144                           
   145                           ;initializer for _RB4_Flag
   146  002FB5  01                 	db	1
   147                           
   148                           	psect	idataBANK0
   149  002E74                     __pidataBANK0:
   150                           	callstack 0
   151                           
   152                           ;initializer for _port_registers
   153  002E74  80                 	db	128
   154  002E75  0F                 	db	15
   155  002E76  81                 	db	129
   156  002E77  0F                 	db	15
   157  002E78  82                 	db	130
   158  002E79  0F                 	db	15
   159  002E7A  83                 	db	131
   160  002E7B  0F                 	db	15
   161  002E7C  84                 	db	132
   162  002E7D  0F                 	db	15
   163                           
   164                           ;initializer for _lat_registers
   165  002E7E  89                 	db	137
   166  002E7F  0F                 	db	15
   167  002E80  8A                 	db	138
   168  002E81  0F                 	db	15
   169  002E82  8B                 	db	139
   170  002E83  0F                 	db	15
   171  002E84  8C                 	db	140
   172  002E85  0F                 	db	15
   173  002E86  8D                 	db	141
   174  002E87  0F                 	db	15
   175                           
   176                           ;initializer for _tris_registers
   177  002E88  92                 	db	146
   178  002E89  0F                 	db	15
   179  002E8A  93                 	db	147
   180  002E8B  0F                 	db	15
   181  002E8C  94                 	db	148
   182  002E8D  0F                 	db	15
   183  002E8E  95                 	db	149
   184  002E8F  0F                 	db	15
   185  002E90  96                 	db	150
   186  002E91  0F                 	db	15
   187                           
   188                           ;initializer for _usart_1
   189  002E92  2580               	dw	9600
   190  002E94  0000               	dw	0
   191  002E96  00                 	db	0
   192  002E97  00                 	db	0
   193  002E98  03                 	db	3
   194  002E99  00                 	db	0
   195  002E9A  03                 	db	3
   196  002E9B  00                 	db	0
   197  002E9C  08                 	db	low _usartTxHandeler
   198  002E9D  2F                 	db	high _usartTxHandeler
   199  002E9E  00                 	db	0
   200  002E9F  00                 	db	0
   201  002EA0  00                 	db	0
   202  002EA1  00                 	db	0
   203  002EA2  00                 	db	0
   204  002EA3  00                 	db	0
   205                           
   206                           ;initializer for _seg
   207  002EA4  01                 	db	1
   208  002EA5  09                 	db	9
   209  002EA6  11                 	db	17
   210  002EA7  19                 	db	25
   211  002EA8  00                 	db	0
   212                           
   213                           	psect	smallconst
   214  001000                     __psmallconst:
   215                           	callstack 0
   216  001000  00                 	db	0
   217  001001  37                 	db	55
   218  001002  38                 	db	56
   219  001003  39                 	db	57
   220  001004  2F                 	db	47
   221  001005  34                 	db	52
   222  001006  35                 	db	53
   223  001007  36                 	db	54
   224  001008  2A                 	db	42
   225  001009  31                 	db	49
   226  00100A  32                 	db	50
   227  00100B  33                 	db	51
   228  00100C  2D                 	db	45
   229  00100D  23                 	db	35
   230  00100E  30                 	db	48
   231  00100F  3D                 	db	61
   232  001010  2B                 	db	43
   233  001011                     __end_of_btn_values:
   234                           	callstack 0
   235  0000                     _SPBRGH	set	4016
   236  0000                     _SPBRG	set	4015
   237  0000                     _TXREG	set	4013
   238  0000                     _TXSTAbits	set	4012
   239  0000                     _RCREG	set	4014
   240  0000                     _RCSTAbits	set	4011
   241  0000                     _TMR3L	set	4018
   242  0000                     _TMR3H	set	4019
   243  0000                     _TMR2	set	4044
   244  0000                     _T2CONbits	set	4042
   245  0000                     _TMR1L	set	4046
   246  0000                     _TMR1H	set	4047
   247  0000                     _T1CONbits	set	4045
   248  0000                     _TMR0L	set	4054
   249  0000                     _TMR0H	set	4055
   250  0000                     _T0CONbits	set	4053
   251  0000                     _INTCON2bits	set	4081
   252  0000                     _INTCON3bits	set	4080
   253  0000                     _SSPBUF	set	4041
   254  0000                     _SSPSTATbits	set	4039
   255  0000                     _SSPADD	set	4040
   256  0000                     _SSPCON2bits	set	4037
   257  0000                     _SSPCON1bits	set	4038
   258  0000                     _EECON2	set	4007
   259  0000                     _ADCON1bits	set	4033
   260  0000                     _ADRESL	set	4035
   261  0000                     _ADRESH	set	4036
   262  0000                     _INTCONbits	set	4082
   263  0000                     _TRISD	set	3989
   264  0000                     _TRISC	set	3988
   265  0000                     _PR2	set	4043
   266  0000                     _TRISB	set	3987
   267  0000                     _TRISE	set	3990
   268  001011                     STR_1:
   269  001011  25                 	db	37
   270  001012  69                 	db	105	;'i'
   271  001013  00                 	db	0
   272  001014  00                 	db	0	; dummy byte at the end
   273  0000                     
   274                           	psect	nvBANK0
   275  0000EE                     __pnvBANK0:
   276                           	callstack 0
   277  0000EE                     _ret:
   278                           	callstack 0
   279  0000EE                     	ds	1
   280  0000                     _PORTBbits	set	3969
   281  0000                     _TRISCbits	set	3988
   282  0000                     _PIE1bits	set	3997
   283  0000                     _ADCON2bits	set	4032
   284  0000                     _ADCON0bits	set	4034
   285  0000                     _PORTE	set	3972
   286  0000                     _PORTD	set	3971
   287  0000                     _PORTC	set	3970
   288  0000                     _PORTB	set	3969
   289  0000                     _PORTA	set	3968
   290  0000                     _LATA	set	3977
   291  0000                     _TRISA	set	3986
   292  0000                     _PIE2bits	set	4000
   293  0000                     _CCP2CONbits	set	4026
   294  0000                     _CCP1CONbits	set	4029
   295  0000                     _PIR1bits	set	3998
   296  0000                     _CCPR1L	set	4030
   297  0000                     _CCPR2L	set	4027
   298  0000                     _EECON1bits	set	4006
   299  0000                     _EEDATA	set	4008
   300  0000                     _EEADR	set	4009
   301  0000                     _EEADRH	set	4010
   302  0000                     _T3CONbits	set	4017
   303  0000                     _PIR2bits	set	4001
   304  0000                     _LATE	set	3981
   305  0000                     _LATD	set	3980
   306  0000                     _LATC	set	3979
   307  0000                     _LATB	set	3978
   308  0000                     _BAUDCONbits	set	4024
   309                           
   310                           ; #config settings
   311                           
   312                           	psect	cinit
   313  002C48                     __pcinit:
   314                           	callstack 0
   315  002C48                     start_initialization:
   316                           	callstack 0
   317  002C48                     __initialization:
   318                           	callstack 0
   319                           
   320                           ; Initialize objects allocated to BANK0 (53 bytes)
   321                           ; load TBLPTR registers with __pidataBANK0
   322  002C48  0E74               	movlw	low __pidataBANK0
   323  002C4A  6EF6               	movwf	tblptrl,c
   324  002C4C  0E2E               	movlw	high __pidataBANK0
   325  002C4E  6EF7               	movwf	tblptrh,c
   326  002C50  0E00               	movlw	low (__pidataBANK0 shr (0+16))
   327  002C52  6EF8               	movwf	tblptru,c
   328  002C54  EE00  F080         	lfsr	0,__pdataBANK0
   329  002C58  EE10 F035          	lfsr	1,53
   330  002C5C                     copy_data0:
   331  002C5C  0009               	tblrd		*+
   332  002C5E  CFF5 FFEE          	movff	tablat,postinc0
   333  002C62  50E5               	movf	postdec1,w,c
   334  002C64  50E1               	movf	fsr1l,w,c
   335  002C66  E1FA               	bnz	copy_data0
   336                           
   337                           ; Initialize objects allocated to COMRAM (14 bytes)
   338                           ; load TBLPTR registers with __pidataCOMRAM
   339  002C68  0EA8               	movlw	low __pidataCOMRAM
   340  002C6A  6EF6               	movwf	tblptrl,c
   341  002C6C  0E2F               	movlw	high __pidataCOMRAM
   342  002C6E  6EF7               	movwf	tblptrh,c
   343  002C70  0E00               	movlw	low (__pidataCOMRAM shr (0+16))
   344  002C72  6EF8               	movwf	tblptru,c
   345  002C74  EE00  F064         	lfsr	0,__pdataCOMRAM
   346  002C78  EE10 F00E          	lfsr	1,14
   347  002C7C                     copy_data1:
   348  002C7C  0009               	tblrd		*+
   349  002C7E  CFF5 FFEE          	movff	tablat,postinc0
   350  002C82  50E5               	movf	postdec1,w,c
   351  002C84  50E1               	movf	fsr1l,w,c
   352  002C86  E1FA               	bnz	copy_data1
   353                           
   354                           ; Clear objects allocated to BANK0 (44 bytes)
   355  002C88  EE00  F0B5         	lfsr	0,__pbssBANK0
   356  002C8C  0E2C               	movlw	44
   357  002C8E                     clear_0:
   358  002C8E  6AEE               	clrf	postinc0,c
   359  002C90  06E8               	decf	wreg,f,c
   360  002C92  E1FD               	bnz	clear_0
   361                           
   362                           ; Clear objects allocated to COMRAM (29 bytes)
   363  002C94  EE00  F047         	lfsr	0,__pbssCOMRAM
   364  002C98  0E1D               	movlw	29
   365  002C9A                     clear_1:
   366  002C9A  6AEE               	clrf	postinc0,c
   367  002C9C  06E8               	decf	wreg,f,c
   368  002C9E  E1FD               	bnz	clear_1
   369  002CA0                     end_of_initialization:
   370                           	callstack 0
   371  002CA0                     __end_of__initialization:
   372                           	callstack 0
   373  002CA0  9072               	bcf	int$flags,0,c	;clear compiler interrupt flag (level 1)
   374  002CA2  9272               	bcf	int$flags,1,c	;clear compiler interrupt flag (level 2)
   375  002CA4  0100               	movlb	0
   376  002CA6  EFCA  F017         	goto	_main	;jump to C main() function
   377                           
   378                           	psect	bssCOMRAM
   379  000047                     __pbssCOMRAM:
   380                           	callstack 0
   381  000047                     _EUSART_TxInterruptHandler:
   382                           	callstack 0
   383  000047                     	ds	2
   384  000049                     _timer3_preload:
   385                           	callstack 0
   386  000049                     	ds	2
   387  00004B                     _timer1_preload:
   388                           	callstack 0
   389  00004B                     	ds	2
   390  00004D                     _timer0_preload:
   391                           	callstack 0
   392  00004D                     	ds	2
   393  00004F                     _I2C_DefaultInterruptHandle:
   394                           	callstack 0
   395  00004F                     	ds	2
   396  000051                     _I2C_Report_Write_Collision_InterruptHandler:
   397                           	callstack 0
   398  000051                     	ds	2
   399  000053                     _CCP2_InterruptHandler:
   400                           	callstack 0
   401  000053                     	ds	2
   402  000055                     _CCP1_InterruptHandler:
   403                           	callstack 0
   404  000055                     	ds	2
   405  000057                     _ADC_InterruptHandler:
   406                           	callstack 0
   407  000057                     	ds	2
   408  000059                     _keypad_pressed:
   409                           	callstack 0
   410  000059                     	ds	1
   411  00005A                     _keypad_val:
   412                           	callstack 0
   413  00005A                     	ds	1
   414  00005B                     _counter:
   415                           	callstack 0
   416  00005B                     	ds	1
   417  00005C                     _timer2_preload:
   418                           	callstack 0
   419  00005C                     	ds	1
   420  00005D                     relay_turn_off@F3017:
   421                           	callstack 0
   422  00005D                     	ds	1
   423  00005E                     relay_turn_on@F3012:
   424                           	callstack 0
   425  00005E                     	ds	1
   426  00005F                     relay_initialize@F3007:
   427                           	callstack 0
   428  00005F                     	ds	1
   429  000060                     led_turn_toggle@F3028:
   430                           	callstack 0
   431  000060                     	ds	1
   432  000061                     led_turn_off@F3023:
   433                           	callstack 0
   434  000061                     	ds	1
   435  000062                     led_turn_on@F3018:
   436                           	callstack 0
   437  000062                     	ds	1
   438  000063                     led_initialize@F3013:
   439                           	callstack 0
   440  000063                     	ds	1
   441                           
   442                           	psect	dataCOMRAM
   443  000064                     __pdataCOMRAM:
   444                           	callstack 0
   445  000064                     _sec:
   446                           	callstack 0
   447  000064                     	ds	1
   448  000065                     _min:
   449                           	callstack 0
   450  000065                     	ds	1
   451  000066                     _hour:
   452                           	callstack 0
   453  000066                     	ds	1
   454  000067                     MSSP_SPI_Slave_Mode_GPIO_PIN_Configurations@F3070:
   455                           	callstack 0
   456  000067                     	ds	1
   457  000068                     MSSP_SPI_Slave_Mode_GPIO_PIN_Configurations@F3068:
   458                           	callstack 0
   459  000068                     	ds	1
   460  000069                     MSSP_SPI_Slave_Mode_GPIO_PIN_Configurations@F3066:
   461                           	callstack 0
   462  000069                     	ds	1
   463  00006A                     MSSP_SPI_Slave_Mode_GPIO_PIN_Configurations@F3064:
   464                           	callstack 0
   465  00006A                     	ds	1
   466  00006B                     MSSP_SPI_Msster_Mode_GPIO_PIN_Configurations@F3059:
   467                           	callstack 0
   468  00006B                     	ds	1
   469  00006C                     MSSP_SPI_Msster_Mode_GPIO_PIN_Configurations@F3057:
   470                           	callstack 0
   471  00006C                     	ds	1
   472  00006D                     MSSP_SPI_Msster_Mode_GPIO_PIN_Configurations@F3055:
   473                           	callstack 0
   474  00006D                     	ds	1
   475  00006E                     _RB7_Flag:
   476                           	callstack 0
   477  00006E                     	ds	1
   478  00006F                     _RB6_Flag:
   479                           	callstack 0
   480  00006F                     	ds	1
   481  000070                     _RB5_Flag:
   482                           	callstack 0
   483  000070                     	ds	1
   484  000071                     _RB4_Flag:
   485                           	callstack 0
   486  000071                     	ds	1
   487                           
   488                           	psect	bssBANK0
   489  0000B5                     __pbssBANK0:
   490                           	callstack 0
   491  0000B5                     	ds	6
   492  0000BB                     _EUSART_OverrunErrorHandler:
   493                           	callstack 0
   494  0000BB                     	ds	2
   495  0000BD                     _EUSART_FramingErrorHandler:
   496                           	callstack 0
   497  0000BD                     	ds	2
   498  0000BF                     _EUSART_RxInterruptHandler:
   499                           	callstack 0
   500  0000BF                     	ds	2
   501  0000C1                     _TMR3_InterruptHandler:
   502                           	callstack 0
   503  0000C1                     	ds	2
   504  0000C3                     _TMR2_InterruptHandler:
   505                           	callstack 0
   506  0000C3                     	ds	2
   507  0000C5                     _TMR1_InterruptHandler:
   508                           	callstack 0
   509  0000C5                     	ds	2
   510  0000C7                     _TMR0_InterruptHandler:
   511                           	callstack 0
   512  0000C7                     	ds	2
   513  0000C9                     _RB7_InterruptHandler_LOW:
   514                           	callstack 0
   515  0000C9                     	ds	2
   516  0000CB                     _RB7_InterruptHandler_HIGH:
   517                           	callstack 0
   518  0000CB                     	ds	2
   519  0000CD                     _RB6_InterruptHandler_LOW:
   520                           	callstack 0
   521  0000CD                     	ds	2
   522  0000CF                     _RB6_InterruptHandler_HIGH:
   523                           	callstack 0
   524  0000CF                     	ds	2
   525  0000D1                     _RB5_InterruptHandler_LOW:
   526                           	callstack 0
   527  0000D1                     	ds	2
   528  0000D3                     _RB5_InterruptHandler_HIGH:
   529                           	callstack 0
   530  0000D3                     	ds	2
   531  0000D5                     _RB4_InterruptHandler_LOW:
   532                           	callstack 0
   533  0000D5                     	ds	2
   534  0000D7                     _RB4_InterruptHandler_HIGH:
   535                           	callstack 0
   536  0000D7                     	ds	2
   537  0000D9                     _INT2_InterruptHandler:
   538                           	callstack 0
   539  0000D9                     	ds	2
   540  0000DB                     _INT1_InterruptHandler:
   541                           	callstack 0
   542  0000DB                     	ds	2
   543  0000DD                     _INT0_InterruptHandler:
   544                           	callstack 0
   545  0000DD                     	ds	2
   546  0000DF                     _I2C_Report_Receive_Overflow_InterruptHandle:
   547                           	callstack 0
   548  0000DF                     	ds	2
   549                           
   550                           	psect	dataBANK0
   551  000080                     __pdataBANK0:
   552                           	callstack 0
   553  000080                     _port_registers:
   554                           	callstack 0
   555  000080                     	ds	10
   556  00008A                     _lat_registers:
   557                           	callstack 0
   558  00008A                     	ds	10
   559  000094                     _tris_registers:
   560                           	callstack 0
   561  000094                     	ds	10
   562  00009E                     _usart_1:
   563                           	callstack 0
   564  00009E                     	ds	18
   565  0000B0                     _seg:
   566                           	callstack 0
   567  0000B0                     	ds	5
   568                           
   569                           	psect	cstackBANK0
   570  0000E1                     __pcstackBANK0:
   571                           	callstack 0
   572  0000E1                     ??_EUSART_Baud_Rate_Calculation:
   573                           
   574                           ; 1 bytes @ 0x0
   575  0000E1                     	ds	2
   576  0000E3                     EUSART_Baud_Rate_Calculation@Baud_Rate_Temp:
   577                           	callstack 0
   578                           
   579                           ; 4 bytes @ 0x2
   580  0000E3                     	ds	4
   581  0000E7                     _EUSART_Baud_Rate_Calculation$5451:
   582                           	callstack 0
   583                           
   584                           ; 4 bytes @ 0x6
   585  0000E7                     	ds	4
   586  0000EB                     EUSART_ASYNC_Init@_eusart:
   587                           	callstack 0
   588                           
   589                           ; 2 bytes @ 0xA
   590  0000EB                     	ds	2
   591  0000ED                     EUSART_ASYNC_Init@ret:
   592                           	callstack 0
   593                           
   594                           ; 1 bytes @ 0xC
   595  0000ED                     	ds	1
   596                           
   597                           	psect	cstackCOMRAM
   598  000001                     __pcstackCOMRAM:
   599                           	callstack 0
   600  000001                     RB4_ISR@RB4_Source:
   601                           	callstack 0
   602  000001                     RB5_ISR@RB5_Source:
   603                           	callstack 0
   604  000001                     RB6_ISR@RB6_Source:
   605                           	callstack 0
   606  000001                     RB7_ISR@RB7_Source:
   607                           	callstack 0
   608  000001                     USART_Read_string@buffer:
   609                           	callstack 0
   610                           
   611                           ; 2 bytes @ 0x0
   612  000001                     	ds	2
   613  000003                     USART_Read_string@len:
   614                           	callstack 0
   615                           
   616                           ; 1 bytes @ 0x2
   617  000003                     	ds	1
   618  000004                     USART_Read_string@data:
   619                           	callstack 0
   620                           
   621                           ; 1 bytes @ 0x3
   622  000004                     	ds	1
   623  000005                     USART_Read_string@i:
   624                           	callstack 0
   625                           
   626                           ; 1 bytes @ 0x4
   627  000005                     	ds	1
   628  000006                     usartTxHandeler@timeRxArray:
   629                           	callstack 0
   630                           
   631                           ; 4 bytes @ 0x5
   632  000006                     	ds	4
   633  00000A                     ??_InterruptManager:
   634                           
   635                           ; 1 bytes @ 0x9
   636  00000A                     	ds	4
   637  00000E                     ?___awdiv:
   638                           	callstack 0
   639  00000E                     ?___awmod:
   640                           	callstack 0
   641  00000E                     ?___fltol:
   642                           	callstack 0
   643  00000E                     ?___xxtofl:
   644                           	callstack 0
   645  00000E                     gpio_port_direction_intialize@direction:
   646                           	callstack 0
   647  00000E                     gpio_port_write_logic@logic:
   648                           	callstack 0
   649  00000E                     gpio_pin_direction_intialize@_pin_config:
   650                           	callstack 0
   651  00000E                     gpio_pin_write_logic@_pin_config:
   652                           	callstack 0
   653  00000E                     EUSART_ASYNC_TX_Init@_eusart:
   654                           	callstack 0
   655  00000E                     EUSART_ASYNC_RX_Init@_eusart:
   656                           	callstack 0
   657  00000E                     ___awdiv@dividend:
   658                           	callstack 0
   659  00000E                     ___awmod@dividend:
   660                           	callstack 0
   661  00000E                     ___fltol@f1:
   662                           	callstack 0
   663  00000E                     ___xxtofl@val:
   664                           	callstack 0
   665                           
   666                           ; 4 bytes @ 0xD
   667  00000E                     	ds	1
   668  00000F                     ??_gpio_port_direction_intialize:
   669  00000F                     ??_gpio_port_write_logic:
   670                           
   671                           ; 1 bytes @ 0xE
   672  00000F                     	ds	1
   673  000010                     ??_gpio_pin_direction_intialize:
   674  000010                     gpio_pin_write_logic@logic:
   675                           	callstack 0
   676  000010                     ___awdiv@divisor:
   677                           	callstack 0
   678  000010                     ___awmod@divisor:
   679                           	callstack 0
   680                           
   681                           ; 2 bytes @ 0xF
   682  000010                     	ds	1
   683  000011                     ??_gpio_pin_write_logic:
   684  000011                     gpio_port_direction_intialize@ret:
   685                           	callstack 0
   686  000011                     gpio_port_write_logic@ret:
   687                           	callstack 0
   688                           
   689                           ; 1 bytes @ 0x10
   690  000011                     	ds	1
   691  000012                     ??___fltol:
   692  000012                     ??___xxtofl:
   693  000012                     gpio_port_direction_intialize@port:
   694                           	callstack 0
   695  000012                     gpio_port_write_logic@port:
   696                           	callstack 0
   697  000012                     ___awdiv@counter:
   698                           	callstack 0
   699  000012                     ___awmod@counter:
   700                           	callstack 0
   701                           
   702                           ; 1 bytes @ 0x11
   703  000012                     	ds	1
   704  000013                     ___awdiv@sign:
   705                           	callstack 0
   706  000013                     ___awmod@sign:
   707                           	callstack 0
   708                           
   709                           ; 1 bytes @ 0x12
   710  000013                     	ds	1
   711  000014                     ___awdiv@quotient:
   712                           	callstack 0
   713                           
   714                           ; 2 bytes @ 0x13
   715  000014                     	ds	2
   716  000016                     gpio_pin_direction_intialize@ret:
   717                           	callstack 0
   718  000016                     ___fltol@sign1:
   719                           	callstack 0
   720  000016                     ___xxtofl@sign:
   721                           	callstack 0
   722                           
   723                           ; 1 bytes @ 0x15
   724  000016                     	ds	1
   725  000017                     gpio_pin_write_logic@ret:
   726                           	callstack 0
   727  000017                     ___fltol@exp1:
   728                           	callstack 0
   729  000017                     ___xxtofl@exp:
   730                           	callstack 0
   731                           
   732                           ; 1 bytes @ 0x16
   733  000017                     	ds	1
   734  000018                     seven_segement_write_number@seg:
   735                           	callstack 0
   736  000018                     gpio_pin_intialize@_pin_config:
   737                           	callstack 0
   738  000018                     ___xxtofl@arg:
   739                           	callstack 0
   740                           
   741                           ; 4 bytes @ 0x17
   742  000018                     	ds	2
   743  00001A                     ??_gpio_pin_intialize:
   744  00001A                     seven_segement_write_number@number:
   745                           	callstack 0
   746                           
   747                           ; 1 bytes @ 0x19
   748  00001A                     	ds	1
   749  00001B                     seven_segement_write_number@ret:
   750                           	callstack 0
   751  00001B                     gpio_pin_intialize@ret:
   752                           	callstack 0
   753                           
   754                           ; 1 bytes @ 0x1A
   755  00001B                     	ds	1
   756  00001C                     ??_SegmentsUpdate:
   757  00001C                     ?___fldiv:
   758                           	callstack 0
   759  00001C                     seven_segement_intialize@seg:
   760                           	callstack 0
   761  00001C                     ___fldiv@b:
   762                           	callstack 0
   763                           
   764                           ; 4 bytes @ 0x1B
   765  00001C                     	ds	2
   766  00001E                     seven_segement_intialize@ret:
   767                           	callstack 0
   768                           
   769                           ; 1 bytes @ 0x1D
   770  00001E                     	ds	2
   771  000020                     ___fldiv@a:
   772                           	callstack 0
   773                           
   774                           ; 4 bytes @ 0x1F
   775  000020                     	ds	4
   776  000024                     ??___fldiv:
   777                           
   778                           ; 1 bytes @ 0x23
   779  000024                     	ds	4
   780  000028                     ___fldiv@rem:
   781                           	callstack 0
   782                           
   783                           ; 4 bytes @ 0x27
   784  000028                     	ds	4
   785  00002C                     ___fldiv@sign:
   786                           	callstack 0
   787                           
   788                           ; 1 bytes @ 0x2B
   789  00002C                     	ds	1
   790  00002D                     ___fldiv@new_exp:
   791                           	callstack 0
   792                           
   793                           ; 2 bytes @ 0x2C
   794  00002D                     	ds	2
   795  00002F                     ___fldiv@grs:
   796                           	callstack 0
   797                           
   798                           ; 4 bytes @ 0x2E
   799  00002F                     	ds	4
   800  000033                     ___fldiv@bexp:
   801                           	callstack 0
   802                           
   803                           ; 1 bytes @ 0x32
   804  000033                     	ds	1
   805  000034                     ___fldiv@aexp:
   806                           	callstack 0
   807                           
   808                           ; 1 bytes @ 0x33
   809  000034                     	ds	1
   810  000035                     ?___fladd:
   811                           	callstack 0
   812  000035                     ___fladd@b:
   813                           	callstack 0
   814                           
   815                           ; 4 bytes @ 0x34
   816  000035                     	ds	4
   817  000039                     ___fladd@a:
   818                           	callstack 0
   819                           
   820                           ; 4 bytes @ 0x38
   821  000039                     	ds	4
   822  00003D                     ??___fladd:
   823                           
   824                           ; 1 bytes @ 0x3C
   825  00003D                     	ds	4
   826  000041                     ___fladd@signs:
   827                           	callstack 0
   828                           
   829                           ; 1 bytes @ 0x40
   830  000041                     	ds	1
   831  000042                     ___fladd@aexp:
   832                           	callstack 0
   833                           
   834                           ; 1 bytes @ 0x41
   835  000042                     	ds	1
   836  000043                     ___fladd@bexp:
   837                           	callstack 0
   838                           
   839                           ; 1 bytes @ 0x42
   840  000043                     	ds	1
   841  000044                     ___fladd@grs:
   842                           	callstack 0
   843                           
   844                           ; 1 bytes @ 0x43
   845  000044                     	ds	1
   846  000045                     EUSART_Baud_Rate_Calculation@_eusart:
   847                           	callstack 0
   848                           
   849                           ; 2 bytes @ 0x44
   850  000045                     	ds	2
   851  000047                     
   852                           ; 1 bytes @ 0x46
   853 ;;
   854 ;;Main: autosize = 0, tempsize = 0, incstack = 0, save=0
   855 ;;
   856 ;; *************** function _main *****************
   857 ;; Defined at:
   858 ;;		line 69 in file "application.c"
   859 ;; Parameters:    Size  Location     Type
   860 ;;		None
   861 ;; Auto vars:     Size  Location     Type
   862 ;;		None
   863 ;; Return value:  Size  Location     Type
   864 ;;                  2  1745[None  ] int 
   865 ;; Registers used:
   866 ;;		wreg, fsr2l, fsr2h, status,2, status,0, prodl, prodh, cstack
   867 ;; Tracked objects:
   868 ;;		On entry : 0/0
   869 ;;		On exit  : 0/0
   870 ;;		Unchanged: 0/0
   871 ;; Data sizes:     COMRAM   BANK0   BANK1   BANK2   BANK3   BANK4   BANK5   BANK6   BANK7   BANK8   BANK9  BANK10  BANK1
      +1  BANK12  BANK13  BANK14  BANK15
   872 ;;      Params:         0       0       0       0       0       0       0       0       0       0       0       0       
      +0       0       0       0       0
   873 ;;      Locals:         0       0       0       0       0       0       0       0       0       0       0       0       
      +0       0       0       0       0
   874 ;;      Temps:          0       0       0       0       0       0       0       0       0       0       0       0       
      +0       0       0       0       0
   875 ;;      Totals:         0       0       0       0       0       0       0       0       0       0       0       0       
      +0       0       0       0       0
   876 ;;Total ram usage:        0 bytes
   877 ;; Hardware stack levels required when called: 8
   878 ;; This function calls:
   879 ;;		_SegmentsUpdate
   880 ;;		_TimesUpdate
   881 ;;		_application_intialize
   882 ;; This function is called by:
   883 ;;		Startup code after reset
   884 ;; This function uses a non-reentrant model
   885 ;;
   886                           
   887                           	psect	text0
   888  002F94                     __ptext0:
   889                           	callstack 0
   890  002F94                     _main:
   891                           	callstack 23
   892  002F94                     
   893                           ;application.c: 71:     application_intialize();
   894  002F94  EC55  F017         	call	_application_intialize	;wreg free
   895  002F98                     l1746:
   896                           
   897                           ;application.c: 73:     {;application.c: 74:         SegmentsUpdate();
   898  002F98  EC95  F011         	call	_SegmentsUpdate	;wreg free
   899  002F9C                     
   900                           ;application.c: 75:         TimesUpdate();
   901  002F9C  ECAF  F016         	call	_TimesUpdate	;wreg free
   902  002FA0  EFCC  F017         	goto	l1746
   903  002FA4  EF07  F000         	goto	start
   904  002FA8                     __end_of_main:
   905                           	callstack 0
   906                           
   907 ;; *************** function _application_intialize *****************
   908 ;; Defined at:
   909 ;;		line 80 in file "application.c"
   910 ;; Parameters:    Size  Location     Type
   911 ;;		None
   912 ;; Auto vars:     Size  Location     Type
   913 ;;		None
   914 ;; Return value:  Size  Location     Type
   915 ;;                  1    wreg      void 
   916 ;; Registers used:
   917 ;;		wreg, fsr2l, fsr2h, status,2, status,0, prodl, prodh, cstack
   918 ;; Tracked objects:
   919 ;;		On entry : 0/0
   920 ;;		On exit  : 0/0
   921 ;;		Unchanged: 0/0
   922 ;; Data sizes:     COMRAM   BANK0   BANK1   BANK2   BANK3   BANK4   BANK5   BANK6   BANK7   BANK8   BANK9  BANK10  BANK1
      +1  BANK12  BANK13  BANK14  BANK15
   923 ;;      Params:         0       0       0       0       0       0       0       0       0       0       0       0       
      +0       0       0       0       0
   924 ;;      Locals:         0       0       0       0       0       0       0       0       0       0       0       0       
      +0       0       0       0       0
   925 ;;      Temps:          0       0       0       0       0       0       0       0       0       0       0       0       
      +0       0       0       0       0
   926 ;;      Totals:         0       0       0       0       0       0       0       0       0       0       0       0       
      +0       0       0       0       0
   927 ;;Total ram usage:        0 bytes
   928 ;; Hardware stack levels used: 1
   929 ;; Hardware stack levels required when called: 7
   930 ;; This function calls:
   931 ;;		_EUSART_ASYNC_Init
   932 ;;		_gpio_port_direction_intialize
   933 ;;		_seven_segement_intialize
   934 ;; This function is called by:
   935 ;;		_main
   936 ;; This function uses a non-reentrant model
   937 ;;
   938                           
   939                           	psect	text1
   940  002EAA                     __ptext1:
   941                           	callstack 0
   942  002EAA                     _application_intialize:
   943                           	callstack 23
   944  002EAA                     
   945                           ;application.c: 82:     ret = gpio_port_direction_intialize(PORTD_INDEX, 0xC0);
   946  002EAA  0EC0               	movlw	192
   947  002EAC  6E0E               	movwf	gpio_port_direction_intialize@direction^0,c
   948  002EAE  0E03               	movlw	3
   949  002EB0  ECD4  F016         	call	_gpio_port_direction_intialize
   950  002EB4  0100               	movlb	0	; () banked
   951  002EB6  6FEE               	movwf	_ret& (0+255),b
   952                           
   953                           ;application.c: 83:     ret = seven_segement_intialize(&seg);
   954  002EB8  0EB0               	movlw	low _seg
   955  002EBA  6E1C               	movwf	seven_segement_intialize@seg^0,c
   956  002EBC  0E00               	movlw	high _seg
   957  002EBE  6E1D               	movwf	(seven_segement_intialize@seg+1)^0,c
   958  002EC0  EC55  F016         	call	_seven_segement_intialize	;wreg free
   959  002EC4  0100               	movlb	0	; () banked
   960  002EC6  6FEE               	movwf	_ret& (0+255),b
   961  002EC8                     
   962                           ; BSR set to: 0
   963                           ;application.c: 84:     ret = EUSART_ASYNC_Init(&usart_1);
   964  002EC8  0E9E               	movlw	low _usart_1
   965  002ECA  6FEB               	movwf	EUSART_ASYNC_Init@_eusart& (0+255),b
   966  002ECC  0E00               	movlw	high _usart_1
   967  002ECE  6FEC               	movwf	(EUSART_ASYNC_Init@_eusart+1)& (0+255),b
   968  002ED0  EC86  F016         	call	_EUSART_ASYNC_Init	;wreg free
   969  002ED4  0100               	movlb	0	; () banked
   970  002ED6  6FEE               	movwf	_ret& (0+255),b
   971  002ED8                     
   972                           ; BSR set to: 0
   973  002ED8  0012               	return		;funcret
   974  002EDA                     __end_of_application_intialize:
   975                           	callstack 0
   976                           
   977 ;; *************** function _seven_segement_intialize *****************
   978 ;; Defined at:
   979 ;;		line 17 in file "ECU_Layer/7_Segment/ecu_seven_segment.c"
   980 ;; Parameters:    Size  Location     Type
   981 ;;  seg             2   27[COMRAM] PTR const struct .
   982 ;;		 -> seg(5), 
   983 ;; Auto vars:     Size  Location     Type
   984 ;;  ret             1   29[COMRAM] unsigned char 
   985 ;; Return value:  Size  Location     Type
   986 ;;                  1    wreg      unsigned char 
   987 ;; Registers used:
   988 ;;		wreg, fsr2l, fsr2h, status,2, status,0, prodl, prodh, cstack
   989 ;; Tracked objects:
   990 ;;		On entry : 0/0
   991 ;;		On exit  : 0/0
   992 ;;		Unchanged: 0/0
   993 ;; Data sizes:     COMRAM   BANK0   BANK1   BANK2   BANK3   BANK4   BANK5   BANK6   BANK7   BANK8   BANK9  BANK10  BANK1
      +1  BANK12  BANK13  BANK14  BANK15
   994 ;;      Params:         2       0       0       0       0       0       0       0       0       0       0       0       
      +0       0       0       0       0
   995 ;;      Locals:         1       0       0       0       0       0       0       0       0       0       0       0       
      +0       0       0       0       0
   996 ;;      Temps:          0       0       0       0       0       0       0       0       0       0       0       0       
      +0       0       0       0       0
   997 ;;      Totals:         3       0       0       0       0       0       0       0       0       0       0       0       
      +0       0       0       0       0
   998 ;;Total ram usage:        3 bytes
   999 ;; Hardware stack levels used: 1
  1000 ;; Hardware stack levels required when called: 6
  1001 ;; This function calls:
  1002 ;;		_gpio_pin_intialize
  1003 ;; This function is called by:
  1004 ;;		_application_intialize
  1005 ;; This function uses a non-reentrant model
  1006 ;;
  1007                           
  1008                           	psect	text2
  1009  002CAA                     __ptext2:
  1010                           	callstack 0
  1011  002CAA                     _seven_segement_intialize:
  1012                           	callstack 23
  1013  002CAA                     
  1014                           ;ECU_Layer/7_Segment/ecu_seven_segment.c: 19:     if(((void*)0) == seg){
  1015  002CAA  501C               	movf	seven_segement_intialize@seg^0,w,c
  1016  002CAC  101D               	iorwf	(seven_segement_intialize@seg+1)^0,w,c
  1017  002CAE  A4D8               	btfss	status,2,c
  1018  002CB0  EF5C  F016         	goto	u5371
  1019  002CB4  EF5E  F016         	goto	u5370
  1020  002CB8                     u5371:
  1021  002CB8  EF62  F016         	goto	l6295
  1022  002CBC                     u5370:
  1023  002CBC                     
  1024                           ;ECU_Layer/7_Segment/ecu_seven_segment.c: 20:         ret = (Std_ReturnType)0x00;
  1025  002CBC  0E00               	movlw	0
  1026  002CBE  6E1E               	movwf	seven_segement_intialize@ret^0,c
  1027                           
  1028                           ;ECU_Layer/7_Segment/ecu_seven_segment.c: 21:     }
  1029  002CC0  EF84  F016         	goto	l6297
  1030  002CC4                     l6295:
  1031                           
  1032                           ;ECU_Layer/7_Segment/ecu_seven_segment.c: 23:         ret = gpio_pin_intialize(&(seg->se
      +                          gment_pins[0]));
  1033  002CC4  C01C  F018         	movff	seven_segement_intialize@seg,gpio_pin_intialize@_pin_config
  1034  002CC8  C01D  F019         	movff	seven_segement_intialize@seg+1,gpio_pin_intialize@_pin_config+1
  1035  002CCC  ECEE  F015         	call	_gpio_pin_intialize	;wreg free
  1036  002CD0  6E1E               	movwf	seven_segement_intialize@ret^0,c
  1037                           
  1038                           ;ECU_Layer/7_Segment/ecu_seven_segment.c: 24:         ret = gpio_pin_intialize(&(seg->se
      +                          gment_pins[1]));
  1039  002CD2  0E01               	movlw	1
  1040  002CD4  241C               	addwf	seven_segement_intialize@seg^0,w,c
  1041  002CD6  6E18               	movwf	gpio_pin_intialize@_pin_config^0,c
  1042  002CD8  0E00               	movlw	0
  1043  002CDA  201D               	addwfc	(seven_segement_intialize@seg+1)^0,w,c
  1044  002CDC  6E19               	movwf	(gpio_pin_intialize@_pin_config+1)^0,c
  1045  002CDE  ECEE  F015         	call	_gpio_pin_intialize	;wreg free
  1046  002CE2  6E1E               	movwf	seven_segement_intialize@ret^0,c
  1047                           
  1048                           ;ECU_Layer/7_Segment/ecu_seven_segment.c: 25:         ret = gpio_pin_intialize(&(seg->se
      +                          gment_pins[2]));
  1049  002CE4  0E02               	movlw	2
  1050  002CE6  241C               	addwf	seven_segement_intialize@seg^0,w,c
  1051  002CE8  6E18               	movwf	gpio_pin_intialize@_pin_config^0,c
  1052  002CEA  0E00               	movlw	0
  1053  002CEC  201D               	addwfc	(seven_segement_intialize@seg+1)^0,w,c
  1054  002CEE  6E19               	movwf	(gpio_pin_intialize@_pin_config+1)^0,c
  1055  002CF0  ECEE  F015         	call	_gpio_pin_intialize	;wreg free
  1056  002CF4  6E1E               	movwf	seven_segement_intialize@ret^0,c
  1057                           
  1058                           ;ECU_Layer/7_Segment/ecu_seven_segment.c: 26:         ret = gpio_pin_intialize(&(seg->se
      +                          gment_pins[3]));
  1059  002CF6  0E03               	movlw	3
  1060  002CF8  241C               	addwf	seven_segement_intialize@seg^0,w,c
  1061  002CFA  6E18               	movwf	gpio_pin_intialize@_pin_config^0,c
  1062  002CFC  0E00               	movlw	0
  1063  002CFE  201D               	addwfc	(seven_segement_intialize@seg+1)^0,w,c
  1064  002D00  6E19               	movwf	(gpio_pin_intialize@_pin_config+1)^0,c
  1065  002D02  ECEE  F015         	call	_gpio_pin_intialize	;wreg free
  1066  002D06  6E1E               	movwf	seven_segement_intialize@ret^0,c
  1067  002D08                     l6297:
  1068                           
  1069                           ;ECU_Layer/7_Segment/ecu_seven_segment.c: 28:     return ret;
  1070  002D08  501E               	movf	seven_segement_intialize@ret^0,w,c
  1071  002D0A  0012               	return		;funcret
  1072  002D0C                     __end_of_seven_segement_intialize:
  1073                           	callstack 0
  1074                           
  1075 ;; *************** function _gpio_pin_intialize *****************
  1076 ;; Defined at:
  1077 ;;		line 144 in file "MCAL_Layer/GPIO/hal_gpio.c"
  1078 ;; Parameters:    Size  Location     Type
  1079 ;;  _pin_config     2   23[COMRAM] PTR const struct .
  1080 ;;		 -> seg.segment_pins(4), seg(5), relay_initialize@pin_obj(1), led_initialize@pin_obj(1), 
  1081 ;; Auto vars:     Size  Location     Type
  1082 ;;  ret             1   26[COMRAM] unsigned char 
  1083 ;; Return value:  Size  Location     Type
  1084 ;;                  1    wreg      unsigned char 
  1085 ;; Registers used:
  1086 ;;		wreg, fsr2l, fsr2h, status,2, status,0, prodl, prodh, cstack
  1087 ;; Tracked objects:
  1088 ;;		On entry : 0/0
  1089 ;;		On exit  : 0/0
  1090 ;;		Unchanged: 0/0
  1091 ;; Data sizes:     COMRAM   BANK0   BANK1   BANK2   BANK3   BANK4   BANK5   BANK6   BANK7   BANK8   BANK9  BANK10  BANK1
      +1  BANK12  BANK13  BANK14  BANK15
  1092 ;;      Params:         2       0       0       0       0       0       0       0       0       0       0       0       
      +0       0       0       0       0
  1093 ;;      Locals:         1       0       0       0       0       0       0       0       0       0       0       0       
      +0       0       0       0       0
  1094 ;;      Temps:          1       0       0       0       0       0       0       0       0       0       0       0       
      +0       0       0       0       0
  1095 ;;      Totals:         4       0       0       0       0       0       0       0       0       0       0       0       
      +0       0       0       0       0
  1096 ;;Total ram usage:        4 bytes
  1097 ;; Hardware stack levels used: 1
  1098 ;; Hardware stack levels required when called: 5
  1099 ;; This function calls:
  1100 ;;		_gpio_pin_direction_intialize
  1101 ;;		_gpio_pin_write_logic
  1102 ;; This function is called by:
  1103 ;;		_seven_segement_intialize
  1104 ;;		_lcd_4bit_intialize
  1105 ;;		_lcd_8bit_intialize
  1106 ;;		_dc_motor_initialize
  1107 ;;		_keypad_initialize
  1108 ;;		_led_initialize
  1109 ;;		_relay_initialize
  1110 ;;		_Ultrasonic_Init
  1111 ;;		_CCP_Init
  1112 ;; This function uses a non-reentrant model
  1113 ;;
  1114                           
  1115                           	psect	text3
  1116  002BDC                     __ptext3:
  1117                           	callstack 0
  1118  002BDC                     _gpio_pin_intialize:
  1119                           	callstack 23
  1120  002BDC                     
  1121                           ;MCAL_Layer/GPIO/hal_gpio.c: 146:     if(((void*)0) == _pin_config || _pin_config->pin >
      +                           8 -1){
  1122  002BDC  5018               	movf	gpio_pin_intialize@_pin_config^0,w,c
  1123  002BDE  1019               	iorwf	(gpio_pin_intialize@_pin_config+1)^0,w,c
  1124  002BE0  B4D8               	btfsc	status,2,c
  1125  002BE2  EFF5  F015         	goto	u5231
  1126  002BE6  EFF7  F015         	goto	u5230
  1127  002BEA                     u5231:
  1128  002BEA  EF08  F016         	goto	l6197
  1129  002BEE                     u5230:
  1130  002BEE  C018  FFD9         	movff	gpio_pin_intialize@_pin_config,fsr2l
  1131  002BF2  C019  FFDA         	movff	gpio_pin_intialize@_pin_config+1,fsr2h
  1132  002BF6  30DF               	rrcf	223,w,c
  1133  002BF8  32E8               	rrcf	wreg,f,c
  1134  002BFA  32E8               	rrcf	wreg,f,c
  1135  002BFC  0B07               	andlw	7
  1136  002BFE  6E1A               	movwf	??_gpio_pin_intialize^0,c
  1137  002C00  0E07               	movlw	7
  1138  002C02  641A               	cpfsgt	??_gpio_pin_intialize^0,c
  1139  002C04  EF06  F016         	goto	u5241
  1140  002C08  EF08  F016         	goto	u5240
  1141  002C0C                     u5241:
  1142  002C0C  EF0C  F016         	goto	l6199
  1143  002C10                     u5240:
  1144  002C10                     l6197:
  1145                           
  1146                           ;MCAL_Layer/GPIO/hal_gpio.c: 147:         ret = (Std_ReturnType)0x00;
  1147  002C10  0E00               	movlw	0
  1148  002C12  6E1B               	movwf	gpio_pin_intialize@ret^0,c
  1149                           
  1150                           ;MCAL_Layer/GPIO/hal_gpio.c: 148:     }
  1151  002C14  EF22  F016         	goto	l6201
  1152  002C18                     l6199:
  1153                           
  1154                           ;MCAL_Layer/GPIO/hal_gpio.c: 150:         ret = gpio_pin_direction_intialize(_pin_config
      +                          );
  1155  002C18  C018  F00E         	movff	gpio_pin_intialize@_pin_config,gpio_pin_direction_intialize@_pin_config
  1156  002C1C  C019  F00F         	movff	gpio_pin_intialize@_pin_config+1,gpio_pin_direction_intialize@_pin_config+1
  1157  002C20  EC67  F012         	call	_gpio_pin_direction_intialize	;wreg free
  1158  002C24  6E1B               	movwf	gpio_pin_intialize@ret^0,c
  1159                           
  1160                           ;MCAL_Layer/GPIO/hal_gpio.c: 151:         ret = gpio_pin_write_logic(_pin_config, _pin_c
      +                          onfig->logic);
  1161  002C26  C018  F00E         	movff	gpio_pin_intialize@_pin_config,gpio_pin_write_logic@_pin_config
  1162  002C2A  C019  F00F         	movff	gpio_pin_intialize@_pin_config+1,gpio_pin_write_logic@_pin_config+1
  1163  002C2E  C018  FFD9         	movff	gpio_pin_intialize@_pin_config,fsr2l
  1164  002C32  C019  FFDA         	movff	gpio_pin_intialize@_pin_config+1,fsr2h
  1165  002C36  0E00               	movlw	0
  1166  002C38  BEDF               	btfsc	indf2,7,c
  1167  002C3A  0E01               	movlw	1
  1168  002C3C  6E10               	movwf	gpio_pin_write_logic@logic^0,c
  1169  002C3E  EC09  F013         	call	_gpio_pin_write_logic	;wreg free
  1170  002C42  6E1B               	movwf	gpio_pin_intialize@ret^0,c
  1171  002C44                     l6201:
  1172                           
  1173                           ;MCAL_Layer/GPIO/hal_gpio.c: 153:     return ret;
  1174  002C44  501B               	movf	gpio_pin_intialize@ret^0,w,c
  1175  002C46  0012               	return		;funcret
  1176  002C48                     __end_of_gpio_pin_intialize:
  1177                           	callstack 0
  1178                           
  1179 ;; *************** function _gpio_pin_direction_intialize *****************
  1180 ;; Defined at:
  1181 ;;		line 25 in file "MCAL_Layer/GPIO/hal_gpio.c"
  1182 ;; Parameters:    Size  Location     Type
  1183 ;;  _pin_config     2   13[COMRAM] PTR const struct .
  1184 ;;		 -> seg.segment_pins(4), seg(5), MSSP_SPI_Slave_Mode_GPIO_PIN_Configurations@SPI_SS(1), MSSP_SPI_Slave_Mode_GPIO_PIN
      +_Configurations@SPI_CLK(1), 
  1185 ;;		 -> MSSP_SPI_Slave_Mode_GPIO_PIN_Configurations@SPI_SDI(1), MSSP_SPI_Slave_Mode_GPIO_PIN_Configurations@SPI_SDO(1), 
      +MSSP_SPI_Msster_Mode_GPIO_PIN_Configurations@SPI_CLK(1), MSSP_SPI_Msster_Mode_GPIO_PIN_Configurations@SPI_SDI(1), 
  1186 ;;		 -> MSSP_SPI_Msster_Mode_GPIO_PIN_Configurations@SPI_SDO(1), relay_initialize@pin_obj(1), led_initialize@pin_obj(1),
      + 
  1187 ;; Auto vars:     Size  Location     Type
  1188 ;;  ret             1   21[COMRAM] unsigned char 
  1189 ;; Return value:  Size  Location     Type
  1190 ;;                  1    wreg      unsigned char 
  1191 ;; Registers used:
  1192 ;;		wreg, fsr2l, fsr2h, status,2, status,0, prodl, prodh
  1193 ;; Tracked objects:
  1194 ;;		On entry : 0/0
  1195 ;;		On exit  : 0/0
  1196 ;;		Unchanged: 0/0
  1197 ;; Data sizes:     COMRAM   BANK0   BANK1   BANK2   BANK3   BANK4   BANK5   BANK6   BANK7   BANK8   BANK9  BANK10  BANK1
      +1  BANK12  BANK13  BANK14  BANK15
  1198 ;;      Params:         2       0       0       0       0       0       0       0       0       0       0       0       
      +0       0       0       0       0
  1199 ;;      Locals:         1       0       0       0       0       0       0       0       0       0       0       0       
      +0       0       0       0       0
  1200 ;;      Temps:          6       0       0       0       0       0       0       0       0       0       0       0       
      +0       0       0       0       0
  1201 ;;      Totals:         9       0       0       0       0       0       0       0       0       0       0       0       
      +0       0       0       0       0
  1202 ;;Total ram usage:        9 bytes
  1203 ;; Hardware stack levels used: 1
  1204 ;; Hardware stack levels required when called: 4
  1205 ;; This function calls:
  1206 ;;		Nothing
  1207 ;; This function is called by:
  1208 ;;		_gpio_pin_intialize
  1209 ;;		_button_initialize
  1210 ;;		_keypad_initialize
  1211 ;;		_Interrupt_RBx_Init
  1212 ;;		_Interrupt_INTx_Pin_Init
  1213 ;;		_MSSP_SPI_Msster_Mode_GPIO_PIN_Configurations
  1214 ;;		_MSSP_SPI_Slave_Mode_GPIO_PIN_Configurations
  1215 ;; This function uses a non-reentrant model
  1216 ;;
  1217                           
  1218                           	psect	text4
  1219  0024CE                     __ptext4:
  1220                           	callstack 0
  1221  0024CE                     _gpio_pin_direction_intialize:
  1222                           	callstack 23
  1223  0024CE                     
  1224                           ;MCAL_Layer/GPIO/hal_gpio.c: 26:     Std_ReturnType ret = (Std_ReturnType)0x01;
  1225  0024CE  0E01               	movlw	1
  1226  0024D0  6E16               	movwf	gpio_pin_direction_intialize@ret^0,c
  1227  0024D2                     
  1228                           ;MCAL_Layer/GPIO/hal_gpio.c: 27:     if(((void*)0) == _pin_config || _pin_config->pin > 
      +                          8 -1){
  1229  0024D2  500E               	movf	gpio_pin_direction_intialize@_pin_config^0,w,c
  1230  0024D4  100F               	iorwf	(gpio_pin_direction_intialize@_pin_config+1)^0,w,c
  1231  0024D6  B4D8               	btfsc	status,2,c
  1232  0024D8  EF70  F012         	goto	u4381
  1233  0024DC  EF72  F012         	goto	u4380
  1234  0024E0                     u4381:
  1235  0024E0  EF83  F012         	goto	l5743
  1236  0024E4                     u4380:
  1237  0024E4  C00E  FFD9         	movff	gpio_pin_direction_intialize@_pin_config,fsr2l
  1238  0024E8  C00F  FFDA         	movff	gpio_pin_direction_intialize@_pin_config+1,fsr2h
  1239  0024EC  30DF               	rrcf	223,w,c
  1240  0024EE  32E8               	rrcf	wreg,f,c
  1241  0024F0  32E8               	rrcf	wreg,f,c
  1242  0024F2  0B07               	andlw	7
  1243  0024F4  6E10               	movwf	??_gpio_pin_direction_intialize^0,c
  1244  0024F6  0E07               	movlw	7
  1245  0024F8  6410               	cpfsgt	??_gpio_pin_direction_intialize^0,c
  1246  0024FA  EF81  F012         	goto	u4391
  1247  0024FE  EF83  F012         	goto	u4390
  1248  002502                     u4391:
  1249  002502  EFE6  F012         	goto	l5751
  1250  002506                     u4390:
  1251  002506                     l5743:
  1252                           
  1253                           ;MCAL_Layer/GPIO/hal_gpio.c: 28:         ret = (Std_ReturnType)0x00;
  1254  002506  0E00               	movlw	0
  1255  002508  6E16               	movwf	gpio_pin_direction_intialize@ret^0,c
  1256                           
  1257                           ;MCAL_Layer/GPIO/hal_gpio.c: 29:     }
  1258  00250A  EF07  F013         	goto	l5753
  1259  00250E                     l5745:
  1260                           
  1261                           ;MCAL_Layer/GPIO/hal_gpio.c: 33:                 (*tris_registers[_pin_config->port] &= 
      +                          ~((uint8)1 << _pin_config->pin));
  1262  00250E  C00E  FFD9         	movff	gpio_pin_direction_intialize@_pin_config,fsr2l
  1263  002512  C00F  FFDA         	movff	gpio_pin_direction_intialize@_pin_config+1,fsr2h
  1264  002516  30DF               	rrcf	223,w,c
  1265  002518  32E8               	rrcf	wreg,f,c
  1266  00251A  32E8               	rrcf	wreg,f,c
  1267  00251C  0B07               	andlw	7
  1268  00251E  6E10               	movwf	??_gpio_pin_direction_intialize^0,c
  1269  002520  0E01               	movlw	1
  1270  002522  6E11               	movwf	(??_gpio_pin_direction_intialize+1)^0,c
  1271  002524  2A10               	incf	??_gpio_pin_direction_intialize^0,f,c
  1272  002526  EF97  F012         	goto	u4404
  1273  00252A                     u4405:
  1274  00252A  90D8               	bcf	status,0,c
  1275  00252C  3611               	rlcf	(??_gpio_pin_direction_intialize+1)^0,f,c
  1276  00252E                     u4404:
  1277  00252E  2E10               	decfsz	??_gpio_pin_direction_intialize^0,f,c
  1278  002530  EF95  F012         	goto	u4405
  1279  002534  5011               	movf	(??_gpio_pin_direction_intialize+1)^0,w,c
  1280  002536  0AFF               	xorlw	255
  1281  002538  6E12               	movwf	(??_gpio_pin_direction_intialize+2)^0,c
  1282  00253A  C00E  FFD9         	movff	gpio_pin_direction_intialize@_pin_config,fsr2l
  1283  00253E  C00F  FFDA         	movff	gpio_pin_direction_intialize@_pin_config+1,fsr2h
  1284  002542  50DF               	movf	223,w,c
  1285  002544  0B07               	andlw	7
  1286  002546  6E13               	movwf	(??_gpio_pin_direction_intialize+3)^0,c
  1287  002548  5013               	movf	(??_gpio_pin_direction_intialize+3)^0,w,c
  1288  00254A  0D02               	mullw	2
  1289  00254C  0E94               	movlw	low _tris_registers
  1290  00254E  24F3               	addwf	243,w,c
  1291  002550  6ED9               	movwf	fsr2l,c
  1292  002552  0E00               	movlw	high _tris_registers
  1293  002554  20F4               	addwfc	prodh,w,c
  1294  002556  6EDA               	movwf	fsr2h,c
  1295  002558  CFDE F014          	movff	postinc2,??_gpio_pin_direction_intialize+4
  1296  00255C  CFDD F015          	movff	postdec2,??_gpio_pin_direction_intialize+5
  1297  002560  C014  FFD9         	movff	??_gpio_pin_direction_intialize+4,fsr2l
  1298  002564  C015  FFDA         	movff	??_gpio_pin_direction_intialize+5,fsr2h
  1299  002568  5012               	movf	(??_gpio_pin_direction_intialize+2)^0,w,c
  1300  00256A  16DF               	andwf	indf2,f,c
  1301                           
  1302                           ;MCAL_Layer/GPIO/hal_gpio.c: 34:                 break;
  1303  00256C  EF07  F013         	goto	l5753
  1304  002570                     l5747:
  1305                           
  1306                           ;MCAL_Layer/GPIO/hal_gpio.c: 36:                 (*tris_registers[_pin_config->port] |= 
      +                          ((uint8)1 << _pin_config->pin));
  1307  002570  C00E  FFD9         	movff	gpio_pin_direction_intialize@_pin_config,fsr2l
  1308  002574  C00F  FFDA         	movff	gpio_pin_direction_intialize@_pin_config+1,fsr2h
  1309  002578  30DF               	rrcf	223,w,c
  1310  00257A  32E8               	rrcf	wreg,f,c
  1311  00257C  32E8               	rrcf	wreg,f,c
  1312  00257E  0B07               	andlw	7
  1313  002580  6E10               	movwf	??_gpio_pin_direction_intialize^0,c
  1314  002582  0E01               	movlw	1
  1315  002584  6E11               	movwf	(??_gpio_pin_direction_intialize+1)^0,c
  1316  002586  2A10               	incf	??_gpio_pin_direction_intialize^0,f,c
  1317  002588  EFC8  F012         	goto	u4414
  1318  00258C                     u4415:
  1319  00258C  90D8               	bcf	status,0,c
  1320  00258E  3611               	rlcf	(??_gpio_pin_direction_intialize+1)^0,f,c
  1321  002590                     u4414:
  1322  002590  2E10               	decfsz	??_gpio_pin_direction_intialize^0,f,c
  1323  002592  EFC6  F012         	goto	u4415
  1324  002596  C00E  FFD9         	movff	gpio_pin_direction_intialize@_pin_config,fsr2l
  1325  00259A  C00F  FFDA         	movff	gpio_pin_direction_intialize@_pin_config+1,fsr2h
  1326  00259E  50DF               	movf	223,w,c
  1327  0025A0  0B07               	andlw	7
  1328  0025A2  6E12               	movwf	(??_gpio_pin_direction_intialize+2)^0,c
  1329  0025A4  5012               	movf	(??_gpio_pin_direction_intialize+2)^0,w,c
  1330  0025A6  0D02               	mullw	2
  1331  0025A8  0E94               	movlw	low _tris_registers
  1332  0025AA  24F3               	addwf	243,w,c
  1333  0025AC  6ED9               	movwf	fsr2l,c
  1334  0025AE  0E00               	movlw	high _tris_registers
  1335  0025B0  20F4               	addwfc	prodh,w,c
  1336  0025B2  6EDA               	movwf	fsr2h,c
  1337  0025B4  CFDE F013          	movff	postinc2,??_gpio_pin_direction_intialize+3
  1338  0025B8  CFDD F014          	movff	postdec2,??_gpio_pin_direction_intialize+4
  1339  0025BC  C013  FFD9         	movff	??_gpio_pin_direction_intialize+3,fsr2l
  1340  0025C0  C014  FFDA         	movff	??_gpio_pin_direction_intialize+4,fsr2h
  1341  0025C4  5011               	movf	(??_gpio_pin_direction_intialize+1)^0,w,c
  1342  0025C6  12DF               	iorwf	indf2,f,c
  1343                           
  1344                           ;MCAL_Layer/GPIO/hal_gpio.c: 37:                 break;
  1345  0025C8  EF07  F013         	goto	l5753
  1346  0025CC                     l5751:
  1347  0025CC  C00E  FFD9         	movff	gpio_pin_direction_intialize@_pin_config,fsr2l
  1348  0025D0  C00F  FFDA         	movff	gpio_pin_direction_intialize@_pin_config+1,fsr2h
  1349  0025D4  BCDF               	btfsc	indf2,6,c
  1350  0025D6  EFEF  F012         	goto	u4421
  1351  0025DA  EFF2  F012         	goto	u4420
  1352  0025DE                     u4421:
  1353  0025DE  0E01               	movlw	1
  1354  0025E0  EFF3  F012         	goto	u4430
  1355  0025E4                     u4420:
  1356  0025E4  0E00               	movlw	0
  1357  0025E6                     u4430:
  1358  0025E6  6E10               	movwf	??_gpio_pin_direction_intialize^0,c
  1359  0025E8  6A11               	clrf	(??_gpio_pin_direction_intialize+1)^0,c
  1360                           
  1361                           ; Switch on 2 bytes has been partitioned into a top level switch of size 1, and 1 sub-sw
      +                          itches
  1362                           ; Switch size 1, requested type "simple"
  1363                           ; Number of cases is 1, Range of values is 0 to 0
  1364                           ; switch strategies available:
  1365                           ; Name         Instructions Cycles
  1366                           ; simple_byte            4     3 (average)
  1367                           ;	Chosen strategy is simple_byte
  1368  0025EA  5011               	movf	(??_gpio_pin_direction_intialize+1)^0,w,c
  1369  0025EC  0A00               	xorlw	0	; case 0
  1370  0025EE  B4D8               	btfsc	status,2,c
  1371  0025F0  EFFC  F012         	goto	l8903
  1372  0025F4  EF83  F012         	goto	l5743
  1373  0025F8                     l8903:
  1374                           
  1375                           ; Switch size 1, requested type "simple"
  1376                           ; Number of cases is 2, Range of values is 0 to 1
  1377                           ; switch strategies available:
  1378                           ; Name         Instructions Cycles
  1379                           ; simple_byte            7     4 (average)
  1380                           ;	Chosen strategy is simple_byte
  1381  0025F8  5010               	movf	??_gpio_pin_direction_intialize^0,w,c
  1382  0025FA  0A00               	xorlw	0	; case 0
  1383  0025FC  B4D8               	btfsc	status,2,c
  1384  0025FE  EF87  F012         	goto	l5745
  1385  002602  0A01               	xorlw	1	; case 1
  1386  002604  B4D8               	btfsc	status,2,c
  1387  002606  EFB8  F012         	goto	l5747
  1388  00260A  EF83  F012         	goto	l5743
  1389  00260E                     l5753:
  1390                           
  1391                           ;MCAL_Layer/GPIO/hal_gpio.c: 41:     return ret;
  1392  00260E  5016               	movf	gpio_pin_direction_intialize@ret^0,w,c
  1393  002610  0012               	return		;funcret
  1394  002612                     __end_of_gpio_pin_direction_intialize:
  1395                           	callstack 0
  1396                           
  1397 ;; *************** function _gpio_port_direction_intialize *****************
  1398 ;; Defined at:
  1399 ;;		line 166 in file "MCAL_Layer/GPIO/hal_gpio.c"
  1400 ;; Parameters:    Size  Location     Type
  1401 ;;  port            1    wreg     enum E2951
  1402 ;;  direction       1   13[COMRAM] unsigned char 
  1403 ;; Auto vars:     Size  Location     Type
  1404 ;;  port            1   17[COMRAM] enum E2951
  1405 ;;  ret             1   16[COMRAM] unsigned char 
  1406 ;; Return value:  Size  Location     Type
  1407 ;;                  1    wreg      unsigned char 
  1408 ;; Registers used:
  1409 ;;		wreg, fsr2l, fsr2h, status,2, status,0, prodl, prodh
  1410 ;; Tracked objects:
  1411 ;;		On entry : 0/0
  1412 ;;		On exit  : 0/0
  1413 ;;		Unchanged: 0/0
  1414 ;; Data sizes:     COMRAM   BANK0   BANK1   BANK2   BANK3   BANK4   BANK5   BANK6   BANK7   BANK8   BANK9  BANK10  BANK1
      +1  BANK12  BANK13  BANK14  BANK15
  1415 ;;      Params:         1       0       0       0       0       0       0       0       0       0       0       0       
      +0       0       0       0       0
  1416 ;;      Locals:         2       0       0       0       0       0       0       0       0       0       0       0       
      +0       0       0       0       0
  1417 ;;      Temps:          2       0       0       0       0       0       0       0       0       0       0       0       
      +0       0       0       0       0
  1418 ;;      Totals:         5       0       0       0       0       0       0       0       0       0       0       0       
      +0       0       0       0       0
  1419 ;;Total ram usage:        5 bytes
  1420 ;; Hardware stack levels used: 1
  1421 ;; Hardware stack levels required when called: 4
  1422 ;; This function calls:
  1423 ;;		Nothing
  1424 ;; This function is called by:
  1425 ;;		_application_intialize
  1426 ;; This function uses a non-reentrant model
  1427 ;;
  1428                           
  1429                           	psect	text5
  1430  002DA8                     __ptext5:
  1431                           	callstack 0
  1432  002DA8                     _gpio_port_direction_intialize:
  1433                           	callstack 25
  1434                           
  1435                           ;incstack = 0
  1436                           ;gpio_port_direction_intialize@port stored from wreg
  1437  002DA8  6E12               	movwf	gpio_port_direction_intialize@port^0,c
  1438  002DAA                     
  1439                           ;MCAL_Layer/GPIO/hal_gpio.c: 167:     Std_ReturnType ret = (Std_ReturnType)0x01;
  1440  002DAA  0E01               	movlw	1
  1441  002DAC  6E11               	movwf	gpio_port_direction_intialize@ret^0,c
  1442  002DAE                     
  1443                           ;MCAL_Layer/GPIO/hal_gpio.c: 168:     if(port > 5 -1){
  1444  002DAE  0E04               	movlw	4
  1445  002DB0  6412               	cpfsgt	gpio_port_direction_intialize@port^0,c
  1446  002DB2  EFDD  F016         	goto	u5441
  1447  002DB6  EFDF  F016         	goto	u5440
  1448  002DBA                     u5441:
  1449  002DBA  EFE3  F016         	goto	l6395
  1450  002DBE                     u5440:
  1451  002DBE                     
  1452                           ;MCAL_Layer/GPIO/hal_gpio.c: 169:         ret = (Std_ReturnType)0x00;
  1453  002DBE  0E00               	movlw	0
  1454  002DC0  6E11               	movwf	gpio_port_direction_intialize@ret^0,c
  1455                           
  1456                           ;MCAL_Layer/GPIO/hal_gpio.c: 170:     }
  1457  002DC2  EFF5  F016         	goto	l6397
  1458  002DC6                     l6395:
  1459                           
  1460                           ;MCAL_Layer/GPIO/hal_gpio.c: 172:         *tris_registers[port] = direction;
  1461  002DC6  5012               	movf	gpio_port_direction_intialize@port^0,w,c
  1462  002DC8  0D02               	mullw	2
  1463  002DCA  0E94               	movlw	low _tris_registers
  1464  002DCC  24F3               	addwf	243,w,c
  1465  002DCE  6ED9               	movwf	fsr2l,c
  1466  002DD0  0E00               	movlw	high _tris_registers
  1467  002DD2  20F4               	addwfc	prodh,w,c
  1468  002DD4  6EDA               	movwf	fsr2h,c
  1469  002DD6  CFDE F00F          	movff	postinc2,??_gpio_port_direction_intialize
  1470  002DDA  CFDD F010          	movff	postdec2,??_gpio_port_direction_intialize+1
  1471  002DDE  C00F  FFD9         	movff	??_gpio_port_direction_intialize,fsr2l
  1472  002DE2  C010  FFDA         	movff	??_gpio_port_direction_intialize+1,fsr2h
  1473  002DE6  C00E  FFDF         	movff	gpio_port_direction_intialize@direction,indf2
  1474  002DEA                     l6397:
  1475                           
  1476                           ;MCAL_Layer/GPIO/hal_gpio.c: 174:     return ret;
  1477  002DEA  5011               	movf	gpio_port_direction_intialize@ret^0,w,c
  1478  002DEC  0012               	return		;funcret
  1479  002DEE                     __end_of_gpio_port_direction_intialize:
  1480                           	callstack 0
  1481                           
  1482 ;; *************** function _EUSART_ASYNC_Init *****************
  1483 ;; Defined at:
  1484 ;;		line 21 in file "MCAL_Layer/usart/hal_usart.c"
  1485 ;; Parameters:    Size  Location     Type
  1486 ;;  _eusart         2   10[BANK0 ] PTR const struct .
  1487 ;;		 -> usart_1(18), 
  1488 ;; Auto vars:     Size  Location     Type
  1489 ;;  ret             1   12[BANK0 ] unsigned char 
  1490 ;; Return value:  Size  Location     Type
  1491 ;;                  1    wreg      unsigned char 
  1492 ;; Registers used:
  1493 ;;		wreg, fsr2l, fsr2h, status,2, status,0, cstack
  1494 ;; Tracked objects:
  1495 ;;		On entry : 0/0
  1496 ;;		On exit  : 0/0
  1497 ;;		Unchanged: 0/0
  1498 ;; Data sizes:     COMRAM   BANK0   BANK1   BANK2   BANK3   BANK4   BANK5   BANK6   BANK7   BANK8   BANK9  BANK10  BANK1
      +1  BANK12  BANK13  BANK14  BANK15
  1499 ;;      Params:         0       2       0       0       0       0       0       0       0       0       0       0       
      +0       0       0       0       0
  1500 ;;      Locals:         0       1       0       0       0       0       0       0       0       0       0       0       
      +0       0       0       0       0
  1501 ;;      Temps:          0       0       0       0       0       0       0       0       0       0       0       0       
      +0       0       0       0       0
  1502 ;;      Totals:         0       3       0       0       0       0       0       0       0       0       0       0       
      +0       0       0       0       0
  1503 ;;Total ram usage:        3 bytes
  1504 ;; Hardware stack levels used: 1
  1505 ;; Hardware stack levels required when called: 6
  1506 ;; This function calls:
  1507 ;;		_EUSART_ASYNC_RX_Init
  1508 ;;		_EUSART_ASYNC_TX_Init
  1509 ;;		_EUSART_Baud_Rate_Calculation
  1510 ;; This function is called by:
  1511 ;;		_application_intialize
  1512 ;; This function uses a non-reentrant model
  1513 ;;
  1514                           
  1515                           	psect	text6
  1516  002D0C                     __ptext6:
  1517                           	callstack 0
  1518  002D0C                     _EUSART_ASYNC_Init:
  1519                           	callstack 23
  1520  002D0C                     
  1521                           ;MCAL_Layer/usart/hal_usart.c: 23:     if(((void*)0) == _eusart){
  1522  002D0C  0100               	movlb	0	; () banked
  1523  002D0E  51EB               	movf	EUSART_ASYNC_Init@_eusart& (0+255),w,b
  1524  002D10  11EC               	iorwf	(EUSART_ASYNC_Init@_eusart+1)& (0+255),w,b
  1525  002D12  A4D8               	btfss	status,2,c
  1526  002D14  EF8E  F016         	goto	u8571
  1527  002D18  EF90  F016         	goto	u8570
  1528  002D1C                     u8571:
  1529  002D1C  EF94  F016         	goto	l1601
  1530  002D20                     u8570:
  1531  002D20                     
  1532                           ; BSR set to: 0
  1533                           ;MCAL_Layer/usart/hal_usart.c: 24:         ret = (Std_ReturnType)0x00;
  1534  002D20  0E00               	movlw	0
  1535  002D22  6FED               	movwf	EUSART_ASYNC_Init@ret& (0+255),b
  1536                           
  1537                           ;MCAL_Layer/usart/hal_usart.c: 25:     }
  1538  002D24  EFAD  F016         	goto	l8667
  1539  002D28                     l1601:
  1540                           
  1541                           ; BSR set to: 0
  1542                           ;MCAL_Layer/usart/hal_usart.c: 27:         RCSTAbits.SPEN = 0;
  1543  002D28  9EAB               	bcf	171,7,c	;volatile
  1544                           
  1545                           ;MCAL_Layer/usart/hal_usart.c: 28:         TRISCbits.RC7 = 1;
  1546  002D2A  8E94               	bsf	148,7,c	;volatile
  1547                           
  1548                           ;MCAL_Layer/usart/hal_usart.c: 29:         TRISCbits.RC6 = 1;
  1549  002D2C  8C94               	bsf	148,6,c	;volatile
  1550  002D2E                     
  1551                           ; BSR set to: 0
  1552                           ;MCAL_Layer/usart/hal_usart.c: 30:         EUSART_Baud_Rate_Calculation(_eusart);
  1553  002D2E  C0EB  F045         	movff	EUSART_ASYNC_Init@_eusart,EUSART_Baud_Rate_Calculation@_eusart
  1554  002D32  C0EC  F046         	movff	EUSART_ASYNC_Init@_eusart+1,EUSART_Baud_Rate_Calculation@_eusart+1
  1555  002D36  EC0B  F008         	call	_EUSART_Baud_Rate_Calculation	;wreg free
  1556                           
  1557                           ;MCAL_Layer/usart/hal_usart.c: 31:         EUSART_ASYNC_TX_Init(_eusart);
  1558  002D3A  C0EB  F00E         	movff	EUSART_ASYNC_Init@_eusart,EUSART_ASYNC_TX_Init@_eusart
  1559  002D3E  C0EC  F00F         	movff	EUSART_ASYNC_Init@_eusart+1,EUSART_ASYNC_TX_Init@_eusart+1
  1560  002D42  ECF2  F014         	call	_EUSART_ASYNC_TX_Init	;wreg free
  1561                           
  1562                           ;MCAL_Layer/usart/hal_usart.c: 32:         EUSART_ASYNC_RX_Init(_eusart);
  1563  002D46  C0EB  F00E         	movff	EUSART_ASYNC_Init@_eusart,EUSART_ASYNC_RX_Init@_eusart
  1564  002D4A  C0EC  F00F         	movff	EUSART_ASYNC_Init@_eusart+1,EUSART_ASYNC_RX_Init@_eusart+1
  1565  002D4E  EC22  F014         	call	_EUSART_ASYNC_RX_Init	;wreg free
  1566  002D52                     
  1567                           ;MCAL_Layer/usart/hal_usart.c: 33:         RCSTAbits.SPEN = 1;
  1568  002D52  8EAB               	bsf	171,7,c	;volatile
  1569  002D54                     
  1570                           ;MCAL_Layer/usart/hal_usart.c: 34:         ret = (Std_ReturnType)0x01;
  1571  002D54  0E01               	movlw	1
  1572  002D56  0100               	movlb	0	; () banked
  1573  002D58  6FED               	movwf	EUSART_ASYNC_Init@ret& (0+255),b
  1574  002D5A                     l8667:
  1575                           
  1576                           ; BSR set to: 0
  1577                           ;MCAL_Layer/usart/hal_usart.c: 36:     return ret;
  1578  002D5A  51ED               	movf	EUSART_ASYNC_Init@ret& (0+255),w,b
  1579  002D5C                     
  1580                           ; BSR set to: 0
  1581  002D5C  0012               	return		;funcret
  1582  002D5E                     __end_of_EUSART_ASYNC_Init:
  1583                           	callstack 0
  1584                           
  1585 ;; *************** function _EUSART_Baud_Rate_Calculation *****************
  1586 ;; Defined at:
  1587 ;;		line 136 in file "MCAL_Layer/usart/hal_usart.c"
  1588 ;; Parameters:    Size  Location     Type
  1589 ;;  _eusart         2   68[COMRAM] PTR const struct .
  1590 ;;		 -> usart_1(18), 
  1591 ;; Auto vars:     Size  Location     Type
  1592 ;;  Baud_Rate_Te    4    2[BANK0 ] float 
  1593 ;; Return value:  Size  Location     Type
  1594 ;;                  1    wreg      void 
  1595 ;; Registers used:
  1596 ;;		wreg, fsr2l, fsr2h, status,2, status,0, cstack
  1597 ;; Tracked objects:
  1598 ;;		On entry : 0/0
  1599 ;;		On exit  : 0/0
  1600 ;;		Unchanged: 0/0
  1601 ;; Data sizes:     COMRAM   BANK0   BANK1   BANK2   BANK3   BANK4   BANK5   BANK6   BANK7   BANK8   BANK9  BANK10  BANK1
      +1  BANK12  BANK13  BANK14  BANK15
  1602 ;;      Params:         2       0       0       0       0       0       0       0       0       0       0       0       
      +0       0       0       0       0
  1603 ;;      Locals:         0       8       0       0       0       0       0       0       0       0       0       0       
      +0       0       0       0       0
  1604 ;;      Temps:          0       2       0       0       0       0       0       0       0       0       0       0       
      +0       0       0       0       0
  1605 ;;      Totals:         2      10       0       0       0       0       0       0       0       0       0       0       
      +0       0       0       0       0
  1606 ;;Total ram usage:       12 bytes
  1607 ;; Hardware stack levels used: 1
  1608 ;; Hardware stack levels required when called: 5
  1609 ;; This function calls:
  1610 ;;		___fladd
  1611 ;;		___fldiv
  1612 ;;		___fltol
  1613 ;;		___xxtofl
  1614 ;; This function is called by:
  1615 ;;		_EUSART_ASYNC_Init
  1616 ;; This function uses a non-reentrant model
  1617 ;;
  1618                           
  1619                           	psect	text7
  1620  001016                     __ptext7:
  1621                           	callstack 0
  1622  001016                     _EUSART_Baud_Rate_Calculation:
  1623                           	callstack 23
  1624  001016                     
  1625                           ;MCAL_Layer/usart/hal_usart.c: 137:     float Baud_Rate_Temp = 0;
  1626  001016  0E00               	movlw	0
  1627  001018  0100               	movlb	0	; () banked
  1628  00101A  6FE3               	movwf	EUSART_Baud_Rate_Calculation@Baud_Rate_Temp& (0+255),b
  1629  00101C  0E00               	movlw	0
  1630  00101E  6FE4               	movwf	(EUSART_Baud_Rate_Calculation@Baud_Rate_Temp+1)& (0+255),b
  1631  001020  0E00               	movlw	0
  1632  001022  6FE5               	movwf	(EUSART_Baud_Rate_Calculation@Baud_Rate_Temp+2)& (0+255),b
  1633  001024  0E00               	movlw	0
  1634  001026  6FE6               	movwf	(EUSART_Baud_Rate_Calculation@Baud_Rate_Temp+3)& (0+255),b
  1635                           
  1636                           ;MCAL_Layer/usart/hal_usart.c: 138:     switch(_eusart->baudrate_gen_gonfig){
  1637  001028  EF30  F00A         	goto	l8605
  1638  00102C                     l1653:
  1639                           
  1640                           ; BSR set to: 0
  1641                           ;MCAL_Layer/usart/hal_usart.c: 140:             TXSTAbits.SYNC = 0;
  1642  00102C  98AC               	bcf	172,4,c	;volatile
  1643                           
  1644                           ;MCAL_Layer/usart/hal_usart.c: 141:             TXSTAbits.BRGH = 0;
  1645  00102E  94AC               	bcf	172,2,c	;volatile
  1646                           
  1647                           ;MCAL_Layer/usart/hal_usart.c: 142:             BAUDCONbits.BRG16 = 0;
  1648  001030  96B8               	bcf	184,3,c	;volatile
  1649  001032                     
  1650                           ; BSR set to: 0
  1651                           ;MCAL_Layer/usart/hal_usart.c: 143:             Baud_Rate_Temp = ((8000000UL / (float)_e
      +                          usart->baudrate) / 64) - 1;
  1652  001032  C045  FFD9         	movff	EUSART_Baud_Rate_Calculation@_eusart,fsr2l
  1653  001036  C046  FFDA         	movff	EUSART_Baud_Rate_Calculation@_eusart+1,fsr2h
  1654  00103A  CFDE F00E          	movff	postinc2,___xxtofl@val
  1655  00103E  CFDE F00F          	movff	postinc2,___xxtofl@val+1
  1656  001042  CFDE F010          	movff	postinc2,___xxtofl@val+2
  1657  001046  CFDE F011          	movff	postinc2,___xxtofl@val+3
  1658  00104A  0E00               	movlw	0
  1659  00104C  ECBB  F010         	call	___xxtofl
  1660  001050  C00E  F020         	movff	?___xxtofl,___fldiv@a
  1661  001054  C00F  F021         	movff	?___xxtofl+1,___fldiv@a+1
  1662  001058  C010  F022         	movff	?___xxtofl+2,___fldiv@a+2
  1663  00105C  C011  F023         	movff	?___xxtofl+3,___fldiv@a+3
  1664  001060  0E00               	movlw	0
  1665  001062  6E1C               	movwf	___fldiv@b^0,c
  1666  001064  0E24               	movlw	36
  1667  001066  6E1D               	movwf	(___fldiv@b+1)^0,c
  1668  001068  0EF4               	movlw	244
  1669  00106A  6E1E               	movwf	(___fldiv@b+2)^0,c
  1670  00106C  0E4A               	movlw	74
  1671  00106E  6E1F               	movwf	(___fldiv@b+3)^0,c
  1672  001070  ECEE  F00E         	call	___fldiv	;wreg free
  1673  001074  C01C  F0E7         	movff	?___fldiv,_EUSART_Baud_Rate_Calculation$5451
  1674  001078  C01D  F0E8         	movff	?___fldiv+1,_EUSART_Baud_Rate_Calculation$5451+1
  1675  00107C  C01E  F0E9         	movff	?___fldiv+2,_EUSART_Baud_Rate_Calculation$5451+2
  1676  001080  C01F  F0EA         	movff	?___fldiv+3,_EUSART_Baud_Rate_Calculation$5451+3
  1677  001084                     
  1678                           ;MCAL_Layer/usart/hal_usart.c: 143:             Baud_Rate_Temp = ((8000000UL / (float)_e
      +                          usart->baudrate) / 64) - 1;
  1679  001084  0E00               	movlw	0
  1680  001086  6E20               	movwf	___fldiv@a^0,c
  1681  001088  0E00               	movlw	0
  1682  00108A  6E21               	movwf	(___fldiv@a+1)^0,c
  1683  00108C  0E80               	movlw	128
  1684  00108E  6E22               	movwf	(___fldiv@a+2)^0,c
  1685  001090  0E42               	movlw	66
  1686  001092  6E23               	movwf	(___fldiv@a+3)^0,c
  1687  001094  C0E7  F01C         	movff	_EUSART_Baud_Rate_Calculation$5451,___fldiv@b
  1688  001098  C0E8  F01D         	movff	_EUSART_Baud_Rate_Calculation$5451+1,___fldiv@b+1
  1689  00109C  C0E9  F01E         	movff	_EUSART_Baud_Rate_Calculation$5451+2,___fldiv@b+2
  1690  0010A0  C0EA  F01F         	movff	_EUSART_Baud_Rate_Calculation$5451+3,___fldiv@b+3
  1691  0010A4  ECEE  F00E         	call	___fldiv	;wreg free
  1692  0010A8  C01C  F035         	movff	?___fldiv,___fladd@b
  1693  0010AC  C01D  F036         	movff	?___fldiv+1,___fladd@b+1
  1694  0010B0  C01E  F037         	movff	?___fldiv+2,___fladd@b+2
  1695  0010B4  C01F  F038         	movff	?___fldiv+3,___fladd@b+3
  1696  0010B8  0E00               	movlw	0
  1697  0010BA  6E39               	movwf	___fladd@a^0,c
  1698  0010BC  0E00               	movlw	0
  1699  0010BE  6E3A               	movwf	(___fladd@a+1)^0,c
  1700  0010C0  0E80               	movlw	128
  1701  0010C2  6E3B               	movwf	(___fladd@a+2)^0,c
  1702  0010C4  0EBF               	movlw	191
  1703  0010C6  6E3C               	movwf	(___fladd@a+3)^0,c
  1704  0010C8  EC7B  F00A         	call	___fladd	;wreg free
  1705  0010CC  C035  F0E3         	movff	?___fladd,EUSART_Baud_Rate_Calculation@Baud_Rate_Temp
  1706  0010D0  C036  F0E4         	movff	?___fladd+1,EUSART_Baud_Rate_Calculation@Baud_Rate_Temp+1
  1707  0010D4  C037  F0E5         	movff	?___fladd+2,EUSART_Baud_Rate_Calculation@Baud_Rate_Temp+2
  1708  0010D8  C038  F0E6         	movff	?___fladd+3,EUSART_Baud_Rate_Calculation@Baud_Rate_Temp+3
  1709                           
  1710                           ;MCAL_Layer/usart/hal_usart.c: 144:             break;
  1711  0010DC  EF5B  F00A         	goto	l8607
  1712  0010E0                     l1655:
  1713                           
  1714                           ; BSR set to: 0
  1715                           ;MCAL_Layer/usart/hal_usart.c: 146:             TXSTAbits.SYNC = 0;
  1716  0010E0  98AC               	bcf	172,4,c	;volatile
  1717                           
  1718                           ;MCAL_Layer/usart/hal_usart.c: 147:             TXSTAbits.BRGH = 1;
  1719  0010E2  84AC               	bsf	172,2,c	;volatile
  1720                           
  1721                           ;MCAL_Layer/usart/hal_usart.c: 148:             BAUDCONbits.BRG16 = 0;
  1722  0010E4  96B8               	bcf	184,3,c	;volatile
  1723  0010E6                     
  1724                           ; BSR set to: 0
  1725                           ;MCAL_Layer/usart/hal_usart.c: 149:             Baud_Rate_Temp = ((8000000UL / (float)_e
      +                          usart->baudrate) / 16) - 1;
  1726  0010E6  C045  FFD9         	movff	EUSART_Baud_Rate_Calculation@_eusart,fsr2l
  1727  0010EA  C046  FFDA         	movff	EUSART_Baud_Rate_Calculation@_eusart+1,fsr2h
  1728  0010EE  CFDE F00E          	movff	postinc2,___xxtofl@val
  1729  0010F2  CFDE F00F          	movff	postinc2,___xxtofl@val+1
  1730  0010F6  CFDE F010          	movff	postinc2,___xxtofl@val+2
  1731  0010FA  CFDE F011          	movff	postinc2,___xxtofl@val+3
  1732  0010FE  0E00               	movlw	0
  1733  001100  ECBB  F010         	call	___xxtofl
  1734  001104  C00E  F020         	movff	?___xxtofl,___fldiv@a
  1735  001108  C00F  F021         	movff	?___xxtofl+1,___fldiv@a+1
  1736  00110C  C010  F022         	movff	?___xxtofl+2,___fldiv@a+2
  1737  001110  C011  F023         	movff	?___xxtofl+3,___fldiv@a+3
  1738  001114  0E00               	movlw	0
  1739  001116  6E1C               	movwf	___fldiv@b^0,c
  1740  001118  0E24               	movlw	36
  1741  00111A  6E1D               	movwf	(___fldiv@b+1)^0,c
  1742  00111C  0EF4               	movlw	244
  1743  00111E  6E1E               	movwf	(___fldiv@b+2)^0,c
  1744  001120  0E4A               	movlw	74
  1745  001122  6E1F               	movwf	(___fldiv@b+3)^0,c
  1746  001124  ECEE  F00E         	call	___fldiv	;wreg free
  1747  001128  C01C  F0E7         	movff	?___fldiv,_EUSART_Baud_Rate_Calculation$5451
  1748  00112C  C01D  F0E8         	movff	?___fldiv+1,_EUSART_Baud_Rate_Calculation$5451+1
  1749  001130  C01E  F0E9         	movff	?___fldiv+2,_EUSART_Baud_Rate_Calculation$5451+2
  1750  001134  C01F  F0EA         	movff	?___fldiv+3,_EUSART_Baud_Rate_Calculation$5451+3
  1751  001138                     
  1752                           ;MCAL_Layer/usart/hal_usart.c: 149:             Baud_Rate_Temp = ((8000000UL / (float)_e
      +                          usart->baudrate) / 16) - 1;
  1753  001138  0E00               	movlw	0
  1754  00113A  6E20               	movwf	___fldiv@a^0,c
  1755  00113C  0E00               	movlw	0
  1756  00113E  6E21               	movwf	(___fldiv@a+1)^0,c
  1757  001140  0E80               	movlw	128
  1758  001142  6E22               	movwf	(___fldiv@a+2)^0,c
  1759  001144  0E41               	movlw	65
  1760  001146  6E23               	movwf	(___fldiv@a+3)^0,c
  1761  001148  C0E7  F01C         	movff	_EUSART_Baud_Rate_Calculation$5451,___fldiv@b
  1762  00114C  C0E8  F01D         	movff	_EUSART_Baud_Rate_Calculation$5451+1,___fldiv@b+1
  1763  001150  C0E9  F01E         	movff	_EUSART_Baud_Rate_Calculation$5451+2,___fldiv@b+2
  1764  001154  C0EA  F01F         	movff	_EUSART_Baud_Rate_Calculation$5451+3,___fldiv@b+3
  1765  001158  ECEE  F00E         	call	___fldiv	;wreg free
  1766  00115C  C01C  F035         	movff	?___fldiv,___fladd@b
  1767  001160  C01D  F036         	movff	?___fldiv+1,___fladd@b+1
  1768  001164  C01E  F037         	movff	?___fldiv+2,___fladd@b+2
  1769  001168  C01F  F038         	movff	?___fldiv+3,___fladd@b+3
  1770  00116C  0E00               	movlw	0
  1771  00116E  6E39               	movwf	___fladd@a^0,c
  1772  001170  0E00               	movlw	0
  1773  001172  6E3A               	movwf	(___fladd@a+1)^0,c
  1774  001174  0E80               	movlw	128
  1775  001176  6E3B               	movwf	(___fladd@a+2)^0,c
  1776  001178  0EBF               	movlw	191
  1777  00117A  6E3C               	movwf	(___fladd@a+3)^0,c
  1778  00117C  EC7B  F00A         	call	___fladd	;wreg free
  1779  001180  C035  F0E3         	movff	?___fladd,EUSART_Baud_Rate_Calculation@Baud_Rate_Temp
  1780  001184  C036  F0E4         	movff	?___fladd+1,EUSART_Baud_Rate_Calculation@Baud_Rate_Temp+1
  1781  001188  C037  F0E5         	movff	?___fladd+2,EUSART_Baud_Rate_Calculation@Baud_Rate_Temp+2
  1782  00118C  C038  F0E6         	movff	?___fladd+3,EUSART_Baud_Rate_Calculation@Baud_Rate_Temp+3
  1783                           
  1784                           ;MCAL_Layer/usart/hal_usart.c: 150:             break;
  1785  001190  EF5B  F00A         	goto	l8607
  1786  001194                     l1656:
  1787                           
  1788                           ; BSR set to: 0
  1789                           ;MCAL_Layer/usart/hal_usart.c: 152:             TXSTAbits.SYNC = 0;
  1790  001194  98AC               	bcf	172,4,c	;volatile
  1791                           
  1792                           ;MCAL_Layer/usart/hal_usart.c: 153:             TXSTAbits.BRGH = 0;
  1793  001196  94AC               	bcf	172,2,c	;volatile
  1794                           
  1795                           ;MCAL_Layer/usart/hal_usart.c: 154:             BAUDCONbits.BRG16 = 1;
  1796  001198  86B8               	bsf	184,3,c	;volatile
  1797  00119A                     
  1798                           ; BSR set to: 0
  1799                           ;MCAL_Layer/usart/hal_usart.c: 155:             Baud_Rate_Temp = ((8000000UL / (float)_e
      +                          usart->baudrate) / 16) - 1;
  1800  00119A  C045  FFD9         	movff	EUSART_Baud_Rate_Calculation@_eusart,fsr2l
  1801  00119E  C046  FFDA         	movff	EUSART_Baud_Rate_Calculation@_eusart+1,fsr2h
  1802  0011A2  CFDE F00E          	movff	postinc2,___xxtofl@val
  1803  0011A6  CFDE F00F          	movff	postinc2,___xxtofl@val+1
  1804  0011AA  CFDE F010          	movff	postinc2,___xxtofl@val+2
  1805  0011AE  CFDE F011          	movff	postinc2,___xxtofl@val+3
  1806  0011B2  0E00               	movlw	0
  1807  0011B4  ECBB  F010         	call	___xxtofl
  1808  0011B8  C00E  F020         	movff	?___xxtofl,___fldiv@a
  1809  0011BC  C00F  F021         	movff	?___xxtofl+1,___fldiv@a+1
  1810  0011C0  C010  F022         	movff	?___xxtofl+2,___fldiv@a+2
  1811  0011C4  C011  F023         	movff	?___xxtofl+3,___fldiv@a+3
  1812  0011C8  0E00               	movlw	0
  1813  0011CA  6E1C               	movwf	___fldiv@b^0,c
  1814  0011CC  0E24               	movlw	36
  1815  0011CE  6E1D               	movwf	(___fldiv@b+1)^0,c
  1816  0011D0  0EF4               	movlw	244
  1817  0011D2  6E1E               	movwf	(___fldiv@b+2)^0,c
  1818  0011D4  0E4A               	movlw	74
  1819  0011D6  6E1F               	movwf	(___fldiv@b+3)^0,c
  1820  0011D8  ECEE  F00E         	call	___fldiv	;wreg free
  1821  0011DC  C01C  F0E7         	movff	?___fldiv,_EUSART_Baud_Rate_Calculation$5451
  1822  0011E0  C01D  F0E8         	movff	?___fldiv+1,_EUSART_Baud_Rate_Calculation$5451+1
  1823  0011E4  C01E  F0E9         	movff	?___fldiv+2,_EUSART_Baud_Rate_Calculation$5451+2
  1824  0011E8  C01F  F0EA         	movff	?___fldiv+3,_EUSART_Baud_Rate_Calculation$5451+3
  1825  0011EC                     
  1826                           ;MCAL_Layer/usart/hal_usart.c: 155:             Baud_Rate_Temp = ((8000000UL / (float)_e
      +                          usart->baudrate) / 16) - 1;
  1827  0011EC  0E00               	movlw	0
  1828  0011EE  6E20               	movwf	___fldiv@a^0,c
  1829  0011F0  0E00               	movlw	0
  1830  0011F2  6E21               	movwf	(___fldiv@a+1)^0,c
  1831  0011F4  0E80               	movlw	128
  1832  0011F6  6E22               	movwf	(___fldiv@a+2)^0,c
  1833  0011F8  0E41               	movlw	65
  1834  0011FA  6E23               	movwf	(___fldiv@a+3)^0,c
  1835  0011FC  C0E7  F01C         	movff	_EUSART_Baud_Rate_Calculation$5451,___fldiv@b
  1836  001200  C0E8  F01D         	movff	_EUSART_Baud_Rate_Calculation$5451+1,___fldiv@b+1
  1837  001204  C0E9  F01E         	movff	_EUSART_Baud_Rate_Calculation$5451+2,___fldiv@b+2
  1838  001208  C0EA  F01F         	movff	_EUSART_Baud_Rate_Calculation$5451+3,___fldiv@b+3
  1839  00120C  ECEE  F00E         	call	___fldiv	;wreg free
  1840  001210  C01C  F035         	movff	?___fldiv,___fladd@b
  1841  001214  C01D  F036         	movff	?___fldiv+1,___fladd@b+1
  1842  001218  C01E  F037         	movff	?___fldiv+2,___fladd@b+2
  1843  00121C  C01F  F038         	movff	?___fldiv+3,___fladd@b+3
  1844  001220  0E00               	movlw	0
  1845  001222  6E39               	movwf	___fladd@a^0,c
  1846  001224  0E00               	movlw	0
  1847  001226  6E3A               	movwf	(___fladd@a+1)^0,c
  1848  001228  0E80               	movlw	128
  1849  00122A  6E3B               	movwf	(___fladd@a+2)^0,c
  1850  00122C  0EBF               	movlw	191
  1851  00122E  6E3C               	movwf	(___fladd@a+3)^0,c
  1852  001230  EC7B  F00A         	call	___fladd	;wreg free
  1853  001234  C035  F0E3         	movff	?___fladd,EUSART_Baud_Rate_Calculation@Baud_Rate_Temp
  1854  001238  C036  F0E4         	movff	?___fladd+1,EUSART_Baud_Rate_Calculation@Baud_Rate_Temp+1
  1855  00123C  C037  F0E5         	movff	?___fladd+2,EUSART_Baud_Rate_Calculation@Baud_Rate_Temp+2
  1856  001240  C038  F0E6         	movff	?___fladd+3,EUSART_Baud_Rate_Calculation@Baud_Rate_Temp+3
  1857                           
  1858                           ;MCAL_Layer/usart/hal_usart.c: 156:             break;
  1859  001244  EF5B  F00A         	goto	l8607
  1860  001248                     l1657:
  1861                           
  1862                           ; BSR set to: 0
  1863                           ;MCAL_Layer/usart/hal_usart.c: 158:             TXSTAbits.SYNC = 0;
  1864  001248  98AC               	bcf	172,4,c	;volatile
  1865                           
  1866                           ;MCAL_Layer/usart/hal_usart.c: 159:             TXSTAbits.BRGH = 1;
  1867  00124A  84AC               	bsf	172,2,c	;volatile
  1868                           
  1869                           ;MCAL_Layer/usart/hal_usart.c: 160:             BAUDCONbits.BRG16 = 1;
  1870  00124C  86B8               	bsf	184,3,c	;volatile
  1871  00124E                     
  1872                           ; BSR set to: 0
  1873                           ;MCAL_Layer/usart/hal_usart.c: 161:             Baud_Rate_Temp = ((8000000UL / (float)_e
      +                          usart->baudrate) / 4) - 1;
  1874  00124E  C045  FFD9         	movff	EUSART_Baud_Rate_Calculation@_eusart,fsr2l
  1875  001252  C046  FFDA         	movff	EUSART_Baud_Rate_Calculation@_eusart+1,fsr2h
  1876  001256  CFDE F00E          	movff	postinc2,___xxtofl@val
  1877  00125A  CFDE F00F          	movff	postinc2,___xxtofl@val+1
  1878  00125E  CFDE F010          	movff	postinc2,___xxtofl@val+2
  1879  001262  CFDE F011          	movff	postinc2,___xxtofl@val+3
  1880  001266  0E00               	movlw	0
  1881  001268  ECBB  F010         	call	___xxtofl
  1882  00126C  C00E  F020         	movff	?___xxtofl,___fldiv@a
  1883  001270  C00F  F021         	movff	?___xxtofl+1,___fldiv@a+1
  1884  001274  C010  F022         	movff	?___xxtofl+2,___fldiv@a+2
  1885  001278  C011  F023         	movff	?___xxtofl+3,___fldiv@a+3
  1886  00127C  0E00               	movlw	0
  1887  00127E  6E1C               	movwf	___fldiv@b^0,c
  1888  001280  0E24               	movlw	36
  1889  001282  6E1D               	movwf	(___fldiv@b+1)^0,c
  1890  001284  0EF4               	movlw	244
  1891  001286  6E1E               	movwf	(___fldiv@b+2)^0,c
  1892  001288  0E4A               	movlw	74
  1893  00128A  6E1F               	movwf	(___fldiv@b+3)^0,c
  1894  00128C  ECEE  F00E         	call	___fldiv	;wreg free
  1895  001290  C01C  F0E7         	movff	?___fldiv,_EUSART_Baud_Rate_Calculation$5451
  1896  001294  C01D  F0E8         	movff	?___fldiv+1,_EUSART_Baud_Rate_Calculation$5451+1
  1897  001298  C01E  F0E9         	movff	?___fldiv+2,_EUSART_Baud_Rate_Calculation$5451+2
  1898  00129C  C01F  F0EA         	movff	?___fldiv+3,_EUSART_Baud_Rate_Calculation$5451+3
  1899  0012A0                     
  1900                           ;MCAL_Layer/usart/hal_usart.c: 161:             Baud_Rate_Temp = ((8000000UL / (float)_e
      +                          usart->baudrate) / 4) - 1;
  1901  0012A0  0E00               	movlw	0
  1902  0012A2  6E20               	movwf	___fldiv@a^0,c
  1903  0012A4  0E00               	movlw	0
  1904  0012A6  6E21               	movwf	(___fldiv@a+1)^0,c
  1905  0012A8  0E80               	movlw	128
  1906  0012AA  6E22               	movwf	(___fldiv@a+2)^0,c
  1907  0012AC  0E40               	movlw	64
  1908  0012AE  6E23               	movwf	(___fldiv@a+3)^0,c
  1909  0012B0  C0E7  F01C         	movff	_EUSART_Baud_Rate_Calculation$5451,___fldiv@b
  1910  0012B4  C0E8  F01D         	movff	_EUSART_Baud_Rate_Calculation$5451+1,___fldiv@b+1
  1911  0012B8  C0E9  F01E         	movff	_EUSART_Baud_Rate_Calculation$5451+2,___fldiv@b+2
  1912  0012BC  C0EA  F01F         	movff	_EUSART_Baud_Rate_Calculation$5451+3,___fldiv@b+3
  1913  0012C0  ECEE  F00E         	call	___fldiv	;wreg free
  1914  0012C4  C01C  F035         	movff	?___fldiv,___fladd@b
  1915  0012C8  C01D  F036         	movff	?___fldiv+1,___fladd@b+1
  1916  0012CC  C01E  F037         	movff	?___fldiv+2,___fladd@b+2
  1917  0012D0  C01F  F038         	movff	?___fldiv+3,___fladd@b+3
  1918  0012D4  0E00               	movlw	0
  1919  0012D6  6E39               	movwf	___fladd@a^0,c
  1920  0012D8  0E00               	movlw	0
  1921  0012DA  6E3A               	movwf	(___fladd@a+1)^0,c
  1922  0012DC  0E80               	movlw	128
  1923  0012DE  6E3B               	movwf	(___fladd@a+2)^0,c
  1924  0012E0  0EBF               	movlw	191
  1925  0012E2  6E3C               	movwf	(___fladd@a+3)^0,c
  1926  0012E4  EC7B  F00A         	call	___fladd	;wreg free
  1927  0012E8  C035  F0E3         	movff	?___fladd,EUSART_Baud_Rate_Calculation@Baud_Rate_Temp
  1928  0012EC  C036  F0E4         	movff	?___fladd+1,EUSART_Baud_Rate_Calculation@Baud_Rate_Temp+1
  1929  0012F0  C037  F0E5         	movff	?___fladd+2,EUSART_Baud_Rate_Calculation@Baud_Rate_Temp+2
  1930  0012F4  C038  F0E6         	movff	?___fladd+3,EUSART_Baud_Rate_Calculation@Baud_Rate_Temp+3
  1931                           
  1932                           ;MCAL_Layer/usart/hal_usart.c: 162:             break;
  1933  0012F8  EF5B  F00A         	goto	l8607
  1934  0012FC                     l1658:
  1935                           
  1936                           ; BSR set to: 0
  1937                           ;MCAL_Layer/usart/hal_usart.c: 164:             TXSTAbits.SYNC = 1;
  1938  0012FC  88AC               	bsf	172,4,c	;volatile
  1939                           
  1940                           ;MCAL_Layer/usart/hal_usart.c: 165:             BAUDCONbits.BRG16 = 0;
  1941  0012FE  96B8               	bcf	184,3,c	;volatile
  1942  001300                     
  1943                           ; BSR set to: 0
  1944                           ;MCAL_Layer/usart/hal_usart.c: 166:             Baud_Rate_Temp = ((8000000UL / (float)_e
      +                          usart->baudrate) / 4) - 1;
  1945  001300  C045  FFD9         	movff	EUSART_Baud_Rate_Calculation@_eusart,fsr2l
  1946  001304  C046  FFDA         	movff	EUSART_Baud_Rate_Calculation@_eusart+1,fsr2h
  1947  001308  CFDE F00E          	movff	postinc2,___xxtofl@val
  1948  00130C  CFDE F00F          	movff	postinc2,___xxtofl@val+1
  1949  001310  CFDE F010          	movff	postinc2,___xxtofl@val+2
  1950  001314  CFDE F011          	movff	postinc2,___xxtofl@val+3
  1951  001318  0E00               	movlw	0
  1952  00131A  ECBB  F010         	call	___xxtofl
  1953  00131E  C00E  F020         	movff	?___xxtofl,___fldiv@a
  1954  001322  C00F  F021         	movff	?___xxtofl+1,___fldiv@a+1
  1955  001326  C010  F022         	movff	?___xxtofl+2,___fldiv@a+2
  1956  00132A  C011  F023         	movff	?___xxtofl+3,___fldiv@a+3
  1957  00132E  0E00               	movlw	0
  1958  001330  6E1C               	movwf	___fldiv@b^0,c
  1959  001332  0E24               	movlw	36
  1960  001334  6E1D               	movwf	(___fldiv@b+1)^0,c
  1961  001336  0EF4               	movlw	244
  1962  001338  6E1E               	movwf	(___fldiv@b+2)^0,c
  1963  00133A  0E4A               	movlw	74
  1964  00133C  6E1F               	movwf	(___fldiv@b+3)^0,c
  1965  00133E  ECEE  F00E         	call	___fldiv	;wreg free
  1966  001342  C01C  F0E7         	movff	?___fldiv,_EUSART_Baud_Rate_Calculation$5451
  1967  001346  C01D  F0E8         	movff	?___fldiv+1,_EUSART_Baud_Rate_Calculation$5451+1
  1968  00134A  C01E  F0E9         	movff	?___fldiv+2,_EUSART_Baud_Rate_Calculation$5451+2
  1969  00134E  C01F  F0EA         	movff	?___fldiv+3,_EUSART_Baud_Rate_Calculation$5451+3
  1970  001352                     
  1971                           ;MCAL_Layer/usart/hal_usart.c: 166:             Baud_Rate_Temp = ((8000000UL / (float)_e
      +                          usart->baudrate) / 4) - 1;
  1972  001352  0E00               	movlw	0
  1973  001354  6E20               	movwf	___fldiv@a^0,c
  1974  001356  0E00               	movlw	0
  1975  001358  6E21               	movwf	(___fldiv@a+1)^0,c
  1976  00135A  0E80               	movlw	128
  1977  00135C  6E22               	movwf	(___fldiv@a+2)^0,c
  1978  00135E  0E40               	movlw	64
  1979  001360  6E23               	movwf	(___fldiv@a+3)^0,c
  1980  001362  C0E7  F01C         	movff	_EUSART_Baud_Rate_Calculation$5451,___fldiv@b
  1981  001366  C0E8  F01D         	movff	_EUSART_Baud_Rate_Calculation$5451+1,___fldiv@b+1
  1982  00136A  C0E9  F01E         	movff	_EUSART_Baud_Rate_Calculation$5451+2,___fldiv@b+2
  1983  00136E  C0EA  F01F         	movff	_EUSART_Baud_Rate_Calculation$5451+3,___fldiv@b+3
  1984  001372  ECEE  F00E         	call	___fldiv	;wreg free
  1985  001376  C01C  F035         	movff	?___fldiv,___fladd@b
  1986  00137A  C01D  F036         	movff	?___fldiv+1,___fladd@b+1
  1987  00137E  C01E  F037         	movff	?___fldiv+2,___fladd@b+2
  1988  001382  C01F  F038         	movff	?___fldiv+3,___fladd@b+3
  1989  001386  0E00               	movlw	0
  1990  001388  6E39               	movwf	___fladd@a^0,c
  1991  00138A  0E00               	movlw	0
  1992  00138C  6E3A               	movwf	(___fladd@a+1)^0,c
  1993  00138E  0E80               	movlw	128
  1994  001390  6E3B               	movwf	(___fladd@a+2)^0,c
  1995  001392  0EBF               	movlw	191
  1996  001394  6E3C               	movwf	(___fladd@a+3)^0,c
  1997  001396  EC7B  F00A         	call	___fladd	;wreg free
  1998  00139A  C035  F0E3         	movff	?___fladd,EUSART_Baud_Rate_Calculation@Baud_Rate_Temp
  1999  00139E  C036  F0E4         	movff	?___fladd+1,EUSART_Baud_Rate_Calculation@Baud_Rate_Temp+1
  2000  0013A2  C037  F0E5         	movff	?___fladd+2,EUSART_Baud_Rate_Calculation@Baud_Rate_Temp+2
  2001  0013A6  C038  F0E6         	movff	?___fladd+3,EUSART_Baud_Rate_Calculation@Baud_Rate_Temp+3
  2002                           
  2003                           ;MCAL_Layer/usart/hal_usart.c: 167:             break;
  2004  0013AA  EF5B  F00A         	goto	l8607
  2005  0013AE                     l1659:
  2006                           
  2007                           ; BSR set to: 0
  2008                           ;MCAL_Layer/usart/hal_usart.c: 169:             TXSTAbits.SYNC = 1;
  2009  0013AE  88AC               	bsf	172,4,c	;volatile
  2010                           
  2011                           ;MCAL_Layer/usart/hal_usart.c: 170:             BAUDCONbits.BRG16 = 1;
  2012  0013B0  86B8               	bsf	184,3,c	;volatile
  2013  0013B2                     
  2014                           ; BSR set to: 0
  2015                           ;MCAL_Layer/usart/hal_usart.c: 171:             Baud_Rate_Temp = ((8000000UL / (float)_e
      +                          usart->baudrate) / 4) - 1;
  2016  0013B2  C045  FFD9         	movff	EUSART_Baud_Rate_Calculation@_eusart,fsr2l
  2017  0013B6  C046  FFDA         	movff	EUSART_Baud_Rate_Calculation@_eusart+1,fsr2h
  2018  0013BA  CFDE F00E          	movff	postinc2,___xxtofl@val
  2019  0013BE  CFDE F00F          	movff	postinc2,___xxtofl@val+1
  2020  0013C2  CFDE F010          	movff	postinc2,___xxtofl@val+2
  2021  0013C6  CFDE F011          	movff	postinc2,___xxtofl@val+3
  2022  0013CA  0E00               	movlw	0
  2023  0013CC  ECBB  F010         	call	___xxtofl
  2024  0013D0  C00E  F020         	movff	?___xxtofl,___fldiv@a
  2025  0013D4  C00F  F021         	movff	?___xxtofl+1,___fldiv@a+1
  2026  0013D8  C010  F022         	movff	?___xxtofl+2,___fldiv@a+2
  2027  0013DC  C011  F023         	movff	?___xxtofl+3,___fldiv@a+3
  2028  0013E0  0E00               	movlw	0
  2029  0013E2  6E1C               	movwf	___fldiv@b^0,c
  2030  0013E4  0E24               	movlw	36
  2031  0013E6  6E1D               	movwf	(___fldiv@b+1)^0,c
  2032  0013E8  0EF4               	movlw	244
  2033  0013EA  6E1E               	movwf	(___fldiv@b+2)^0,c
  2034  0013EC  0E4A               	movlw	74
  2035  0013EE  6E1F               	movwf	(___fldiv@b+3)^0,c
  2036  0013F0  ECEE  F00E         	call	___fldiv	;wreg free
  2037  0013F4  C01C  F0E7         	movff	?___fldiv,_EUSART_Baud_Rate_Calculation$5451
  2038  0013F8  C01D  F0E8         	movff	?___fldiv+1,_EUSART_Baud_Rate_Calculation$5451+1
  2039  0013FC  C01E  F0E9         	movff	?___fldiv+2,_EUSART_Baud_Rate_Calculation$5451+2
  2040  001400  C01F  F0EA         	movff	?___fldiv+3,_EUSART_Baud_Rate_Calculation$5451+3
  2041  001404                     
  2042                           ;MCAL_Layer/usart/hal_usart.c: 171:             Baud_Rate_Temp = ((8000000UL / (float)_e
      +                          usart->baudrate) / 4) - 1;
  2043  001404  0E00               	movlw	0
  2044  001406  6E20               	movwf	___fldiv@a^0,c
  2045  001408  0E00               	movlw	0
  2046  00140A  6E21               	movwf	(___fldiv@a+1)^0,c
  2047  00140C  0E80               	movlw	128
  2048  00140E  6E22               	movwf	(___fldiv@a+2)^0,c
  2049  001410  0E40               	movlw	64
  2050  001412  6E23               	movwf	(___fldiv@a+3)^0,c
  2051  001414  C0E7  F01C         	movff	_EUSART_Baud_Rate_Calculation$5451,___fldiv@b
  2052  001418  C0E8  F01D         	movff	_EUSART_Baud_Rate_Calculation$5451+1,___fldiv@b+1
  2053  00141C  C0E9  F01E         	movff	_EUSART_Baud_Rate_Calculation$5451+2,___fldiv@b+2
  2054  001420  C0EA  F01F         	movff	_EUSART_Baud_Rate_Calculation$5451+3,___fldiv@b+3
  2055  001424  ECEE  F00E         	call	___fldiv	;wreg free
  2056  001428  C01C  F035         	movff	?___fldiv,___fladd@b
  2057  00142C  C01D  F036         	movff	?___fldiv+1,___fladd@b+1
  2058  001430  C01E  F037         	movff	?___fldiv+2,___fladd@b+2
  2059  001434  C01F  F038         	movff	?___fldiv+3,___fladd@b+3
  2060  001438  0E00               	movlw	0
  2061  00143A  6E39               	movwf	___fladd@a^0,c
  2062  00143C  0E00               	movlw	0
  2063  00143E  6E3A               	movwf	(___fladd@a+1)^0,c
  2064  001440  0E80               	movlw	128
  2065  001442  6E3B               	movwf	(___fladd@a+2)^0,c
  2066  001444  0EBF               	movlw	191
  2067  001446  6E3C               	movwf	(___fladd@a+3)^0,c
  2068  001448  EC7B  F00A         	call	___fladd	;wreg free
  2069  00144C  C035  F0E3         	movff	?___fladd,EUSART_Baud_Rate_Calculation@Baud_Rate_Temp
  2070  001450  C036  F0E4         	movff	?___fladd+1,EUSART_Baud_Rate_Calculation@Baud_Rate_Temp+1
  2071  001454  C037  F0E5         	movff	?___fladd+2,EUSART_Baud_Rate_Calculation@Baud_Rate_Temp+2
  2072  001458  C038  F0E6         	movff	?___fladd+3,EUSART_Baud_Rate_Calculation@Baud_Rate_Temp+3
  2073                           
  2074                           ;MCAL_Layer/usart/hal_usart.c: 172:             break;
  2075  00145C  EF5B  F00A         	goto	l8607
  2076  001460                     l8605:
  2077                           
  2078                           ; BSR set to: 0
  2079  001460  EE20 F004          	lfsr	2,4
  2080  001464  5045               	movf	EUSART_Baud_Rate_Calculation@_eusart^0,w,c
  2081  001466  26D9               	addwf	fsr2l,f,c
  2082  001468  5046               	movf	(EUSART_Baud_Rate_Calculation@_eusart+1)^0,w,c
  2083  00146A  22DA               	addwfc	fsr2h,f,c
  2084  00146C  50DF               	movf	indf2,w,c
  2085  00146E  6FE1               	movwf	??_EUSART_Baud_Rate_Calculation& (0+255),b
  2086  001470  6BE2               	clrf	(??_EUSART_Baud_Rate_Calculation+1)& (0+255),b
  2087                           
  2088                           ; Switch on 2 bytes has been partitioned into a top level switch of size 1, and 1 sub-sw
      +                          itches
  2089                           ; Switch size 1, requested type "simple"
  2090                           ; Number of cases is 1, Range of values is 0 to 0
  2091                           ; switch strategies available:
  2092                           ; Name         Instructions Cycles
  2093                           ; simple_byte            4     3 (average)
  2094                           ;	Chosen strategy is simple_byte
  2095  001472  51E2               	movf	(??_EUSART_Baud_Rate_Calculation+1)& (0+255),w,b
  2096  001474  0A00               	xorlw	0	; case 0
  2097  001476  B4D8               	btfsc	status,2,c
  2098  001478  EF40  F00A         	goto	l8905
  2099  00147C  EF5B  F00A         	goto	l8607
  2100  001480                     l8905:
  2101                           
  2102                           ; BSR set to: 0
  2103                           ; Switch size 1, requested type "simple"
  2104                           ; Number of cases is 6, Range of values is 0 to 5
  2105                           ; switch strategies available:
  2106                           ; Name         Instructions Cycles
  2107                           ; simple_byte           19    10 (average)
  2108                           ;	Chosen strategy is simple_byte
  2109  001480  51E1               	movf	??_EUSART_Baud_Rate_Calculation& (0+255),w,b
  2110  001482  0A00               	xorlw	0	; case 0
  2111  001484  B4D8               	btfsc	status,2,c
  2112  001486  EF16  F008         	goto	l1653
  2113  00148A  0A01               	xorlw	1	; case 1
  2114  00148C  B4D8               	btfsc	status,2,c
  2115  00148E  EF70  F008         	goto	l1655
  2116  001492  0A03               	xorlw	3	; case 2
  2117  001494  B4D8               	btfsc	status,2,c
  2118  001496  EFCA  F008         	goto	l1656
  2119  00149A  0A01               	xorlw	1	; case 3
  2120  00149C  B4D8               	btfsc	status,2,c
  2121  00149E  EF24  F009         	goto	l1657
  2122  0014A2  0A07               	xorlw	7	; case 4
  2123  0014A4  B4D8               	btfsc	status,2,c
  2124  0014A6  EF7E  F009         	goto	l1658
  2125  0014AA  0A01               	xorlw	1	; case 5
  2126  0014AC  B4D8               	btfsc	status,2,c
  2127  0014AE  EFD7  F009         	goto	l1659
  2128  0014B2  EF5B  F00A         	goto	l8607
  2129  0014B6                     l8607:
  2130                           
  2131                           ;MCAL_Layer/usart/hal_usart.c: 175:     SPBRG = (uint8)((uint32)Baud_Rate_Temp);
  2132  0014B6  C0E3  F00E         	movff	EUSART_Baud_Rate_Calculation@Baud_Rate_Temp,___fltol@f1
  2133  0014BA  C0E4  F00F         	movff	EUSART_Baud_Rate_Calculation@Baud_Rate_Temp+1,___fltol@f1+1
  2134  0014BE  C0E5  F010         	movff	EUSART_Baud_Rate_Calculation@Baud_Rate_Temp+2,___fltol@f1+2
  2135  0014C2  C0E6  F011         	movff	EUSART_Baud_Rate_Calculation@Baud_Rate_Temp+3,___fltol@f1+3
  2136  0014C6  EC9F  F013         	call	___fltol	;wreg free
  2137  0014CA  500E               	movf	?___fltol^0,w,c
  2138  0014CC  6EAF               	movwf	175,c	;volatile
  2139                           
  2140                           ;MCAL_Layer/usart/hal_usart.c: 176:     SPBRGH = (uint8)(((uint32)Baud_Rate_Temp) >> 8);
  2141  0014CE  C0E3  F00E         	movff	EUSART_Baud_Rate_Calculation@Baud_Rate_Temp,___fltol@f1
  2142  0014D2  C0E4  F00F         	movff	EUSART_Baud_Rate_Calculation@Baud_Rate_Temp+1,___fltol@f1+1
  2143  0014D6  C0E5  F010         	movff	EUSART_Baud_Rate_Calculation@Baud_Rate_Temp+2,___fltol@f1+2
  2144  0014DA  C0E6  F011         	movff	EUSART_Baud_Rate_Calculation@Baud_Rate_Temp+3,___fltol@f1+3
  2145  0014DE  EC9F  F013         	call	___fltol	;wreg free
  2146  0014E2  C00F  F00E         	movff	?___fltol+1,?___fltol
  2147  0014E6  C010  F00F         	movff	?___fltol+2,?___fltol+1
  2148  0014EA  C011  F010         	movff	?___fltol+3,?___fltol+2
  2149  0014EE  6A11               	clrf	(?___fltol+3)^0,c
  2150  0014F0  500E               	movf	?___fltol^0,w,c
  2151  0014F2  6EB0               	movwf	176,c	;volatile
  2152  0014F4  0012               	return		;funcret
  2153  0014F6                     __end_of_EUSART_Baud_Rate_Calculation:
  2154                           	callstack 0
  2155                           
  2156 ;; *************** function ___xxtofl *****************
  2157 ;; Defined at:
  2158 ;;		line 10 in file "C:\Program Files\Microchip\xc8\v2.36\pic\sources\c99\common\xxtofl.c"
  2159 ;; Parameters:    Size  Location     Type
  2160 ;;  sign            1    wreg     unsigned char 
  2161 ;;  val             4   13[COMRAM] long 
  2162 ;; Auto vars:     Size  Location     Type
  2163 ;;  sign            1   21[COMRAM] unsigned char 
  2164 ;;  arg             4   23[COMRAM] unsigned long 
  2165 ;;  exp             1   22[COMRAM] unsigned char 
  2166 ;; Return value:  Size  Location     Type
  2167 ;;                  4   13[COMRAM] unsigned char 
  2168 ;; Registers used:
  2169 ;;		wreg, status,2, status,0
  2170 ;; Tracked objects:
  2171 ;;		On entry : 0/0
  2172 ;;		On exit  : 0/0
  2173 ;;		Unchanged: 0/0
  2174 ;; Data sizes:     COMRAM   BANK0   BANK1   BANK2   BANK3   BANK4   BANK5   BANK6   BANK7   BANK8   BANK9  BANK10  BANK1
      +1  BANK12  BANK13  BANK14  BANK15
  2175 ;;      Params:         4       0       0       0       0       0       0       0       0       0       0       0       
      +0       0       0       0       0
  2176 ;;      Locals:         6       0       0       0       0       0       0       0       0       0       0       0       
      +0       0       0       0       0
  2177 ;;      Temps:          4       0       0       0       0       0       0       0       0       0       0       0       
      +0       0       0       0       0
  2178 ;;      Totals:        14       0       0       0       0       0       0       0       0       0       0       0       
      +0       0       0       0       0
  2179 ;;Total ram usage:       14 bytes
  2180 ;; Hardware stack levels used: 1
  2181 ;; Hardware stack levels required when called: 4
  2182 ;; This function calls:
  2183 ;;		Nothing
  2184 ;; This function is called by:
  2185 ;;		_EUSART_Baud_Rate_Calculation
  2186 ;;		_Ultrasonic_Calculate_Distance
  2187 ;;		_CCP_PWM_Set_Duty
  2188 ;;		_CCP_PWM_Mode_Config
  2189 ;;		_I2C_Master_Mode_Clock_Configurations
  2190 ;; This function uses a non-reentrant model
  2191 ;;
  2192                           
  2193                           	psect	text8
  2194  002176                     __ptext8:
  2195                           	callstack 0
  2196  002176                     ___xxtofl:
  2197                           	callstack 23
  2198                           
  2199                           ;incstack = 0
  2200                           ;___xxtofl@sign stored from wreg
  2201  002176  6E16               	movwf	___xxtofl@sign^0,c
  2202  002178  5016               	movf	___xxtofl@sign^0,w,c
  2203  00217A  B4D8               	btfsc	status,2,c
  2204  00217C  EFC2  F010         	goto	u8371
  2205  002180  EFC4  F010         	goto	u8370
  2206  002184                     u8371:
  2207  002184  EFE6  F010         	goto	l2424
  2208  002188                     u8370:
  2209  002188  BE11               	btfsc	(___xxtofl@val+3)^0,7,c
  2210  00218A  EFCB  F010         	goto	u8380
  2211  00218E  EFC9  F010         	goto	u8381
  2212  002192                     u8381:
  2213  002192  EFE6  F010         	goto	l2424
  2214  002196                     u8380:
  2215  002196  C00E  F012         	movff	___xxtofl@val,??___xxtofl
  2216  00219A  C00F  F013         	movff	___xxtofl@val+1,??___xxtofl+1
  2217  00219E  C010  F014         	movff	___xxtofl@val+2,??___xxtofl+2
  2218  0021A2  C011  F015         	movff	___xxtofl@val+3,??___xxtofl+3
  2219  0021A6  1E12               	comf	??___xxtofl^0,f,c
  2220  0021A8  1E13               	comf	(??___xxtofl+1)^0,f,c
  2221  0021AA  1E14               	comf	(??___xxtofl+2)^0,f,c
  2222  0021AC  1E15               	comf	(??___xxtofl+3)^0,f,c
  2223  0021AE  2A12               	incf	??___xxtofl^0,f,c
  2224  0021B0  0E00               	movlw	0
  2225  0021B2  2213               	addwfc	(??___xxtofl+1)^0,f,c
  2226  0021B4  2214               	addwfc	(??___xxtofl+2)^0,f,c
  2227  0021B6  2215               	addwfc	(??___xxtofl+3)^0,f,c
  2228  0021B8  C012  F018         	movff	??___xxtofl,___xxtofl@arg
  2229  0021BC  C013  F019         	movff	??___xxtofl+1,___xxtofl@arg+1
  2230  0021C0  C014  F01A         	movff	??___xxtofl+2,___xxtofl@arg+2
  2231  0021C4  C015  F01B         	movff	??___xxtofl+3,___xxtofl@arg+3
  2232  0021C8  EFEE  F010         	goto	l8539
  2233  0021CC                     l2424:
  2234  0021CC  C00E  F018         	movff	___xxtofl@val,___xxtofl@arg
  2235  0021D0  C00F  F019         	movff	___xxtofl@val+1,___xxtofl@arg+1
  2236  0021D4  C010  F01A         	movff	___xxtofl@val+2,___xxtofl@arg+2
  2237  0021D8  C011  F01B         	movff	___xxtofl@val+3,___xxtofl@arg+3
  2238  0021DC                     l8539:
  2239  0021DC  500E               	movf	___xxtofl@val^0,w,c
  2240  0021DE  100F               	iorwf	(___xxtofl@val+1)^0,w,c
  2241  0021E0  1010               	iorwf	(___xxtofl@val+2)^0,w,c
  2242  0021E2  1011               	iorwf	(___xxtofl@val+3)^0,w,c
  2243  0021E4  A4D8               	btfss	status,2,c
  2244  0021E6  EFF7  F010         	goto	u8391
  2245  0021EA  EFF9  F010         	goto	u8390
  2246  0021EE                     u8391:
  2247  0021EE  EF03  F011         	goto	l8545
  2248  0021F2                     u8390:
  2249  0021F2  0E00               	movlw	0
  2250  0021F4  6E0E               	movwf	?___xxtofl^0,c
  2251  0021F6  0E00               	movlw	0
  2252  0021F8  6E0F               	movwf	(?___xxtofl+1)^0,c
  2253  0021FA  0E00               	movlw	0
  2254  0021FC  6E10               	movwf	(?___xxtofl+2)^0,c
  2255  0021FE  0E00               	movlw	0
  2256  002200  6E11               	movwf	(?___xxtofl+3)^0,c
  2257  002202  EF94  F011         	goto	l2427
  2258  002206                     l8545:
  2259  002206  0E96               	movlw	150
  2260  002208  6E17               	movwf	___xxtofl@exp^0,c
  2261  00220A  EF0D  F011         	goto	l8549
  2262  00220E                     l8547:
  2263  00220E  2A17               	incf	___xxtofl@exp^0,f,c
  2264  002210  90D8               	bcf	status,0,c
  2265  002212  321B               	rrcf	(___xxtofl@arg+3)^0,f,c
  2266  002214  321A               	rrcf	(___xxtofl@arg+2)^0,f,c
  2267  002216  3219               	rrcf	(___xxtofl@arg+1)^0,f,c
  2268  002218  3218               	rrcf	___xxtofl@arg^0,f,c
  2269  00221A                     l8549:
  2270  00221A  0E00               	movlw	0
  2271  00221C  1418               	andwf	___xxtofl@arg^0,w,c
  2272  00221E  6E12               	movwf	??___xxtofl^0,c
  2273  002220  0E00               	movlw	0
  2274  002222  1419               	andwf	(___xxtofl@arg+1)^0,w,c
  2275  002224  6E13               	movwf	(??___xxtofl+1)^0,c
  2276  002226  0E00               	movlw	0
  2277  002228  141A               	andwf	(___xxtofl@arg+2)^0,w,c
  2278  00222A  6E14               	movwf	(??___xxtofl+2)^0,c
  2279  00222C  0EFE               	movlw	254
  2280  00222E  141B               	andwf	(___xxtofl@arg+3)^0,w,c
  2281  002230  6E15               	movwf	(??___xxtofl+3)^0,c
  2282  002232  5012               	movf	??___xxtofl^0,w,c
  2283  002234  1013               	iorwf	(??___xxtofl+1)^0,w,c
  2284  002236  1014               	iorwf	(??___xxtofl+2)^0,w,c
  2285  002238  1015               	iorwf	(??___xxtofl+3)^0,w,c
  2286  00223A  A4D8               	btfss	status,2,c
  2287  00223C  EF22  F011         	goto	u8401
  2288  002240  EF24  F011         	goto	u8400
  2289  002244                     u8401:
  2290  002244  EF07  F011         	goto	l8547
  2291  002248                     u8400:
  2292  002248  EF32  F011         	goto	l2431
  2293  00224C                     l8551:
  2294  00224C  2A17               	incf	___xxtofl@exp^0,f,c
  2295  00224E  0E01               	movlw	1
  2296  002250  2618               	addwf	___xxtofl@arg^0,f,c
  2297  002252  0E00               	movlw	0
  2298  002254  2219               	addwfc	(___xxtofl@arg+1)^0,f,c
  2299  002256  221A               	addwfc	(___xxtofl@arg+2)^0,f,c
  2300  002258  221B               	addwfc	(___xxtofl@arg+3)^0,f,c
  2301  00225A  90D8               	bcf	status,0,c
  2302  00225C  321B               	rrcf	(___xxtofl@arg+3)^0,f,c
  2303  00225E  321A               	rrcf	(___xxtofl@arg+2)^0,f,c
  2304  002260  3219               	rrcf	(___xxtofl@arg+1)^0,f,c
  2305  002262  3218               	rrcf	___xxtofl@arg^0,f,c
  2306  002264                     l2431:
  2307  002264  0E00               	movlw	0
  2308  002266  1418               	andwf	___xxtofl@arg^0,w,c
  2309  002268  6E12               	movwf	??___xxtofl^0,c
  2310  00226A  0E00               	movlw	0
  2311  00226C  1419               	andwf	(___xxtofl@arg+1)^0,w,c
  2312  00226E  6E13               	movwf	(??___xxtofl+1)^0,c
  2313  002270  0E00               	movlw	0
  2314  002272  141A               	andwf	(___xxtofl@arg+2)^0,w,c
  2315  002274  6E14               	movwf	(??___xxtofl+2)^0,c
  2316  002276  0EFF               	movlw	255
  2317  002278  141B               	andwf	(___xxtofl@arg+3)^0,w,c
  2318  00227A  6E15               	movwf	(??___xxtofl+3)^0,c
  2319  00227C  5012               	movf	??___xxtofl^0,w,c
  2320  00227E  1013               	iorwf	(??___xxtofl+1)^0,w,c
  2321  002280  1014               	iorwf	(??___xxtofl+2)^0,w,c
  2322  002282  1015               	iorwf	(??___xxtofl+3)^0,w,c
  2323  002284  A4D8               	btfss	status,2,c
  2324  002286  EF47  F011         	goto	u8411
  2325  00228A  EF49  F011         	goto	u8410
  2326  00228E                     u8411:
  2327  00228E  EF26  F011         	goto	l8551
  2328  002292                     u8410:
  2329  002292  EF51  F011         	goto	l8559
  2330  002296                     l8557:
  2331  002296  0617               	decf	___xxtofl@exp^0,f,c
  2332  002298  90D8               	bcf	status,0,c
  2333  00229A  3618               	rlcf	___xxtofl@arg^0,f,c
  2334  00229C  3619               	rlcf	(___xxtofl@arg+1)^0,f,c
  2335  00229E  361A               	rlcf	(___xxtofl@arg+2)^0,f,c
  2336  0022A0  361B               	rlcf	(___xxtofl@arg+3)^0,f,c
  2337  0022A2                     l8559:
  2338  0022A2  BE1A               	btfsc	(___xxtofl@arg+2)^0,7,c
  2339  0022A4  EF56  F011         	goto	u8421
  2340  0022A8  EF58  F011         	goto	u8420
  2341  0022AC                     u8421:
  2342  0022AC  EF60  F011         	goto	l2438
  2343  0022B0                     u8420:
  2344  0022B0  0E02               	movlw	2
  2345  0022B2  6017               	cpfslt	___xxtofl@exp^0,c
  2346  0022B4  EF5E  F011         	goto	u8431
  2347  0022B8  EF60  F011         	goto	u8430
  2348  0022BC                     u8431:
  2349  0022BC  EF4B  F011         	goto	l8557
  2350  0022C0                     u8430:
  2351  0022C0                     l2438:
  2352  0022C0  B017               	btfsc	___xxtofl@exp^0,0,c
  2353  0022C2  EF65  F011         	goto	u8441
  2354  0022C6  EF67  F011         	goto	u8440
  2355  0022CA                     u8441:
  2356  0022CA  EF68  F011         	goto	l8565
  2357  0022CE                     u8440:
  2358  0022CE  9E1A               	bcf	(___xxtofl@arg+2)^0,7,c
  2359  0022D0                     l8565:
  2360  0022D0  90D8               	bcf	status,0,c
  2361  0022D2  3217               	rrcf	___xxtofl@exp^0,f,c
  2362  0022D4  C017  F012         	movff	___xxtofl@exp,??___xxtofl
  2363  0022D8  6A13               	clrf	(??___xxtofl+1)^0,c
  2364  0022DA  6A14               	clrf	(??___xxtofl+2)^0,c
  2365  0022DC  6A15               	clrf	(??___xxtofl+3)^0,c
  2366  0022DE  C012  F015         	movff	??___xxtofl,??___xxtofl+3
  2367  0022E2  6A14               	clrf	(??___xxtofl+2)^0,c
  2368  0022E4  6A13               	clrf	(??___xxtofl+1)^0,c
  2369  0022E6  6A12               	clrf	??___xxtofl^0,c
  2370  0022E8  5012               	movf	??___xxtofl^0,w,c
  2371  0022EA  1218               	iorwf	___xxtofl@arg^0,f,c
  2372  0022EC  5013               	movf	(??___xxtofl+1)^0,w,c
  2373  0022EE  1219               	iorwf	(___xxtofl@arg+1)^0,f,c
  2374  0022F0  5014               	movf	(??___xxtofl+2)^0,w,c
  2375  0022F2  121A               	iorwf	(___xxtofl@arg+2)^0,f,c
  2376  0022F4  5015               	movf	(??___xxtofl+3)^0,w,c
  2377  0022F6  121B               	iorwf	(___xxtofl@arg+3)^0,f,c
  2378  0022F8  5016               	movf	___xxtofl@sign^0,w,c
  2379  0022FA  B4D8               	btfsc	status,2,c
  2380  0022FC  EF82  F011         	goto	u8451
  2381  002300  EF84  F011         	goto	u8450
  2382  002304                     u8451:
  2383  002304  EF8C  F011         	goto	l8575
  2384  002308                     u8450:
  2385  002308  BE11               	btfsc	(___xxtofl@val+3)^0,7,c
  2386  00230A  EF8B  F011         	goto	u8460
  2387  00230E  EF89  F011         	goto	u8461
  2388  002312                     u8461:
  2389  002312  EF8C  F011         	goto	l8575
  2390  002316                     u8460:
  2391  002316  8E1B               	bsf	(___xxtofl@arg+3)^0,7,c
  2392  002318                     l8575:
  2393  002318  C018  F00E         	movff	___xxtofl@arg,?___xxtofl
  2394  00231C  C019  F00F         	movff	___xxtofl@arg+1,?___xxtofl+1
  2395  002320  C01A  F010         	movff	___xxtofl@arg+2,?___xxtofl+2
  2396  002324  C01B  F011         	movff	___xxtofl@arg+3,?___xxtofl+3
  2397  002328                     l2427:
  2398  002328  0012               	return		;funcret
  2399  00232A                     __end_of___xxtofl:
  2400                           	callstack 0
  2401                           
  2402 ;; *************** function ___fltol *****************
  2403 ;; Defined at:
  2404 ;;		line 43 in file "C:\Program Files\Microchip\xc8\v2.36\pic\sources\c99\common\fltol.c"
  2405 ;; Parameters:    Size  Location     Type
  2406 ;;  f1              4   13[COMRAM] unsigned char 
  2407 ;; Auto vars:     Size  Location     Type
  2408 ;;  exp1            1   22[COMRAM] unsigned char 
  2409 ;;  sign1           1   21[COMRAM] unsigned char 
  2410 ;; Return value:  Size  Location     Type
  2411 ;;                  4   13[COMRAM] long 
  2412 ;; Registers used:
  2413 ;;		wreg, status,2, status,0
  2414 ;; Tracked objects:
  2415 ;;		On entry : 0/0
  2416 ;;		On exit  : 0/0
  2417 ;;		Unchanged: 0/0
  2418 ;; Data sizes:     COMRAM   BANK0   BANK1   BANK2   BANK3   BANK4   BANK5   BANK6   BANK7   BANK8   BANK9  BANK10  BANK1
      +1  BANK12  BANK13  BANK14  BANK15
  2419 ;;      Params:         4       0       0       0       0       0       0       0       0       0       0       0       
      +0       0       0       0       0
  2420 ;;      Locals:         2       0       0       0       0       0       0       0       0       0       0       0       
      +0       0       0       0       0
  2421 ;;      Temps:          4       0       0       0       0       0       0       0       0       0       0       0       
      +0       0       0       0       0
  2422 ;;      Totals:        10       0       0       0       0       0       0       0       0       0       0       0       
      +0       0       0       0       0
  2423 ;;Total ram usage:       10 bytes
  2424 ;; Hardware stack levels used: 1
  2425 ;; Hardware stack levels required when called: 4
  2426 ;; This function calls:
  2427 ;;		Nothing
  2428 ;; This function is called by:
  2429 ;;		_EUSART_Baud_Rate_Calculation
  2430 ;;		_Ultrasonic_Calculate_Distance
  2431 ;;		_CCP_PWM_Set_Duty
  2432 ;;		_CCP_PWM_Mode_Config
  2433 ;;		_I2C_Master_Mode_Clock_Configurations
  2434 ;; This function uses a non-reentrant model
  2435 ;;
  2436                           
  2437                           	psect	text9
  2438  00273E                     __ptext9:
  2439                           	callstack 0
  2440  00273E                     ___fltol:
  2441                           	callstack 23
  2442  00273E  3410               	rlcf	(___fltol@f1+2)^0,w,c
  2443  002740  3411               	rlcf	(___fltol@f1+3)^0,w,c
  2444  002742  6E17               	movwf	___fltol@exp1^0,c
  2445  002744  5017               	movf	___fltol@exp1^0,w,c
  2446  002746  A4D8               	btfss	status,2,c
  2447  002748  EFA8  F013         	goto	u8301
  2448  00274C  EFAA  F013         	goto	u8300
  2449  002750                     u8301:
  2450  002750  EFB4  F013         	goto	l8495
  2451  002754                     u8300:
  2452  002754                     l8491:
  2453  002754  0E00               	movlw	0
  2454  002756  6E0E               	movwf	?___fltol^0,c
  2455  002758  0E00               	movlw	0
  2456  00275A  6E0F               	movwf	(?___fltol+1)^0,c
  2457  00275C  0E00               	movlw	0
  2458  00275E  6E10               	movwf	(?___fltol+2)^0,c
  2459  002760  0E00               	movlw	0
  2460  002762  6E11               	movwf	(?___fltol+3)^0,c
  2461  002764  EF21  F014         	goto	l2066
  2462  002768                     l8495:
  2463  002768  C00E  F012         	movff	___fltol@f1,??___fltol
  2464  00276C  C00F  F013         	movff	___fltol@f1+1,??___fltol+1
  2465  002770  C010  F014         	movff	___fltol@f1+2,??___fltol+2
  2466  002774  C011  F015         	movff	___fltol@f1+3,??___fltol+3
  2467  002778  0E20               	movlw	32
  2468  00277A  EFC4  F013         	goto	u8310
  2469  00277E                     u8315:
  2470  00277E  90D8               	bcf	status,0,c
  2471  002780  3215               	rrcf	(??___fltol+3)^0,f,c
  2472  002782  3214               	rrcf	(??___fltol+2)^0,f,c
  2473  002784  3213               	rrcf	(??___fltol+1)^0,f,c
  2474  002786  3212               	rrcf	??___fltol^0,f,c
  2475  002788                     u8310:
  2476  002788  2EE8               	decfsz	wreg,f,c
  2477  00278A  EFBF  F013         	goto	u8315
  2478  00278E  5012               	movf	??___fltol^0,w,c
  2479  002790  6E16               	movwf	___fltol@sign1^0,c
  2480  002792  8E10               	bsf	(___fltol@f1+2)^0,7,c
  2481  002794  0EFF               	movlw	255
  2482  002796  160E               	andwf	___fltol@f1^0,f,c
  2483  002798  0EFF               	movlw	255
  2484  00279A  160F               	andwf	(___fltol@f1+1)^0,f,c
  2485  00279C  0EFF               	movlw	255
  2486  00279E  1610               	andwf	(___fltol@f1+2)^0,f,c
  2487  0027A0  0E00               	movlw	0
  2488  0027A2  1611               	andwf	(___fltol@f1+3)^0,f,c
  2489  0027A4  0E96               	movlw	150
  2490  0027A6  5E17               	subwf	___fltol@exp1^0,f,c
  2491  0027A8  BE17               	btfsc	___fltol@exp1^0,7,c
  2492  0027AA  EFDB  F013         	goto	u8320
  2493  0027AE  EFD9  F013         	goto	u8321
  2494  0027B2                     u8321:
  2495  0027B2  EFF1  F013         	goto	l8515
  2496  0027B6                     u8320:
  2497  0027B6  5017               	movf	___fltol@exp1^0,w,c
  2498  0027B8  0A80               	xorlw	128
  2499  0027BA  0F97               	addlw	151
  2500  0027BC  B0D8               	btfsc	status,0,c
  2501  0027BE  EFE3  F013         	goto	u8331
  2502  0027C2  EFE5  F013         	goto	u8330
  2503  0027C6                     u8331:
  2504  0027C6  EFE7  F013         	goto	l8511
  2505  0027CA                     u8330:
  2506  0027CA  EFAA  F013         	goto	l8491
  2507  0027CE                     l8511:
  2508  0027CE  90D8               	bcf	status,0,c
  2509  0027D0  3211               	rrcf	(___fltol@f1+3)^0,f,c
  2510  0027D2  3210               	rrcf	(___fltol@f1+2)^0,f,c
  2511  0027D4  320F               	rrcf	(___fltol@f1+1)^0,f,c
  2512  0027D6  320E               	rrcf	___fltol@f1^0,f,c
  2513  0027D8  3E17               	incfsz	___fltol@exp1^0,f,c
  2514  0027DA  EFE7  F013         	goto	l8511
  2515  0027DE  EF09  F014         	goto	l8525
  2516  0027E2                     l8515:
  2517  0027E2  0E1F               	movlw	31
  2518  0027E4  6417               	cpfsgt	___fltol@exp1^0,c
  2519  0027E6  EFF7  F013         	goto	u8341
  2520  0027EA  EFF9  F013         	goto	u8340
  2521  0027EE                     u8341:
  2522  0027EE  EF01  F014         	goto	l8523
  2523  0027F2                     u8340:
  2524  0027F2  EFAA  F013         	goto	l8491
  2525  0027F6                     l8521:
  2526  0027F6  90D8               	bcf	status,0,c
  2527  0027F8  360E               	rlcf	___fltol@f1^0,f,c
  2528  0027FA  360F               	rlcf	(___fltol@f1+1)^0,f,c
  2529  0027FC  3610               	rlcf	(___fltol@f1+2)^0,f,c
  2530  0027FE  3611               	rlcf	(___fltol@f1+3)^0,f,c
  2531  002800  0617               	decf	___fltol@exp1^0,f,c
  2532  002802                     l8523:
  2533  002802  5017               	movf	___fltol@exp1^0,w,c
  2534  002804  A4D8               	btfss	status,2,c
  2535  002806  EF07  F014         	goto	u8351
  2536  00280A  EF09  F014         	goto	u8350
  2537  00280E                     u8351:
  2538  00280E  EFFB  F013         	goto	l8521
  2539  002812                     u8350:
  2540  002812                     l8525:
  2541  002812  5016               	movf	___fltol@sign1^0,w,c
  2542  002814  B4D8               	btfsc	status,2,c
  2543  002816  EF0F  F014         	goto	u8361
  2544  00281A  EF11  F014         	goto	u8360
  2545  00281E                     u8361:
  2546  00281E  EF19  F014         	goto	l8529
  2547  002822                     u8360:
  2548  002822  1E11               	comf	(___fltol@f1+3)^0,f,c
  2549  002824  1E10               	comf	(___fltol@f1+2)^0,f,c
  2550  002826  1E0F               	comf	(___fltol@f1+1)^0,f,c
  2551  002828  6C0E               	negf	___fltol@f1^0,c
  2552  00282A  0E00               	movlw	0
  2553  00282C  220F               	addwfc	(___fltol@f1+1)^0,f,c
  2554  00282E  2210               	addwfc	(___fltol@f1+2)^0,f,c
  2555  002830  2211               	addwfc	(___fltol@f1+3)^0,f,c
  2556  002832                     l8529:
  2557  002832  C00E  F00E         	movff	___fltol@f1,?___fltol
  2558  002836  C00F  F00F         	movff	___fltol@f1+1,?___fltol+1
  2559  00283A  C010  F010         	movff	___fltol@f1+2,?___fltol+2
  2560  00283E  C011  F011         	movff	___fltol@f1+3,?___fltol+3
  2561  002842                     l2066:
  2562  002842  0012               	return		;funcret
  2563  002844                     __end_of___fltol:
  2564                           	callstack 0
  2565                           
  2566 ;; *************** function ___fldiv *****************
  2567 ;; Defined at:
  2568 ;;		line 11 in file "C:\Program Files\Microchip\xc8\v2.36\pic\sources\c99\common\sprcdiv.c"
  2569 ;; Parameters:    Size  Location     Type
  2570 ;;  b               4   27[COMRAM] long 
  2571 ;;  a               4   31[COMRAM] long 
  2572 ;; Auto vars:     Size  Location     Type
  2573 ;;  grs             4   46[COMRAM] unsigned long 
  2574 ;;  rem             4   39[COMRAM] unsigned long 
  2575 ;;  new_exp         2   44[COMRAM] short 
  2576 ;;  aexp            1   51[COMRAM] unsigned char 
  2577 ;;  bexp            1   50[COMRAM] unsigned char 
  2578 ;;  sign            1   43[COMRAM] unsigned char 
  2579 ;; Return value:  Size  Location     Type
  2580 ;;                  4   27[COMRAM] unsigned char 
  2581 ;; Registers used:
  2582 ;;		wreg, status,2, status,0
  2583 ;; Tracked objects:
  2584 ;;		On entry : 0/0
  2585 ;;		On exit  : 0/0
  2586 ;;		Unchanged: 0/0
  2587 ;; Data sizes:     COMRAM   BANK0   BANK1   BANK2   BANK3   BANK4   BANK5   BANK6   BANK7   BANK8   BANK9  BANK10  BANK1
      +1  BANK12  BANK13  BANK14  BANK15
  2588 ;;      Params:         8       0       0       0       0       0       0       0       0       0       0       0       
      +0       0       0       0       0
  2589 ;;      Locals:        13       0       0       0       0       0       0       0       0       0       0       0       
      +0       0       0       0       0
  2590 ;;      Temps:          4       0       0       0       0       0       0       0       0       0       0       0       
      +0       0       0       0       0
  2591 ;;      Totals:        25       0       0       0       0       0       0       0       0       0       0       0       
      +0       0       0       0       0
  2592 ;;Total ram usage:       25 bytes
  2593 ;; Hardware stack levels used: 1
  2594 ;; Hardware stack levels required when called: 4
  2595 ;; This function calls:
  2596 ;;		Nothing
  2597 ;; This function is called by:
  2598 ;;		_EUSART_Baud_Rate_Calculation
  2599 ;;		_Ultrasonic_Calculate_Distance
  2600 ;;		_CCP_PWM_Set_Duty
  2601 ;;		_CCP_PWM_Mode_Config
  2602 ;;		_I2C_Master_Mode_Clock_Configurations
  2603 ;; This function uses a non-reentrant model
  2604 ;;
  2605                           
  2606                           	psect	text10
  2607  001DDC                     __ptext10:
  2608                           	callstack 0
  2609  001DDC                     ___fldiv:
  2610                           	callstack 23
  2611  001DDC  501F               	movf	(___fldiv@b+3)^0,w,c
  2612  001DDE  0B80               	andlw	128
  2613  001DE0  6E2C               	movwf	___fldiv@sign^0,c
  2614  001DE2  501F               	movf	(___fldiv@b+3)^0,w,c
  2615  001DE4  241F               	addwf	(___fldiv@b+3)^0,w,c
  2616  001DE6  6E33               	movwf	___fldiv@bexp^0,c
  2617  001DE8  AE1E               	btfss	(___fldiv@b+2)^0,7,c
  2618  001DEA  EFF9  F00E         	goto	u8071
  2619  001DEE  EFFB  F00E         	goto	u8070
  2620  001DF2                     u8071:
  2621  001DF2  EFFC  F00E         	goto	l8357
  2622  001DF6                     u8070:
  2623  001DF6  8033               	bsf	___fldiv@bexp^0,0,c
  2624  001DF8                     l8357:
  2625  001DF8  5033               	movf	___fldiv@bexp^0,w,c
  2626  001DFA  B4D8               	btfsc	status,2,c
  2627  001DFC  EF02  F00F         	goto	u8081
  2628  001E00  EF04  F00F         	goto	u8080
  2629  001E04                     u8081:
  2630  001E04  EF19  F00F         	goto	l8367
  2631  001E08                     u8080:
  2632  001E08  2833               	incf	___fldiv@bexp^0,w,c
  2633  001E0A  A4D8               	btfss	status,2,c
  2634  001E0C  EF0A  F00F         	goto	u8091
  2635  001E10  EF0C  F00F         	goto	u8090
  2636  001E14                     u8091:
  2637  001E14  EF14  F00F         	goto	l8363
  2638  001E18                     u8090:
  2639  001E18  0E00               	movlw	0
  2640  001E1A  6E1C               	movwf	___fldiv@b^0,c
  2641  001E1C  0E00               	movlw	0
  2642  001E1E  6E1D               	movwf	(___fldiv@b+1)^0,c
  2643  001E20  0E00               	movlw	0
  2644  001E22  6E1E               	movwf	(___fldiv@b+2)^0,c
  2645  001E24  0E00               	movlw	0
  2646  001E26  6E1F               	movwf	(___fldiv@b+3)^0,c
  2647  001E28                     l8363:
  2648  001E28  8E1E               	bsf	(___fldiv@b+2)^0,7,c
  2649  001E2A  0E00               	movlw	0
  2650  001E2C  6E1F               	movwf	(___fldiv@b+3)^0,c
  2651  001E2E  EF21  F00F         	goto	l8369
  2652  001E32                     l8367:
  2653  001E32  0E00               	movlw	0
  2654  001E34  6E1C               	movwf	___fldiv@b^0,c
  2655  001E36  0E00               	movlw	0
  2656  001E38  6E1D               	movwf	(___fldiv@b+1)^0,c
  2657  001E3A  0E00               	movlw	0
  2658  001E3C  6E1E               	movwf	(___fldiv@b+2)^0,c
  2659  001E3E  0E00               	movlw	0
  2660  001E40  6E1F               	movwf	(___fldiv@b+3)^0,c
  2661  001E42                     l8369:
  2662  001E42  5023               	movf	(___fldiv@a+3)^0,w,c
  2663  001E44  0B80               	andlw	128
  2664  001E46  1A2C               	xorwf	___fldiv@sign^0,f,c
  2665  001E48  5023               	movf	(___fldiv@a+3)^0,w,c
  2666  001E4A  2423               	addwf	(___fldiv@a+3)^0,w,c
  2667  001E4C  6E34               	movwf	___fldiv@aexp^0,c
  2668  001E4E  AE22               	btfss	(___fldiv@a+2)^0,7,c
  2669  001E50  EF2C  F00F         	goto	u8101
  2670  001E54  EF2E  F00F         	goto	u8100
  2671  001E58                     u8101:
  2672  001E58  EF2F  F00F         	goto	l8377
  2673  001E5C                     u8100:
  2674  001E5C  8034               	bsf	___fldiv@aexp^0,0,c
  2675  001E5E                     l8377:
  2676  001E5E  5034               	movf	___fldiv@aexp^0,w,c
  2677  001E60  B4D8               	btfsc	status,2,c
  2678  001E62  EF35  F00F         	goto	u8111
  2679  001E66  EF37  F00F         	goto	u8110
  2680  001E6A                     u8111:
  2681  001E6A  EF4C  F00F         	goto	l8387
  2682  001E6E                     u8110:
  2683  001E6E  2834               	incf	___fldiv@aexp^0,w,c
  2684  001E70  A4D8               	btfss	status,2,c
  2685  001E72  EF3D  F00F         	goto	u8121
  2686  001E76  EF3F  F00F         	goto	u8120
  2687  001E7A                     u8121:
  2688  001E7A  EF47  F00F         	goto	l8383
  2689  001E7E                     u8120:
  2690  001E7E  0E00               	movlw	0
  2691  001E80  6E20               	movwf	___fldiv@a^0,c
  2692  001E82  0E00               	movlw	0
  2693  001E84  6E21               	movwf	(___fldiv@a+1)^0,c
  2694  001E86  0E00               	movlw	0
  2695  001E88  6E22               	movwf	(___fldiv@a+2)^0,c
  2696  001E8A  0E00               	movlw	0
  2697  001E8C  6E23               	movwf	(___fldiv@a+3)^0,c
  2698  001E8E                     l8383:
  2699  001E8E  8E22               	bsf	(___fldiv@a+2)^0,7,c
  2700  001E90  0E00               	movlw	0
  2701  001E92  6E23               	movwf	(___fldiv@a+3)^0,c
  2702  001E94  EF54  F00F         	goto	l8389
  2703  001E98                     l8387:
  2704  001E98  0E00               	movlw	0
  2705  001E9A  6E20               	movwf	___fldiv@a^0,c
  2706  001E9C  0E00               	movlw	0
  2707  001E9E  6E21               	movwf	(___fldiv@a+1)^0,c
  2708  001EA0  0E00               	movlw	0
  2709  001EA2  6E22               	movwf	(___fldiv@a+2)^0,c
  2710  001EA4  0E00               	movlw	0
  2711  001EA6  6E23               	movwf	(___fldiv@a+3)^0,c
  2712  001EA8                     l8389:
  2713  001EA8  5020               	movf	___fldiv@a^0,w,c
  2714  001EAA  1021               	iorwf	(___fldiv@a+1)^0,w,c
  2715  001EAC  1022               	iorwf	(___fldiv@a+2)^0,w,c
  2716  001EAE  1023               	iorwf	(___fldiv@a+3)^0,w,c
  2717  001EB0  A4D8               	btfss	status,2,c
  2718  001EB2  EF5D  F00F         	goto	u8131
  2719  001EB6  EF5F  F00F         	goto	u8130
  2720  001EBA                     u8131:
  2721  001EBA  EF77  F00F         	goto	l8401
  2722  001EBE                     u8130:
  2723  001EBE  0E00               	movlw	0
  2724  001EC0  6E1C               	movwf	___fldiv@b^0,c
  2725  001EC2  0E00               	movlw	0
  2726  001EC4  6E1D               	movwf	(___fldiv@b+1)^0,c
  2727  001EC6  0E00               	movlw	0
  2728  001EC8  6E1E               	movwf	(___fldiv@b+2)^0,c
  2729  001ECA  0E00               	movlw	0
  2730  001ECC  6E1F               	movwf	(___fldiv@b+3)^0,c
  2731  001ECE  0E80               	movlw	128
  2732  001ED0  121E               	iorwf	(___fldiv@b+2)^0,f,c
  2733  001ED2  0E7F               	movlw	127
  2734  001ED4  121F               	iorwf	(___fldiv@b+3)^0,f,c
  2735  001ED6                     l8395:
  2736  001ED6  502C               	movf	___fldiv@sign^0,w,c
  2737  001ED8  121F               	iorwf	(___fldiv@b+3)^0,f,c
  2738  001EDA  C01C  F01C         	movff	___fldiv@b,?___fldiv
  2739  001EDE  C01D  F01D         	movff	___fldiv@b+1,?___fldiv+1
  2740  001EE2  C01E  F01E         	movff	___fldiv@b+2,?___fldiv+2
  2741  001EE6  C01F  F01F         	movff	___fldiv@b+3,?___fldiv+3
  2742  001EEA  EFBA  F010         	goto	l2351
  2743  001EEE                     l8401:
  2744  001EEE  5033               	movf	___fldiv@bexp^0,w,c
  2745  001EF0  A4D8               	btfss	status,2,c
  2746  001EF2  EF7D  F00F         	goto	u8141
  2747  001EF6  EF7F  F00F         	goto	u8140
  2748  001EFA                     u8141:
  2749  001EFA  EF89  F00F         	goto	l8409
  2750  001EFE                     u8140:
  2751  001EFE  0E00               	movlw	0
  2752  001F00  6E1C               	movwf	?___fldiv^0,c
  2753  001F02  0E00               	movlw	0
  2754  001F04  6E1D               	movwf	(?___fldiv+1)^0,c
  2755  001F06  0E00               	movlw	0
  2756  001F08  6E1E               	movwf	(?___fldiv+2)^0,c
  2757  001F0A  0E00               	movlw	0
  2758  001F0C  6E1F               	movwf	(?___fldiv+3)^0,c
  2759  001F0E  EFBA  F010         	goto	l2351
  2760  001F12                     l8409:
  2761  001F12  5034               	movf	___fldiv@aexp^0,w,c
  2762  001F14  C033  F024         	movff	___fldiv@bexp,??___fldiv
  2763  001F18  6A25               	clrf	(??___fldiv+1)^0,c
  2764  001F1A  5E24               	subwf	??___fldiv^0,f,c
  2765  001F1C  0E00               	movlw	0
  2766  001F1E  5A25               	subwfb	(??___fldiv+1)^0,f,c
  2767  001F20  0E7F               	movlw	127
  2768  001F22  2424               	addwf	??___fldiv^0,w,c
  2769  001F24  6E2D               	movwf	___fldiv@new_exp^0,c
  2770  001F26  0E00               	movlw	0
  2771  001F28  2025               	addwfc	(??___fldiv+1)^0,w,c
  2772  001F2A  6E2E               	movwf	(___fldiv@new_exp+1)^0,c
  2773  001F2C  C01C  F028         	movff	___fldiv@b,___fldiv@rem
  2774  001F30  C01D  F029         	movff	___fldiv@b+1,___fldiv@rem+1
  2775  001F34  C01E  F02A         	movff	___fldiv@b+2,___fldiv@rem+2
  2776  001F38  C01F  F02B         	movff	___fldiv@b+3,___fldiv@rem+3
  2777  001F3C  0E00               	movlw	0
  2778  001F3E  6E1C               	movwf	___fldiv@b^0,c
  2779  001F40  0E00               	movlw	0
  2780  001F42  6E1D               	movwf	(___fldiv@b+1)^0,c
  2781  001F44  0E00               	movlw	0
  2782  001F46  6E1E               	movwf	(___fldiv@b+2)^0,c
  2783  001F48  0E00               	movlw	0
  2784  001F4A  6E1F               	movwf	(___fldiv@b+3)^0,c
  2785  001F4C  0E00               	movlw	0
  2786  001F4E  6E2F               	movwf	___fldiv@grs^0,c
  2787  001F50  0E00               	movlw	0
  2788  001F52  6E30               	movwf	(___fldiv@grs+1)^0,c
  2789  001F54  0E00               	movlw	0
  2790  001F56  6E31               	movwf	(___fldiv@grs+2)^0,c
  2791  001F58  0E00               	movlw	0
  2792  001F5A  6E32               	movwf	(___fldiv@grs+3)^0,c
  2793  001F5C  0E00               	movlw	0
  2794  001F5E  6E34               	movwf	___fldiv@aexp^0,c
  2795  001F60  EFEA  F00F         	goto	l2353
  2796  001F64                     l8419:
  2797  001F64  5034               	movf	___fldiv@aexp^0,w,c
  2798  001F66  B4D8               	btfsc	status,2,c
  2799  001F68  EFB8  F00F         	goto	u8151
  2800  001F6C  EFBA  F00F         	goto	u8150
  2801  001F70                     u8151:
  2802  001F70  EFD1  F00F         	goto	l8427
  2803  001F74                     u8150:
  2804  001F74  90D8               	bcf	status,0,c
  2805  001F76  3628               	rlcf	___fldiv@rem^0,f,c
  2806  001F78  3629               	rlcf	(___fldiv@rem+1)^0,f,c
  2807  001F7A  362A               	rlcf	(___fldiv@rem+2)^0,f,c
  2808  001F7C  362B               	rlcf	(___fldiv@rem+3)^0,f,c
  2809  001F7E  90D8               	bcf	status,0,c
  2810  001F80  361C               	rlcf	___fldiv@b^0,f,c
  2811  001F82  361D               	rlcf	(___fldiv@b+1)^0,f,c
  2812  001F84  361E               	rlcf	(___fldiv@b+2)^0,f,c
  2813  001F86  361F               	rlcf	(___fldiv@b+3)^0,f,c
  2814  001F88  AE32               	btfss	(___fldiv@grs+3)^0,7,c
  2815  001F8A  EFC9  F00F         	goto	u8161
  2816  001F8E  EFCB  F00F         	goto	u8160
  2817  001F92                     u8161:
  2818  001F92  EFCC  F00F         	goto	l2356
  2819  001F96                     u8160:
  2820  001F96  801C               	bsf	___fldiv@b^0,0,c
  2821  001F98                     l2356:
  2822  001F98  90D8               	bcf	status,0,c
  2823  001F9A  362F               	rlcf	___fldiv@grs^0,f,c
  2824  001F9C  3630               	rlcf	(___fldiv@grs+1)^0,f,c
  2825  001F9E  3631               	rlcf	(___fldiv@grs+2)^0,f,c
  2826  001FA0  3632               	rlcf	(___fldiv@grs+3)^0,f,c
  2827  001FA2                     l8427:
  2828  001FA2  5020               	movf	___fldiv@a^0,w,c
  2829  001FA4  5C28               	subwf	___fldiv@rem^0,w,c
  2830  001FA6  5021               	movf	(___fldiv@a+1)^0,w,c
  2831  001FA8  5829               	subwfb	(___fldiv@rem+1)^0,w,c
  2832  001FAA  5022               	movf	(___fldiv@a+2)^0,w,c
  2833  001FAC  582A               	subwfb	(___fldiv@rem+2)^0,w,c
  2834  001FAE  5023               	movf	(___fldiv@a+3)^0,w,c
  2835  001FB0  582B               	subwfb	(___fldiv@rem+3)^0,w,c
  2836  001FB2  A0D8               	btfss	status,0,c
  2837  001FB4  EFDE  F00F         	goto	u8171
  2838  001FB8  EFE0  F00F         	goto	u8170
  2839  001FBC                     u8171:
  2840  001FBC  EFE9  F00F         	goto	l8433
  2841  001FC0                     u8170:
  2842  001FC0  8C32               	bsf	(___fldiv@grs+3)^0,6,c
  2843  001FC2  5020               	movf	___fldiv@a^0,w,c
  2844  001FC4  5E28               	subwf	___fldiv@rem^0,f,c
  2845  001FC6  5021               	movf	(___fldiv@a+1)^0,w,c
  2846  001FC8  5A29               	subwfb	(___fldiv@rem+1)^0,f,c
  2847  001FCA  5022               	movf	(___fldiv@a+2)^0,w,c
  2848  001FCC  5A2A               	subwfb	(___fldiv@rem+2)^0,f,c
  2849  001FCE  5023               	movf	(___fldiv@a+3)^0,w,c
  2850  001FD0  5A2B               	subwfb	(___fldiv@rem+3)^0,f,c
  2851  001FD2                     l8433:
  2852  001FD2  2A34               	incf	___fldiv@aexp^0,f,c
  2853  001FD4                     l2353:
  2854  001FD4  0E19               	movlw	25
  2855  001FD6  6434               	cpfsgt	___fldiv@aexp^0,c
  2856  001FD8  EFF0  F00F         	goto	u8181
  2857  001FDC  EFF2  F00F         	goto	u8180
  2858  001FE0                     u8181:
  2859  001FE0  EFB2  F00F         	goto	l8419
  2860  001FE4                     u8180:
  2861  001FE4  5028               	movf	___fldiv@rem^0,w,c
  2862  001FE6  1029               	iorwf	(___fldiv@rem+1)^0,w,c
  2863  001FE8  102A               	iorwf	(___fldiv@rem+2)^0,w,c
  2864  001FEA  102B               	iorwf	(___fldiv@rem+3)^0,w,c
  2865  001FEC  B4D8               	btfsc	status,2,c
  2866  001FEE  EFFB  F00F         	goto	u8191
  2867  001FF2  EFFD  F00F         	goto	u8190
  2868  001FF6                     u8191:
  2869  001FF6  EF15  F010         	goto	l8445
  2870  001FFA                     u8190:
  2871  001FFA  802F               	bsf	___fldiv@grs^0,0,c
  2872  001FFC  EF15  F010         	goto	l8445
  2873  002000                     l8439:
  2874  002000  90D8               	bcf	status,0,c
  2875  002002  361C               	rlcf	___fldiv@b^0,f,c
  2876  002004  361D               	rlcf	(___fldiv@b+1)^0,f,c
  2877  002006  361E               	rlcf	(___fldiv@b+2)^0,f,c
  2878  002008  361F               	rlcf	(___fldiv@b+3)^0,f,c
  2879  00200A  AE32               	btfss	(___fldiv@grs+3)^0,7,c
  2880  00200C  EF0A  F010         	goto	u8201
  2881  002010  EF0C  F010         	goto	u8200
  2882  002014                     u8201:
  2883  002014  EF0D  F010         	goto	l2362
  2884  002018                     u8200:
  2885  002018  801C               	bsf	___fldiv@b^0,0,c
  2886  00201A                     l2362:
  2887  00201A  90D8               	bcf	status,0,c
  2888  00201C  362F               	rlcf	___fldiv@grs^0,f,c
  2889  00201E  3630               	rlcf	(___fldiv@grs+1)^0,f,c
  2890  002020  3631               	rlcf	(___fldiv@grs+2)^0,f,c
  2891  002022  3632               	rlcf	(___fldiv@grs+3)^0,f,c
  2892  002024  062D               	decf	___fldiv@new_exp^0,f,c
  2893  002026  A0D8               	btfss	status,0,c
  2894  002028  062E               	decf	(___fldiv@new_exp+1)^0,f,c
  2895  00202A                     l8445:
  2896  00202A  AE1E               	btfss	(___fldiv@b+2)^0,7,c
  2897  00202C  EF1A  F010         	goto	u8211
  2898  002030  EF1C  F010         	goto	u8210
  2899  002034                     u8211:
  2900  002034  EF00  F010         	goto	l8439
  2901  002038                     u8210:
  2902  002038  0E00               	movlw	0
  2903  00203A  6E34               	movwf	___fldiv@aexp^0,c
  2904  00203C  AE32               	btfss	(___fldiv@grs+3)^0,7,c
  2905  00203E  EF23  F010         	goto	u8221
  2906  002042  EF25  F010         	goto	u8220
  2907  002046                     u8221:
  2908  002046  EF49  F010         	goto	l2364
  2909  00204A                     u8220:
  2910  00204A  0EFF               	movlw	255
  2911  00204C  142F               	andwf	___fldiv@grs^0,w,c
  2912  00204E  6E24               	movwf	??___fldiv^0,c
  2913  002050  0EFF               	movlw	255
  2914  002052  1430               	andwf	(___fldiv@grs+1)^0,w,c
  2915  002054  6E25               	movwf	(??___fldiv+1)^0,c
  2916  002056  0EFF               	movlw	255
  2917  002058  1431               	andwf	(___fldiv@grs+2)^0,w,c
  2918  00205A  6E26               	movwf	(??___fldiv+2)^0,c
  2919  00205C  0E7F               	movlw	127
  2920  00205E  1432               	andwf	(___fldiv@grs+3)^0,w,c
  2921  002060  6E27               	movwf	(??___fldiv+3)^0,c
  2922  002062  5024               	movf	??___fldiv^0,w,c
  2923  002064  1025               	iorwf	(??___fldiv+1)^0,w,c
  2924  002066  1026               	iorwf	(??___fldiv+2)^0,w,c
  2925  002068  1027               	iorwf	(??___fldiv+3)^0,w,c
  2926  00206A  B4D8               	btfsc	status,2,c
  2927  00206C  EF3A  F010         	goto	u8231
  2928  002070  EF3C  F010         	goto	u8230
  2929  002074                     u8231:
  2930  002074  EF40  F010         	goto	l2365
  2931  002078                     u8230:
  2932  002078                     l8453:
  2933  002078  0E01               	movlw	1
  2934  00207A  6E34               	movwf	___fldiv@aexp^0,c
  2935  00207C  EF49  F010         	goto	l2364
  2936  002080                     l2365:
  2937  002080  A01C               	btfss	___fldiv@b^0,0,c
  2938  002082  EF45  F010         	goto	u8241
  2939  002086  EF47  F010         	goto	u8240
  2940  00208A                     u8241:
  2941  00208A  EF49  F010         	goto	l2364
  2942  00208E                     u8240:
  2943  00208E  EF3C  F010         	goto	l8453
  2944  002092                     l2364:
  2945  002092  5034               	movf	___fldiv@aexp^0,w,c
  2946  002094  B4D8               	btfsc	status,2,c
  2947  002096  EF4F  F010         	goto	u8251
  2948  00209A  EF51  F010         	goto	u8250
  2949  00209E                     u8251:
  2950  00209E  EF75  F010         	goto	l8465
  2951  0020A2                     u8250:
  2952  0020A2  0E01               	movlw	1
  2953  0020A4  261C               	addwf	___fldiv@b^0,f,c
  2954  0020A6  0E00               	movlw	0
  2955  0020A8  221D               	addwfc	(___fldiv@b+1)^0,f,c
  2956  0020AA  221E               	addwfc	(___fldiv@b+2)^0,f,c
  2957  0020AC  221F               	addwfc	(___fldiv@b+3)^0,f,c
  2958  0020AE  A01F               	btfss	(___fldiv@b+3)^0,0,c
  2959  0020B0  EF5C  F010         	goto	u8261
  2960  0020B4  EF5E  F010         	goto	u8260
  2961  0020B8                     u8261:
  2962  0020B8  EF75  F010         	goto	l8465
  2963  0020BC                     u8260:
  2964  0020BC  C01C  F024         	movff	___fldiv@b,??___fldiv
  2965  0020C0  C01D  F025         	movff	___fldiv@b+1,??___fldiv+1
  2966  0020C4  C01E  F026         	movff	___fldiv@b+2,??___fldiv+2
  2967  0020C8  C01F  F027         	movff	___fldiv@b+3,??___fldiv+3
  2968  0020CC  3427               	rlcf	(??___fldiv+3)^0,w,c
  2969  0020CE  3227               	rrcf	(??___fldiv+3)^0,f,c
  2970  0020D0  3226               	rrcf	(??___fldiv+2)^0,f,c
  2971  0020D2  3225               	rrcf	(??___fldiv+1)^0,f,c
  2972  0020D4  3224               	rrcf	??___fldiv^0,f,c
  2973  0020D6  C024  F01C         	movff	??___fldiv,___fldiv@b
  2974  0020DA  C025  F01D         	movff	??___fldiv+1,___fldiv@b+1
  2975  0020DE  C026  F01E         	movff	??___fldiv+2,___fldiv@b+2
  2976  0020E2  C027  F01F         	movff	??___fldiv+3,___fldiv@b+3
  2977  0020E6  4A2D               	infsnz	___fldiv@new_exp^0,f,c
  2978  0020E8  2A2E               	incf	(___fldiv@new_exp+1)^0,f,c
  2979  0020EA                     l8465:
  2980  0020EA  BE2E               	btfsc	(___fldiv@new_exp+1)^0,7,c
  2981  0020EC  EF80  F010         	goto	u8271
  2982  0020F0  502E               	movf	(___fldiv@new_exp+1)^0,w,c
  2983  0020F2  E108               	bnz	u8270
  2984  0020F4  282D               	incf	___fldiv@new_exp^0,w,c
  2985  0020F6  A0D8               	btfss	status,0,c
  2986  0020F8  EF80  F010         	goto	u8271
  2987  0020FC  EF82  F010         	goto	u8270
  2988  002100                     u8271:
  2989  002100  EF8D  F010         	goto	l8469
  2990  002104                     u8270:
  2991  002104  0E00               	movlw	0
  2992  002106  6E2E               	movwf	(___fldiv@new_exp+1)^0,c
  2993  002108  682D               	setf	___fldiv@new_exp^0,c
  2994  00210A  0E00               	movlw	0
  2995  00210C  6E1C               	movwf	___fldiv@b^0,c
  2996  00210E  0E00               	movlw	0
  2997  002110  6E1D               	movwf	(___fldiv@b+1)^0,c
  2998  002112  0E00               	movlw	0
  2999  002114  6E1E               	movwf	(___fldiv@b+2)^0,c
  3000  002116  0E00               	movlw	0
  3001  002118  6E1F               	movwf	(___fldiv@b+3)^0,c
  3002  00211A                     l8469:
  3003  00211A  BE2E               	btfsc	(___fldiv@new_exp+1)^0,7,c
  3004  00211C  EF9A  F010         	goto	u8280
  3005  002120  502E               	movf	(___fldiv@new_exp+1)^0,w,c
  3006  002122  E106               	bnz	u8281
  3007  002124  042D               	decf	___fldiv@new_exp^0,w,c
  3008  002126  B0D8               	btfsc	status,0,c
  3009  002128  EF98  F010         	goto	u8281
  3010  00212C  EF9A  F010         	goto	u8280
  3011  002130                     u8281:
  3012  002130  EFA8  F010         	goto	l8473
  3013  002134                     u8280:
  3014  002134  0E00               	movlw	0
  3015  002136  6E2E               	movwf	(___fldiv@new_exp+1)^0,c
  3016  002138  0E00               	movlw	0
  3017  00213A  6E2D               	movwf	___fldiv@new_exp^0,c
  3018  00213C  0E00               	movlw	0
  3019  00213E  6E1C               	movwf	___fldiv@b^0,c
  3020  002140  0E00               	movlw	0
  3021  002142  6E1D               	movwf	(___fldiv@b+1)^0,c
  3022  002144  0E00               	movlw	0
  3023  002146  6E1E               	movwf	(___fldiv@b+2)^0,c
  3024  002148  0E00               	movlw	0
  3025  00214A  6E1F               	movwf	(___fldiv@b+3)^0,c
  3026  00214C  0E00               	movlw	0
  3027  00214E  6E2C               	movwf	___fldiv@sign^0,c
  3028  002150                     l8473:
  3029  002150  C02D  F033         	movff	___fldiv@new_exp,___fldiv@bexp
  3030  002154  A033               	btfss	___fldiv@bexp^0,0,c
  3031  002156  EFAF  F010         	goto	u8291
  3032  00215A  EFB1  F010         	goto	u8290
  3033  00215E                     u8291:
  3034  00215E  EFB4  F010         	goto	l8479
  3035  002162                     u8290:
  3036  002162  8E1E               	bsf	(___fldiv@b+2)^0,7,c
  3037  002164  EFB5  F010         	goto	l8481
  3038  002168                     l8479:
  3039  002168  9E1E               	bcf	(___fldiv@b+2)^0,7,c
  3040  00216A                     l8481:
  3041  00216A  90D8               	bcf	status,0,c
  3042  00216C  3033               	rrcf	___fldiv@bexp^0,w,c
  3043  00216E  6E1F               	movwf	(___fldiv@b+3)^0,c
  3044  002170  EF6B  F00F         	goto	l8395
  3045  002174                     l2351:
  3046  002174  0012               	return		;funcret
  3047  002176                     __end_of___fldiv:
  3048                           	callstack 0
  3049                           
  3050 ;; *************** function ___fladd *****************
  3051 ;; Defined at:
  3052 ;;		line 10 in file "C:\Program Files\Microchip\xc8\v2.36\pic\sources\c99\common\sprcadd.c"
  3053 ;; Parameters:    Size  Location     Type
  3054 ;;  b               4   52[COMRAM] unsigned char 
  3055 ;;  a               4   56[COMRAM] unsigned char 
  3056 ;; Auto vars:     Size  Location     Type
  3057 ;;  grs             1   67[COMRAM] unsigned char 
  3058 ;;  bexp            1   66[COMRAM] unsigned char 
  3059 ;;  aexp            1   65[COMRAM] unsigned char 
  3060 ;;  signs           1   64[COMRAM] unsigned char 
  3061 ;; Return value:  Size  Location     Type
  3062 ;;                  4   52[COMRAM] unsigned char 
  3063 ;; Registers used:
  3064 ;;		wreg, status,2, status,0
  3065 ;; Tracked objects:
  3066 ;;		On entry : 0/0
  3067 ;;		On exit  : 0/0
  3068 ;;		Unchanged: 0/0
  3069 ;; Data sizes:     COMRAM   BANK0   BANK1   BANK2   BANK3   BANK4   BANK5   BANK6   BANK7   BANK8   BANK9  BANK10  BANK1
      +1  BANK12  BANK13  BANK14  BANK15
  3070 ;;      Params:         8       0       0       0       0       0       0       0       0       0       0       0       
      +0       0       0       0       0
  3071 ;;      Locals:         4       0       0       0       0       0       0       0       0       0       0       0       
      +0       0       0       0       0
  3072 ;;      Temps:          4       0       0       0       0       0       0       0       0       0       0       0       
      +0       0       0       0       0
  3073 ;;      Totals:        16       0       0       0       0       0       0       0       0       0       0       0       
      +0       0       0       0       0
  3074 ;;Total ram usage:       16 bytes
  3075 ;; Hardware stack levels used: 1
  3076 ;; Hardware stack levels required when called: 4
  3077 ;; This function calls:
  3078 ;;		Nothing
  3079 ;; This function is called by:
  3080 ;;		_EUSART_Baud_Rate_Calculation
  3081 ;;		_CCP_PWM_Set_Duty
  3082 ;;		_CCP_PWM_Mode_Config
  3083 ;;		_I2C_Master_Mode_Clock_Configurations
  3084 ;; This function uses a non-reentrant model
  3085 ;;
  3086                           
  3087                           	psect	text11
  3088  0014F6                     __ptext11:
  3089                           	callstack 0
  3090  0014F6                     ___fladd:
  3091                           	callstack 23
  3092  0014F6  5038               	movf	(___fladd@b+3)^0,w,c
  3093  0014F8  0B80               	andlw	128
  3094  0014FA  6E41               	movwf	___fladd@signs^0,c
  3095  0014FC  5038               	movf	(___fladd@b+3)^0,w,c
  3096  0014FE  2438               	addwf	(___fladd@b+3)^0,w,c
  3097  001500  6E43               	movwf	___fladd@bexp^0,c
  3098  001502  AE37               	btfss	(___fladd@b+2)^0,7,c
  3099  001504  EF86  F00A         	goto	u7681
  3100  001508  EF88  F00A         	goto	u7680
  3101  00150C                     u7681:
  3102  00150C  EF89  F00A         	goto	l8155
  3103  001510                     u7680:
  3104  001510  8043               	bsf	___fladd@bexp^0,0,c
  3105  001512                     l8155:
  3106  001512  5043               	movf	___fladd@bexp^0,w,c
  3107  001514  B4D8               	btfsc	status,2,c
  3108  001516  EF8F  F00A         	goto	u7691
  3109  00151A  EF91  F00A         	goto	u7690
  3110  00151E                     u7691:
  3111  00151E  EFA6  F00A         	goto	l8165
  3112  001522                     u7690:
  3113  001522  2843               	incf	___fladd@bexp^0,w,c
  3114  001524  A4D8               	btfss	status,2,c
  3115  001526  EF97  F00A         	goto	u7701
  3116  00152A  EF99  F00A         	goto	u7700
  3117  00152E                     u7701:
  3118  00152E  EFA1  F00A         	goto	l8161
  3119  001532                     u7700:
  3120  001532  0E00               	movlw	0
  3121  001534  6E35               	movwf	___fladd@b^0,c
  3122  001536  0E00               	movlw	0
  3123  001538  6E36               	movwf	(___fladd@b+1)^0,c
  3124  00153A  0E00               	movlw	0
  3125  00153C  6E37               	movwf	(___fladd@b+2)^0,c
  3126  00153E  0E00               	movlw	0
  3127  001540  6E38               	movwf	(___fladd@b+3)^0,c
  3128  001542                     l8161:
  3129  001542  8E37               	bsf	(___fladd@b+2)^0,7,c
  3130  001544  0E00               	movlw	0
  3131  001546  6E38               	movwf	(___fladd@b+3)^0,c
  3132  001548  EFAE  F00A         	goto	l8167
  3133  00154C                     l8165:
  3134  00154C  0E00               	movlw	0
  3135  00154E  6E35               	movwf	___fladd@b^0,c
  3136  001550  0E00               	movlw	0
  3137  001552  6E36               	movwf	(___fladd@b+1)^0,c
  3138  001554  0E00               	movlw	0
  3139  001556  6E37               	movwf	(___fladd@b+2)^0,c
  3140  001558  0E00               	movlw	0
  3141  00155A  6E38               	movwf	(___fladd@b+3)^0,c
  3142  00155C                     l8167:
  3143  00155C  503C               	movf	(___fladd@a+3)^0,w,c
  3144  00155E  0B80               	andlw	128
  3145  001560  6E42               	movwf	___fladd@aexp^0,c
  3146  001562  5041               	movf	___fladd@signs^0,w,c
  3147  001564  1842               	xorwf	___fladd@aexp^0,w,c
  3148  001566  B4D8               	btfsc	status,2,c
  3149  001568  EFB8  F00A         	goto	u7711
  3150  00156C  EFBA  F00A         	goto	u7710
  3151  001570                     u7711:
  3152  001570  EFBB  F00A         	goto	l8173
  3153  001574                     u7710:
  3154  001574  8C41               	bsf	___fladd@signs^0,6,c
  3155  001576                     l8173:
  3156  001576  503C               	movf	(___fladd@a+3)^0,w,c
  3157  001578  243C               	addwf	(___fladd@a+3)^0,w,c
  3158  00157A  6E42               	movwf	___fladd@aexp^0,c
  3159  00157C  AE3B               	btfss	(___fladd@a+2)^0,7,c
  3160  00157E  EFC3  F00A         	goto	u7721
  3161  001582  EFC5  F00A         	goto	u7720
  3162  001586                     u7721:
  3163  001586  EFC6  F00A         	goto	l8179
  3164  00158A                     u7720:
  3165  00158A  8042               	bsf	___fladd@aexp^0,0,c
  3166  00158C                     l8179:
  3167  00158C  5042               	movf	___fladd@aexp^0,w,c
  3168  00158E  B4D8               	btfsc	status,2,c
  3169  001590  EFCC  F00A         	goto	u7731
  3170  001594  EFCE  F00A         	goto	u7730
  3171  001598                     u7731:
  3172  001598  EFE3  F00A         	goto	l8189
  3173  00159C                     u7730:
  3174  00159C  2842               	incf	___fladd@aexp^0,w,c
  3175  00159E  A4D8               	btfss	status,2,c
  3176  0015A0  EFD4  F00A         	goto	u7741
  3177  0015A4  EFD6  F00A         	goto	u7740
  3178  0015A8                     u7741:
  3179  0015A8  EFDE  F00A         	goto	l8185
  3180  0015AC                     u7740:
  3181  0015AC  0E00               	movlw	0
  3182  0015AE  6E39               	movwf	___fladd@a^0,c
  3183  0015B0  0E00               	movlw	0
  3184  0015B2  6E3A               	movwf	(___fladd@a+1)^0,c
  3185  0015B4  0E00               	movlw	0
  3186  0015B6  6E3B               	movwf	(___fladd@a+2)^0,c
  3187  0015B8  0E00               	movlw	0
  3188  0015BA  6E3C               	movwf	(___fladd@a+3)^0,c
  3189  0015BC                     l8185:
  3190  0015BC  8E3B               	bsf	(___fladd@a+2)^0,7,c
  3191  0015BE  0E00               	movlw	0
  3192  0015C0  6E3C               	movwf	(___fladd@a+3)^0,c
  3193  0015C2  EFEB  F00A         	goto	l8191
  3194  0015C6                     l8189:
  3195  0015C6  0E00               	movlw	0
  3196  0015C8  6E39               	movwf	___fladd@a^0,c
  3197  0015CA  0E00               	movlw	0
  3198  0015CC  6E3A               	movwf	(___fladd@a+1)^0,c
  3199  0015CE  0E00               	movlw	0
  3200  0015D0  6E3B               	movwf	(___fladd@a+2)^0,c
  3201  0015D2  0E00               	movlw	0
  3202  0015D4  6E3C               	movwf	(___fladd@a+3)^0,c
  3203  0015D6                     l8191:
  3204  0015D6  5043               	movf	___fladd@bexp^0,w,c
  3205  0015D8  5C42               	subwf	___fladd@aexp^0,w,c
  3206  0015DA  B0D8               	btfsc	status,0,c
  3207  0015DC  EFF2  F00A         	goto	u7751
  3208  0015E0  EFF4  F00A         	goto	u7750
  3209  0015E4                     u7751:
  3210  0015E4  EF1B  F00B         	goto	l8227
  3211  0015E8                     u7750:
  3212  0015E8  AC41               	btfss	___fladd@signs^0,6,c
  3213  0015EA  EFF9  F00A         	goto	u7761
  3214  0015EE  EFFB  F00A         	goto	u7760
  3215  0015F2                     u7761:
  3216  0015F2  EFFD  F00A         	goto	l8197
  3217  0015F6                     u7760:
  3218  0015F6  0E80               	movlw	128
  3219  0015F8  1A41               	xorwf	___fladd@signs^0,f,c
  3220  0015FA                     l8197:
  3221  0015FA  C043  F044         	movff	___fladd@bexp,___fladd@grs
  3222  0015FE  C042  F043         	movff	___fladd@aexp,___fladd@bexp
  3223  001602  C044  F042         	movff	___fladd@grs,___fladd@aexp
  3224  001606  C035  F044         	movff	___fladd@b,___fladd@grs
  3225  00160A  C039  F035         	movff	___fladd@a,___fladd@b
  3226  00160E  C044  F039         	movff	___fladd@grs,___fladd@a
  3227  001612  C036  F044         	movff	___fladd@b+1,___fladd@grs
  3228  001616  C03A  F036         	movff	___fladd@a+1,___fladd@b+1
  3229  00161A  C044  F03A         	movff	___fladd@grs,___fladd@a+1
  3230  00161E  C037  F044         	movff	___fladd@b+2,___fladd@grs
  3231  001622  C03B  F037         	movff	___fladd@a+2,___fladd@b+2
  3232  001626  C044  F03B         	movff	___fladd@grs,___fladd@a+2
  3233  00162A  C038  F044         	movff	___fladd@b+3,___fladd@grs
  3234  00162E  C03C  F038         	movff	___fladd@a+3,___fladd@b+3
  3235  001632  C044  F03C         	movff	___fladd@grs,___fladd@a+3
  3236  001636                     l8227:
  3237  001636  0E00               	movlw	0
  3238  001638  6E44               	movwf	___fladd@grs^0,c
  3239  00163A  5043               	movf	___fladd@bexp^0,w,c
  3240  00163C  C042  F03D         	movff	___fladd@aexp,??___fladd
  3241  001640  6A3E               	clrf	(??___fladd+1)^0,c
  3242  001642  5E3D               	subwf	??___fladd^0,f,c
  3243  001644  0E00               	movlw	0
  3244  001646  5A3E               	subwfb	(??___fladd+1)^0,f,c
  3245  001648  BE3E               	btfsc	(??___fladd+1)^0,7,c
  3246  00164A  EF30  F00B         	goto	u7771
  3247  00164E  503E               	movf	(??___fladd+1)^0,w,c
  3248  001650  E109               	bnz	u7770
  3249  001652  0E1A               	movlw	26
  3250  001654  5C3D               	subwf	??___fladd^0,w,c
  3251  001656  A0D8               	btfss	status,0,c
  3252  001658  EF30  F00B         	goto	u7771
  3253  00165C  EF32  F00B         	goto	u7770
  3254  001660                     u7771:
  3255  001660  EF69  F00B         	goto	l2298
  3256  001664                     u7770:
  3257  001664  5035               	movf	___fladd@b^0,w,c
  3258  001666  1036               	iorwf	(___fladd@b+1)^0,w,c
  3259  001668  1037               	iorwf	(___fladd@b+2)^0,w,c
  3260  00166A  1038               	iorwf	(___fladd@b+3)^0,w,c
  3261  00166C  A4D8               	btfss	status,2,c
  3262  00166E  EF3B  F00B         	goto	u7781
  3263  001672  EF3E  F00B         	goto	u7780
  3264  001676                     u7781:
  3265  001676  0E01               	movlw	1
  3266  001678  EF3F  F00B         	goto	u7790
  3267  00167C                     u7780:
  3268  00167C  0E00               	movlw	0
  3269  00167E                     u7790:
  3270  00167E  6E44               	movwf	___fladd@grs^0,c
  3271  001680  0E00               	movlw	0
  3272  001682  6E35               	movwf	___fladd@b^0,c
  3273  001684  0E00               	movlw	0
  3274  001686  6E36               	movwf	(___fladd@b+1)^0,c
  3275  001688  0E00               	movlw	0
  3276  00168A  6E37               	movwf	(___fladd@b+2)^0,c
  3277  00168C  0E00               	movlw	0
  3278  00168E  6E38               	movwf	(___fladd@b+3)^0,c
  3279  001690  C042  F043         	movff	___fladd@aexp,___fladd@bexp
  3280  001694  EF72  F00B         	goto	l2297
  3281  001698                     l2299:
  3282  001698  A044               	btfss	___fladd@grs^0,0,c
  3283  00169A  EF51  F00B         	goto	u7801
  3284  00169E  EF53  F00B         	goto	u7800
  3285  0016A2                     u7801:
  3286  0016A2  EF59  F00B         	goto	l8239
  3287  0016A6                     u7800:
  3288  0016A6  90D8               	bcf	status,0,c
  3289  0016A8  3044               	rrcf	___fladd@grs^0,w,c
  3290  0016AA  0901               	iorlw	1
  3291  0016AC  6E44               	movwf	___fladd@grs^0,c
  3292  0016AE  EF5B  F00B         	goto	l8241
  3293  0016B2                     l8239:
  3294  0016B2  90D8               	bcf	status,0,c
  3295  0016B4  3244               	rrcf	___fladd@grs^0,f,c
  3296  0016B6                     l8241:
  3297  0016B6  A035               	btfss	___fladd@b^0,0,c
  3298  0016B8  EF60  F00B         	goto	u7811
  3299  0016BC  EF62  F00B         	goto	u7810
  3300  0016C0                     u7811:
  3301  0016C0  EF63  F00B         	goto	l8245
  3302  0016C4                     u7810:
  3303  0016C4  8E44               	bsf	___fladd@grs^0,7,c
  3304  0016C6                     l8245:
  3305  0016C6  3438               	rlcf	(___fladd@b+3)^0,w,c
  3306  0016C8  3238               	rrcf	(___fladd@b+3)^0,f,c
  3307  0016CA  3237               	rrcf	(___fladd@b+2)^0,f,c
  3308  0016CC  3236               	rrcf	(___fladd@b+1)^0,f,c
  3309  0016CE  3235               	rrcf	___fladd@b^0,f,c
  3310  0016D0  2A43               	incf	___fladd@bexp^0,f,c
  3311  0016D2                     l2298:
  3312  0016D2  5042               	movf	___fladd@aexp^0,w,c
  3313  0016D4  5C43               	subwf	___fladd@bexp^0,w,c
  3314  0016D6  A0D8               	btfss	status,0,c
  3315  0016D8  EF70  F00B         	goto	u7821
  3316  0016DC  EF72  F00B         	goto	u7820
  3317  0016E0                     u7821:
  3318  0016E0  EF4C  F00B         	goto	l2299
  3319  0016E4                     u7820:
  3320  0016E4                     l2297:
  3321  0016E4  BC41               	btfsc	___fladd@signs^0,6,c
  3322  0016E6  EF77  F00B         	goto	u7831
  3323  0016EA  EF79  F00B         	goto	u7830
  3324  0016EE                     u7831:
  3325  0016EE  EFB9  F00B         	goto	l8273
  3326  0016F2                     u7830:
  3327  0016F2  5043               	movf	___fladd@bexp^0,w,c
  3328  0016F4  A4D8               	btfss	status,2,c
  3329  0016F6  EF7F  F00B         	goto	u7841
  3330  0016FA  EF81  F00B         	goto	u7840
  3331  0016FE                     u7841:
  3332  0016FE  EF8B  F00B         	goto	l8255
  3333  001702                     u7840:
  3334  001702  0E00               	movlw	0
  3335  001704  6E35               	movwf	?___fladd^0,c
  3336  001706  0E00               	movlw	0
  3337  001708  6E36               	movwf	(?___fladd+1)^0,c
  3338  00170A  0E00               	movlw	0
  3339  00170C  6E37               	movwf	(?___fladd+2)^0,c
  3340  00170E  0E00               	movlw	0
  3341  001710  6E38               	movwf	(?___fladd+3)^0,c
  3342  001712  EFDA  F00C         	goto	l2306
  3343  001716                     l8255:
  3344  001716  5039               	movf	___fladd@a^0,w,c
  3345  001718  2635               	addwf	___fladd@b^0,f,c
  3346  00171A  503A               	movf	(___fladd@a+1)^0,w,c
  3347  00171C  2236               	addwfc	(___fladd@b+1)^0,f,c
  3348  00171E  503B               	movf	(___fladd@a+2)^0,w,c
  3349  001720  2237               	addwfc	(___fladd@b+2)^0,f,c
  3350  001722  503C               	movf	(___fladd@a+3)^0,w,c
  3351  001724  2238               	addwfc	(___fladd@b+3)^0,f,c
  3352  001726  A038               	btfss	(___fladd@b+3)^0,0,c
  3353  001728  EF98  F00B         	goto	u7851
  3354  00172C  EF9A  F00B         	goto	u7850
  3355  001730                     u7851:
  3356  001730  EF46  F00C         	goto	l8309
  3357  001734                     u7850:
  3358  001734  A044               	btfss	___fladd@grs^0,0,c
  3359  001736  EF9F  F00B         	goto	u7861
  3360  00173A  EFA1  F00B         	goto	u7860
  3361  00173E                     u7861:
  3362  00173E  EFA7  F00B         	goto	l8263
  3363  001742                     u7860:
  3364  001742  90D8               	bcf	status,0,c
  3365  001744  3044               	rrcf	___fladd@grs^0,w,c
  3366  001746  0901               	iorlw	1
  3367  001748  6E44               	movwf	___fladd@grs^0,c
  3368  00174A  EFA9  F00B         	goto	l8265
  3369  00174E                     l8263:
  3370  00174E  90D8               	bcf	status,0,c
  3371  001750  3244               	rrcf	___fladd@grs^0,f,c
  3372  001752                     l8265:
  3373  001752  A035               	btfss	___fladd@b^0,0,c
  3374  001754  EFAE  F00B         	goto	u7871
  3375  001758  EFB0  F00B         	goto	u7870
  3376  00175C                     u7871:
  3377  00175C  EFB1  F00B         	goto	l8269
  3378  001760                     u7870:
  3379  001760  8E44               	bsf	___fladd@grs^0,7,c
  3380  001762                     l8269:
  3381  001762  3438               	rlcf	(___fladd@b+3)^0,w,c
  3382  001764  3238               	rrcf	(___fladd@b+3)^0,f,c
  3383  001766  3237               	rrcf	(___fladd@b+2)^0,f,c
  3384  001768  3236               	rrcf	(___fladd@b+1)^0,f,c
  3385  00176A  3235               	rrcf	___fladd@b^0,f,c
  3386  00176C  2A43               	incf	___fladd@bexp^0,f,c
  3387  00176E  EF46  F00C         	goto	l8309
  3388  001772                     l8273:
  3389  001772  5039               	movf	___fladd@a^0,w,c
  3390  001774  5C35               	subwf	___fladd@b^0,w,c
  3391  001776  503A               	movf	(___fladd@a+1)^0,w,c
  3392  001778  5836               	subwfb	(___fladd@b+1)^0,w,c
  3393  00177A  503B               	movf	(___fladd@a+2)^0,w,c
  3394  00177C  5837               	subwfb	(___fladd@b+2)^0,w,c
  3395  00177E  5038               	movf	(___fladd@b+3)^0,w,c
  3396  001780  0A80               	xorlw	128
  3397  001782  6E3D               	movwf	??___fladd^0,c
  3398  001784  503C               	movf	(___fladd@a+3)^0,w,c
  3399  001786  0A80               	xorlw	128
  3400  001788  583D               	subwfb	??___fladd^0,w,c
  3401  00178A  B0D8               	btfsc	status,0,c
  3402  00178C  EFCA  F00B         	goto	u7881
  3403  001790  EFCC  F00B         	goto	u7880
  3404  001794                     u7881:
  3405  001794  EFF7  F00B         	goto	l8283
  3406  001798                     u7880:
  3407  001798  5035               	movf	___fladd@b^0,w,c
  3408  00179A  5C39               	subwf	___fladd@a^0,w,c
  3409  00179C  6E3D               	movwf	??___fladd^0,c
  3410  00179E  5036               	movf	(___fladd@b+1)^0,w,c
  3411  0017A0  583A               	subwfb	(___fladd@a+1)^0,w,c
  3412  0017A2  6E3E               	movwf	(??___fladd+1)^0,c
  3413  0017A4  5037               	movf	(___fladd@b+2)^0,w,c
  3414  0017A6  583B               	subwfb	(___fladd@a+2)^0,w,c
  3415  0017A8  6E3F               	movwf	(??___fladd+2)^0,c
  3416  0017AA  5038               	movf	(___fladd@b+3)^0,w,c
  3417  0017AC  583C               	subwfb	(___fladd@a+3)^0,w,c
  3418  0017AE  6E40               	movwf	(??___fladd+3)^0,c
  3419  0017B0  0EFF               	movlw	255
  3420  0017B2  243D               	addwf	??___fladd^0,w,c
  3421  0017B4  6E35               	movwf	___fladd@b^0,c
  3422  0017B6  0EFF               	movlw	255
  3423  0017B8  203E               	addwfc	(??___fladd+1)^0,w,c
  3424  0017BA  6E36               	movwf	(___fladd@b+1)^0,c
  3425  0017BC  0EFF               	movlw	255
  3426  0017BE  203F               	addwfc	(??___fladd+2)^0,w,c
  3427  0017C0  6E37               	movwf	(___fladd@b+2)^0,c
  3428  0017C2  0EFF               	movlw	255
  3429  0017C4  2040               	addwfc	(??___fladd+3)^0,w,c
  3430  0017C6  6E38               	movwf	(___fladd@b+3)^0,c
  3431  0017C8  0E80               	movlw	128
  3432  0017CA  1A41               	xorwf	___fladd@signs^0,f,c
  3433  0017CC  6C44               	negf	___fladd@grs^0,c
  3434  0017CE  5044               	movf	___fladd@grs^0,w,c
  3435  0017D0  A4D8               	btfss	status,2,c
  3436  0017D2  EFED  F00B         	goto	u7891
  3437  0017D6  EFEF  F00B         	goto	u7890
  3438  0017DA                     u7891:
  3439  0017DA  EFFF  F00B         	goto	l2314
  3440  0017DE                     u7890:
  3441  0017DE  0E01               	movlw	1
  3442  0017E0  2635               	addwf	___fladd@b^0,f,c
  3443  0017E2  0E00               	movlw	0
  3444  0017E4  2236               	addwfc	(___fladd@b+1)^0,f,c
  3445  0017E6  2237               	addwfc	(___fladd@b+2)^0,f,c
  3446  0017E8  2238               	addwfc	(___fladd@b+3)^0,f,c
  3447  0017EA  EFFF  F00B         	goto	l2314
  3448  0017EE                     l8283:
  3449  0017EE  5039               	movf	___fladd@a^0,w,c
  3450  0017F0  5E35               	subwf	___fladd@b^0,f,c
  3451  0017F2  503A               	movf	(___fladd@a+1)^0,w,c
  3452  0017F4  5A36               	subwfb	(___fladd@b+1)^0,f,c
  3453  0017F6  503B               	movf	(___fladd@a+2)^0,w,c
  3454  0017F8  5A37               	subwfb	(___fladd@b+2)^0,f,c
  3455  0017FA  503C               	movf	(___fladd@a+3)^0,w,c
  3456  0017FC  5A38               	subwfb	(___fladd@b+3)^0,f,c
  3457  0017FE                     l2314:
  3458  0017FE  5035               	movf	___fladd@b^0,w,c
  3459  001800  1036               	iorwf	(___fladd@b+1)^0,w,c
  3460  001802  1037               	iorwf	(___fladd@b+2)^0,w,c
  3461  001804  1038               	iorwf	(___fladd@b+3)^0,w,c
  3462  001806  A4D8               	btfss	status,2,c
  3463  001808  EF08  F00C         	goto	u7901
  3464  00180C  EF0A  F00C         	goto	u7900
  3465  001810                     u7901:
  3466  001810  EF3F  F00C         	goto	l8307
  3467  001814                     u7900:
  3468  001814  5044               	movf	___fladd@grs^0,w,c
  3469  001816  A4D8               	btfss	status,2,c
  3470  001818  EF10  F00C         	goto	u7911
  3471  00181C  EF12  F00C         	goto	u7910
  3472  001820                     u7911:
  3473  001820  EF3F  F00C         	goto	l8307
  3474  001824                     u7910:
  3475  001824  0E00               	movlw	0
  3476  001826  6E35               	movwf	?___fladd^0,c
  3477  001828  0E00               	movlw	0
  3478  00182A  6E36               	movwf	(?___fladd+1)^0,c
  3479  00182C  0E00               	movlw	0
  3480  00182E  6E37               	movwf	(?___fladd+2)^0,c
  3481  001830  0E00               	movlw	0
  3482  001832  6E38               	movwf	(?___fladd+3)^0,c
  3483  001834  EFDA  F00C         	goto	l2306
  3484  001838                     l8291:
  3485  001838  90D8               	bcf	status,0,c
  3486  00183A  3635               	rlcf	___fladd@b^0,f,c
  3487  00183C  3636               	rlcf	(___fladd@b+1)^0,f,c
  3488  00183E  3637               	rlcf	(___fladd@b+2)^0,f,c
  3489  001840  3638               	rlcf	(___fladd@b+3)^0,f,c
  3490  001842  AE44               	btfss	___fladd@grs^0,7,c
  3491  001844  EF26  F00C         	goto	u7921
  3492  001848  EF28  F00C         	goto	u7920
  3493  00184C                     u7921:
  3494  00184C  EF29  F00C         	goto	l8297
  3495  001850                     u7920:
  3496  001850  8035               	bsf	___fladd@b^0,0,c
  3497  001852                     l8297:
  3498  001852  A044               	btfss	___fladd@grs^0,0,c
  3499  001854  EF2E  F00C         	goto	u7931
  3500  001858  EF30  F00C         	goto	u7930
  3501  00185C                     u7931:
  3502  00185C  EF34  F00C         	goto	l8301
  3503  001860                     u7930:
  3504  001860  80D8               	bsf	status,0,c
  3505  001862  3644               	rlcf	___fladd@grs^0,f,c
  3506  001864  EF36  F00C         	goto	l8303
  3507  001868                     l8301:
  3508  001868  90D8               	bcf	status,0,c
  3509  00186A  3644               	rlcf	___fladd@grs^0,f,c
  3510  00186C                     l8303:
  3511  00186C  5043               	movf	___fladd@bexp^0,w,c
  3512  00186E  B4D8               	btfsc	status,2,c
  3513  001870  EF3C  F00C         	goto	u7941
  3514  001874  EF3E  F00C         	goto	u7940
  3515  001878                     u7941:
  3516  001878  EF3F  F00C         	goto	l8307
  3517  00187C                     u7940:
  3518  00187C  0643               	decf	___fladd@bexp^0,f,c
  3519  00187E                     l8307:
  3520  00187E  AE37               	btfss	(___fladd@b+2)^0,7,c
  3521  001880  EF44  F00C         	goto	u7951
  3522  001884  EF46  F00C         	goto	u7950
  3523  001888                     u7951:
  3524  001888  EF1C  F00C         	goto	l8291
  3525  00188C                     u7950:
  3526  00188C                     l8309:
  3527  00188C  0E00               	movlw	0
  3528  00188E  6E42               	movwf	___fladd@aexp^0,c
  3529  001890  AE44               	btfss	___fladd@grs^0,7,c
  3530  001892  EF4D  F00C         	goto	u7961
  3531  001896  EF4F  F00C         	goto	u7960
  3532  00189A                     u7961:
  3533  00189A  EF67  F00C         	goto	l2323
  3534  00189E                     u7960:
  3535  00189E  C044  F03D         	movff	___fladd@grs,??___fladd
  3536  0018A2  0E7F               	movlw	127
  3537  0018A4  163D               	andwf	??___fladd^0,f,c
  3538  0018A6  B4D8               	btfsc	status,2,c
  3539  0018A8  EF58  F00C         	goto	u7971
  3540  0018AC  EF5A  F00C         	goto	u7970
  3541  0018B0                     u7971:
  3542  0018B0  EF5E  F00C         	goto	l2324
  3543  0018B4                     u7970:
  3544  0018B4                     l8315:
  3545  0018B4  0E01               	movlw	1
  3546  0018B6  6E42               	movwf	___fladd@aexp^0,c
  3547  0018B8  EF67  F00C         	goto	l2323
  3548  0018BC                     l2324:
  3549  0018BC  A035               	btfss	___fladd@b^0,0,c
  3550  0018BE  EF63  F00C         	goto	u7981
  3551  0018C2  EF65  F00C         	goto	u7980
  3552  0018C6                     u7981:
  3553  0018C6  EF67  F00C         	goto	l2323
  3554  0018CA                     u7980:
  3555  0018CA  EF5A  F00C         	goto	l8315
  3556  0018CE                     l2323:
  3557  0018CE  5042               	movf	___fladd@aexp^0,w,c
  3558  0018D0  B4D8               	btfsc	status,2,c
  3559  0018D2  EF6D  F00C         	goto	u7991
  3560  0018D6  EF6F  F00C         	goto	u7990
  3561  0018DA                     u7991:
  3562  0018DA  EF9A  F00C         	goto	l8327
  3563  0018DE                     u7990:
  3564  0018DE  0E01               	movlw	1
  3565  0018E0  2635               	addwf	___fladd@b^0,f,c
  3566  0018E2  0E00               	movlw	0
  3567  0018E4  2236               	addwfc	(___fladd@b+1)^0,f,c
  3568  0018E6  2237               	addwfc	(___fladd@b+2)^0,f,c
  3569  0018E8  2238               	addwfc	(___fladd@b+3)^0,f,c
  3570  0018EA  A038               	btfss	(___fladd@b+3)^0,0,c
  3571  0018EC  EF7A  F00C         	goto	u8001
  3572  0018F0  EF7C  F00C         	goto	u8000
  3573  0018F4                     u8001:
  3574  0018F4  EF9A  F00C         	goto	l8327
  3575  0018F8                     u8000:
  3576  0018F8  C035  F03D         	movff	___fladd@b,??___fladd
  3577  0018FC  C036  F03E         	movff	___fladd@b+1,??___fladd+1
  3578  001900  C037  F03F         	movff	___fladd@b+2,??___fladd+2
  3579  001904  C038  F040         	movff	___fladd@b+3,??___fladd+3
  3580  001908  3440               	rlcf	(??___fladd+3)^0,w,c
  3581  00190A  3240               	rrcf	(??___fladd+3)^0,f,c
  3582  00190C  323F               	rrcf	(??___fladd+2)^0,f,c
  3583  00190E  323E               	rrcf	(??___fladd+1)^0,f,c
  3584  001910  323D               	rrcf	??___fladd^0,f,c
  3585  001912  C03D  F035         	movff	??___fladd,___fladd@b
  3586  001916  C03E  F036         	movff	??___fladd+1,___fladd@b+1
  3587  00191A  C03F  F037         	movff	??___fladd+2,___fladd@b+2
  3588  00191E  C040  F038         	movff	??___fladd+3,___fladd@b+3
  3589  001922  2843               	incf	___fladd@bexp^0,w,c
  3590  001924  B4D8               	btfsc	status,2,c
  3591  001926  EF97  F00C         	goto	u8011
  3592  00192A  EF99  F00C         	goto	u8010
  3593  00192E                     u8011:
  3594  00192E  EF9A  F00C         	goto	l8327
  3595  001932                     u8010:
  3596  001932  2A43               	incf	___fladd@bexp^0,f,c
  3597  001934                     l8327:
  3598  001934  2843               	incf	___fladd@bexp^0,w,c
  3599  001936  B4D8               	btfsc	status,2,c
  3600  001938  EFA0  F00C         	goto	u8021
  3601  00193C  EFA2  F00C         	goto	u8020
  3602  001940                     u8021:
  3603  001940  EFAA  F00C         	goto	l8331
  3604  001944                     u8020:
  3605  001944  5043               	movf	___fladd@bexp^0,w,c
  3606  001946  A4D8               	btfss	status,2,c
  3607  001948  EFA8  F00C         	goto	u8031
  3608  00194C  EFAA  F00C         	goto	u8030
  3609  001950                     u8031:
  3610  001950  EFBC  F00C         	goto	l8335
  3611  001954                     u8030:
  3612  001954                     l8331:
  3613  001954  0E00               	movlw	0
  3614  001956  6E35               	movwf	___fladd@b^0,c
  3615  001958  0E00               	movlw	0
  3616  00195A  6E36               	movwf	(___fladd@b+1)^0,c
  3617  00195C  0E00               	movlw	0
  3618  00195E  6E37               	movwf	(___fladd@b+2)^0,c
  3619  001960  0E00               	movlw	0
  3620  001962  6E38               	movwf	(___fladd@b+3)^0,c
  3621  001964  5043               	movf	___fladd@bexp^0,w,c
  3622  001966  A4D8               	btfss	status,2,c
  3623  001968  EFB8  F00C         	goto	u8041
  3624  00196C  EFBA  F00C         	goto	u8040
  3625  001970                     u8041:
  3626  001970  EFBC  F00C         	goto	l8335
  3627  001974                     u8040:
  3628  001974  0E00               	movlw	0
  3629  001976  6E41               	movwf	___fladd@signs^0,c
  3630  001978                     l8335:
  3631  001978  A043               	btfss	___fladd@bexp^0,0,c
  3632  00197A  EFC1  F00C         	goto	u8051
  3633  00197E  EFC3  F00C         	goto	u8050
  3634  001982                     u8051:
  3635  001982  EFC6  F00C         	goto	l8339
  3636  001986                     u8050:
  3637  001986  8E37               	bsf	(___fladd@b+2)^0,7,c
  3638  001988  EFC7  F00C         	goto	l8341
  3639  00198C                     l8339:
  3640  00198C  9E37               	bcf	(___fladd@b+2)^0,7,c
  3641  00198E                     l8341:
  3642  00198E  90D8               	bcf	status,0,c
  3643  001990  3043               	rrcf	___fladd@bexp^0,w,c
  3644  001992  6E38               	movwf	(___fladd@b+3)^0,c
  3645  001994  AE41               	btfss	___fladd@signs^0,7,c
  3646  001996  EFCF  F00C         	goto	u8061
  3647  00199A  EFD1  F00C         	goto	u8060
  3648  00199E                     u8061:
  3649  00199E  EFD2  F00C         	goto	l8347
  3650  0019A2                     u8060:
  3651  0019A2  8E38               	bsf	(___fladd@b+3)^0,7,c
  3652  0019A4                     l8347:
  3653  0019A4  C035  F035         	movff	___fladd@b,?___fladd
  3654  0019A8  C036  F036         	movff	___fladd@b+1,?___fladd+1
  3655  0019AC  C037  F037         	movff	___fladd@b+2,?___fladd+2
  3656  0019B0  C038  F038         	movff	___fladd@b+3,?___fladd+3
  3657  0019B4                     l2306:
  3658  0019B4  0012               	return		;funcret
  3659  0019B6                     __end_of___fladd:
  3660                           	callstack 0
  3661                           
  3662 ;; *************** function _EUSART_ASYNC_TX_Init *****************
  3663 ;; Defined at:
  3664 ;;		line 179 in file "MCAL_Layer/usart/hal_usart.c"
  3665 ;; Parameters:    Size  Location     Type
  3666 ;;  _eusart         2   13[COMRAM] PTR const struct .
  3667 ;;		 -> usart_1(18), 
  3668 ;; Auto vars:     Size  Location     Type
  3669 ;;		None
  3670 ;; Return value:  Size  Location     Type
  3671 ;;                  1    wreg      void 
  3672 ;; Registers used:
  3673 ;;		wreg, fsr2l, fsr2h, status,2, status,0
  3674 ;; Tracked objects:
  3675 ;;		On entry : 0/0
  3676 ;;		On exit  : 0/0
  3677 ;;		Unchanged: 0/0
  3678 ;; Data sizes:     COMRAM   BANK0   BANK1   BANK2   BANK3   BANK4   BANK5   BANK6   BANK7   BANK8   BANK9  BANK10  BANK1
      +1  BANK12  BANK13  BANK14  BANK15
  3679 ;;      Params:         2       0       0       0       0       0       0       0       0       0       0       0       
      +0       0       0       0       0
  3680 ;;      Locals:         0       0       0       0       0       0       0       0       0       0       0       0       
      +0       0       0       0       0
  3681 ;;      Temps:          0       0       0       0       0       0       0       0       0       0       0       0       
      +0       0       0       0       0
  3682 ;;      Totals:         2       0       0       0       0       0       0       0       0       0       0       0       
      +0       0       0       0       0
  3683 ;;Total ram usage:        2 bytes
  3684 ;; Hardware stack levels used: 1
  3685 ;; Hardware stack levels required when called: 4
  3686 ;; This function calls:
  3687 ;;		Nothing
  3688 ;; This function is called by:
  3689 ;;		_EUSART_ASYNC_Init
  3690 ;; This function uses a non-reentrant model
  3691 ;;
  3692                           
  3693                           	psect	text12
  3694  0029E4                     __ptext12:
  3695                           	callstack 0
  3696  0029E4                     _EUSART_ASYNC_TX_Init:
  3697                           	callstack 24
  3698  0029E4                     
  3699                           ;MCAL_Layer/usart/hal_usart.c: 180:     if(1 == _eusart->usart_tx_cfg.usart_tx_enable){
  3700  0029E4  EE20 F006          	lfsr	2,6
  3701  0029E8  500E               	movf	EUSART_ASYNC_TX_Init@_eusart^0,w,c
  3702  0029EA  26D9               	addwf	fsr2l,f,c
  3703  0029EC  500F               	movf	(EUSART_ASYNC_TX_Init@_eusart+1)^0,w,c
  3704  0029EE  22DA               	addwfc	fsr2h,f,c
  3705  0029F0  A0DF               	btfss	indf2,0,c
  3706  0029F2  EFFD  F014         	goto	u8471
  3707  0029F6  EFFF  F014         	goto	u8470
  3708  0029FA                     u8471:
  3709  0029FA  EF4B  F015         	goto	l1674
  3710  0029FE                     u8470:
  3711  0029FE                     
  3712                           ;MCAL_Layer/usart/hal_usart.c: 181:         TXSTAbits.TXEN = 1;
  3713  0029FE  8AAC               	bsf	172,5,c	;volatile
  3714  002A00                     
  3715                           ;MCAL_Layer/usart/hal_usart.c: 182:         EUSART_TxInterruptHandler = _eusart->EUSART_
      +                          TxDefaultInterruptHandler;
  3716  002A00  EE20 F00A          	lfsr	2,10
  3717  002A04  500E               	movf	EUSART_ASYNC_TX_Init@_eusart^0,w,c
  3718  002A06  26D9               	addwf	fsr2l,f,c
  3719  002A08  500F               	movf	(EUSART_ASYNC_TX_Init@_eusart+1)^0,w,c
  3720  002A0A  22DA               	addwfc	fsr2h,f,c
  3721  002A0C  CFDE F047          	movff	postinc2,_EUSART_TxInterruptHandler
  3722  002A10  CFDD F048          	movff	postdec2,_EUSART_TxInterruptHandler+1
  3723                           
  3724                           ;MCAL_Layer/usart/hal_usart.c: 184:         if(1 == _eusart->usart_tx_cfg.usart_tx_inter
      +                          rupt_enable){
  3725  002A14  EE20 F006          	lfsr	2,6
  3726  002A18  500E               	movf	EUSART_ASYNC_TX_Init@_eusart^0,w,c
  3727  002A1A  26D9               	addwf	fsr2l,f,c
  3728  002A1C  500F               	movf	(EUSART_ASYNC_TX_Init@_eusart+1)^0,w,c
  3729  002A1E  22DA               	addwfc	fsr2h,f,c
  3730  002A20  A2DF               	btfss	indf2,1,c
  3731  002A22  EF15  F015         	goto	u8481
  3732  002A26  EF17  F015         	goto	u8480
  3733  002A2A                     u8481:
  3734  002A2A  EF1D  F015         	goto	l8623
  3735  002A2E                     u8480:
  3736  002A2E                     
  3737                           ;MCAL_Layer/usart/hal_usart.c: 185:             PIE1bits.TXIE = 1;
  3738  002A2E  889D               	bsf	157,4,c	;volatile
  3739                           
  3740                           ;MCAL_Layer/usart/hal_usart.c: 188:             (PIE1bits.TXIE = 1);
  3741  002A30  889D               	bsf	157,4,c	;volatile
  3742                           
  3743                           ;MCAL_Layer/usart/hal_usart.c: 204:             (INTCONbits.GIE = 1);
  3744  002A32  8EF2               	bsf	242,7,c	;volatile
  3745                           
  3746                           ;MCAL_Layer/usart/hal_usart.c: 205:             (INTCONbits.PEIE = 1);
  3747  002A34  8CF2               	bsf	242,6,c	;volatile
  3748                           
  3749                           ;MCAL_Layer/usart/hal_usart.c: 208:         }
  3750  002A36  EF2B  F015         	goto	l8627
  3751  002A3A                     l8623:
  3752  002A3A  EE20 F006          	lfsr	2,6
  3753  002A3E  500E               	movf	EUSART_ASYNC_TX_Init@_eusart^0,w,c
  3754  002A40  26D9               	addwf	fsr2l,f,c
  3755  002A42  500F               	movf	(EUSART_ASYNC_TX_Init@_eusart+1)^0,w,c
  3756  002A44  22DA               	addwfc	fsr2h,f,c
  3757  002A46  B2DF               	btfsc	indf2,1,c
  3758  002A48  EF28  F015         	goto	u8491
  3759  002A4C  EF2A  F015         	goto	u8490
  3760  002A50                     u8491:
  3761  002A50  EF2B  F015         	goto	l8627
  3762  002A54                     u8490:
  3763  002A54                     
  3764                           ;MCAL_Layer/usart/hal_usart.c: 210:             PIE1bits.TXIE = 0;
  3765  002A54  989D               	bcf	157,4,c	;volatile
  3766  002A56                     l8627:
  3767                           
  3768                           ;MCAL_Layer/usart/hal_usart.c: 215:         if(1 == _eusart->usart_tx_cfg.usart_tx_9bit_
      +                          enable){
  3769  002A56  EE20 F006          	lfsr	2,6
  3770  002A5A  500E               	movf	EUSART_ASYNC_TX_Init@_eusart^0,w,c
  3771  002A5C  26D9               	addwf	fsr2l,f,c
  3772  002A5E  500F               	movf	(EUSART_ASYNC_TX_Init@_eusart+1)^0,w,c
  3773  002A60  22DA               	addwfc	fsr2h,f,c
  3774  002A62  A4DF               	btfss	indf2,2,c
  3775  002A64  EF36  F015         	goto	u8501
  3776  002A68  EF38  F015         	goto	u8500
  3777  002A6C                     u8501:
  3778  002A6C  EF3B  F015         	goto	l8631
  3779  002A70                     u8500:
  3780  002A70                     
  3781                           ;MCAL_Layer/usart/hal_usart.c: 216:             TXSTAbits.TX9 = 1;
  3782  002A70  8CAC               	bsf	172,6,c	;volatile
  3783                           
  3784                           ;MCAL_Layer/usart/hal_usart.c: 217:         }
  3785  002A72  EF4B  F015         	goto	l1674
  3786  002A76                     l8631:
  3787  002A76  EE20 F006          	lfsr	2,6
  3788  002A7A  500E               	movf	EUSART_ASYNC_TX_Init@_eusart^0,w,c
  3789  002A7C  26D9               	addwf	fsr2l,f,c
  3790  002A7E  500F               	movf	(EUSART_ASYNC_TX_Init@_eusart+1)^0,w,c
  3791  002A80  22DA               	addwfc	fsr2h,f,c
  3792  002A82  B4DF               	btfsc	indf2,2,c
  3793  002A84  EF46  F015         	goto	u8511
  3794  002A88  EF48  F015         	goto	u8510
  3795  002A8C                     u8511:
  3796  002A8C  EF4B  F015         	goto	l1670
  3797  002A90                     u8510:
  3798  002A90                     
  3799                           ;MCAL_Layer/usart/hal_usart.c: 219:             TXSTAbits.TX9 = 0;
  3800  002A90  9CAC               	bcf	172,6,c	;volatile
  3801                           
  3802                           ;MCAL_Layer/usart/hal_usart.c: 220:         }
  3803  002A92  EF4B  F015         	goto	l1674
  3804  002A96                     l1670:
  3805  002A96                     l1674:
  3806  002A96  0012               	return		;funcret
  3807  002A98                     __end_of_EUSART_ASYNC_TX_Init:
  3808                           	callstack 0
  3809                           
  3810 ;; *************** function _EUSART_ASYNC_RX_Init *****************
  3811 ;; Defined at:
  3812 ;;		line 226 in file "MCAL_Layer/usart/hal_usart.c"
  3813 ;; Parameters:    Size  Location     Type
  3814 ;;  _eusart         2   13[COMRAM] PTR const struct .
  3815 ;;		 -> usart_1(18), 
  3816 ;; Auto vars:     Size  Location     Type
  3817 ;;		None
  3818 ;; Return value:  Size  Location     Type
  3819 ;;                  1    wreg      void 
  3820 ;; Registers used:
  3821 ;;		wreg, fsr2l, fsr2h, status,2, status,0
  3822 ;; Tracked objects:
  3823 ;;		On entry : 0/0
  3824 ;;		On exit  : 0/0
  3825 ;;		Unchanged: 0/0
  3826 ;; Data sizes:     COMRAM   BANK0   BANK1   BANK2   BANK3   BANK4   BANK5   BANK6   BANK7   BANK8   BANK9  BANK10  BANK1
      +1  BANK12  BANK13  BANK14  BANK15
  3827 ;;      Params:         2       0       0       0       0       0       0       0       0       0       0       0       
      +0       0       0       0       0
  3828 ;;      Locals:         0       0       0       0       0       0       0       0       0       0       0       0       
      +0       0       0       0       0
  3829 ;;      Temps:          0       0       0       0       0       0       0       0       0       0       0       0       
      +0       0       0       0       0
  3830 ;;      Totals:         2       0       0       0       0       0       0       0       0       0       0       0       
      +0       0       0       0       0
  3831 ;;Total ram usage:        2 bytes
  3832 ;; Hardware stack levels used: 1
  3833 ;; Hardware stack levels required when called: 4
  3834 ;; This function calls:
  3835 ;;		Nothing
  3836 ;; This function is called by:
  3837 ;;		_EUSART_ASYNC_Init
  3838 ;; This function uses a non-reentrant model
  3839 ;;
  3840                           
  3841                           	psect	text13
  3842  002844                     __ptext13:
  3843                           	callstack 0
  3844  002844                     _EUSART_ASYNC_RX_Init:
  3845                           	callstack 24
  3846  002844                     
  3847                           ;MCAL_Layer/usart/hal_usart.c: 227:     if(1 == _eusart->usart_rx_cfg.usart_rx_enable){
  3848  002844  EE20 F008          	lfsr	2,8
  3849  002848  500E               	movf	EUSART_ASYNC_RX_Init@_eusart^0,w,c
  3850  00284A  26D9               	addwf	fsr2l,f,c
  3851  00284C  500F               	movf	(EUSART_ASYNC_RX_Init@_eusart+1)^0,w,c
  3852  00284E  22DA               	addwfc	fsr2h,f,c
  3853  002850  A0DF               	btfss	indf2,0,c
  3854  002852  EF2D  F014         	goto	u8521
  3855  002856  EF2F  F014         	goto	u8520
  3856  00285A                     u8521:
  3857  00285A  EF8F  F014         	goto	l1687
  3858  00285E                     u8520:
  3859  00285E                     
  3860                           ;MCAL_Layer/usart/hal_usart.c: 228:         RCSTAbits.CREN = 1;
  3861  00285E  88AB               	bsf	171,4,c	;volatile
  3862  002860                     
  3863                           ;MCAL_Layer/usart/hal_usart.c: 229:         EUSART_RxInterruptHandler = _eusart->EUSART_
      +                          RxDefaultInterruptHandler;
  3864  002860  EE20 F00C          	lfsr	2,12
  3865  002864  500E               	movf	EUSART_ASYNC_RX_Init@_eusart^0,w,c
  3866  002866  26D9               	addwf	fsr2l,f,c
  3867  002868  500F               	movf	(EUSART_ASYNC_RX_Init@_eusart+1)^0,w,c
  3868  00286A  22DA               	addwfc	fsr2h,f,c
  3869  00286C  CFDE F0BF          	movff	postinc2,_EUSART_RxInterruptHandler
  3870  002870  CFDD F0C0          	movff	postdec2,_EUSART_RxInterruptHandler+1
  3871                           
  3872                           ;MCAL_Layer/usart/hal_usart.c: 230:         EUSART_FramingErrorHandler = _eusart->EUSART
      +                          _FramingErrorHandler;
  3873  002874  EE20 F00E          	lfsr	2,14
  3874  002878  500E               	movf	EUSART_ASYNC_RX_Init@_eusart^0,w,c
  3875  00287A  26D9               	addwf	fsr2l,f,c
  3876  00287C  500F               	movf	(EUSART_ASYNC_RX_Init@_eusart+1)^0,w,c
  3877  00287E  22DA               	addwfc	fsr2h,f,c
  3878  002880  CFDE F0BD          	movff	postinc2,_EUSART_FramingErrorHandler
  3879  002884  CFDD F0BE          	movff	postdec2,_EUSART_FramingErrorHandler+1
  3880                           
  3881                           ;MCAL_Layer/usart/hal_usart.c: 231:         EUSART_OverrunErrorHandler = _eusart->EUSART
      +                          _OverrunErrorHandler;
  3882  002888  EE20 F010          	lfsr	2,16
  3883  00288C  500E               	movf	EUSART_ASYNC_RX_Init@_eusart^0,w,c
  3884  00288E  26D9               	addwf	fsr2l,f,c
  3885  002890  500F               	movf	(EUSART_ASYNC_RX_Init@_eusart+1)^0,w,c
  3886  002892  22DA               	addwfc	fsr2h,f,c
  3887  002894  CFDE F0BB          	movff	postinc2,_EUSART_OverrunErrorHandler
  3888  002898  CFDD F0BC          	movff	postdec2,_EUSART_OverrunErrorHandler+1
  3889                           
  3890                           ;MCAL_Layer/usart/hal_usart.c: 233:         if(1 == _eusart->usart_rx_cfg.usart_rx_inter
      +                          rupt_enable){
  3891  00289C  EE20 F008          	lfsr	2,8
  3892  0028A0  500E               	movf	EUSART_ASYNC_RX_Init@_eusart^0,w,c
  3893  0028A2  26D9               	addwf	fsr2l,f,c
  3894  0028A4  500F               	movf	(EUSART_ASYNC_RX_Init@_eusart+1)^0,w,c
  3895  0028A6  22DA               	addwfc	fsr2h,f,c
  3896  0028A8  A2DF               	btfss	indf2,1,c
  3897  0028AA  EF59  F014         	goto	u8531
  3898  0028AE  EF5B  F014         	goto	u8530
  3899  0028B2                     u8531:
  3900  0028B2  EF61  F014         	goto	l8643
  3901  0028B6                     u8530:
  3902  0028B6                     
  3903                           ;MCAL_Layer/usart/hal_usart.c: 234:             PIE1bits.RCIE = 1;
  3904  0028B6  8A9D               	bsf	157,5,c	;volatile
  3905                           
  3906                           ;MCAL_Layer/usart/hal_usart.c: 237:             (PIE1bits.RCIE = 1);
  3907  0028B8  8A9D               	bsf	157,5,c	;volatile
  3908                           
  3909                           ;MCAL_Layer/usart/hal_usart.c: 253:             (INTCONbits.GIE = 1);
  3910  0028BA  8EF2               	bsf	242,7,c	;volatile
  3911                           
  3912                           ;MCAL_Layer/usart/hal_usart.c: 254:             (INTCONbits.PEIE = 1);
  3913  0028BC  8CF2               	bsf	242,6,c	;volatile
  3914                           
  3915                           ;MCAL_Layer/usart/hal_usart.c: 257:         }
  3916  0028BE  EF6F  F014         	goto	l8647
  3917  0028C2                     l8643:
  3918  0028C2  EE20 F008          	lfsr	2,8
  3919  0028C6  500E               	movf	EUSART_ASYNC_RX_Init@_eusart^0,w,c
  3920  0028C8  26D9               	addwf	fsr2l,f,c
  3921  0028CA  500F               	movf	(EUSART_ASYNC_RX_Init@_eusart+1)^0,w,c
  3922  0028CC  22DA               	addwfc	fsr2h,f,c
  3923  0028CE  B2DF               	btfsc	indf2,1,c
  3924  0028D0  EF6C  F014         	goto	u8541
  3925  0028D4  EF6E  F014         	goto	u8540
  3926  0028D8                     u8541:
  3927  0028D8  EF6F  F014         	goto	l8647
  3928  0028DC                     u8540:
  3929  0028DC                     
  3930                           ;MCAL_Layer/usart/hal_usart.c: 259:             PIE1bits.RCIE = 0;
  3931  0028DC  9A9D               	bcf	157,5,c	;volatile
  3932  0028DE                     l8647:
  3933                           
  3934                           ;MCAL_Layer/usart/hal_usart.c: 264:         if(1 == _eusart->usart_rx_cfg.usart_rx_9bit_
      +                          enable){
  3935  0028DE  EE20 F008          	lfsr	2,8
  3936  0028E2  500E               	movf	EUSART_ASYNC_RX_Init@_eusart^0,w,c
  3937  0028E4  26D9               	addwf	fsr2l,f,c
  3938  0028E6  500F               	movf	(EUSART_ASYNC_RX_Init@_eusart+1)^0,w,c
  3939  0028E8  22DA               	addwfc	fsr2h,f,c
  3940  0028EA  A4DF               	btfss	indf2,2,c
  3941  0028EC  EF7A  F014         	goto	u8551
  3942  0028F0  EF7C  F014         	goto	u8550
  3943  0028F4                     u8551:
  3944  0028F4  EF7F  F014         	goto	l8651
  3945  0028F8                     u8550:
  3946  0028F8                     
  3947                           ;MCAL_Layer/usart/hal_usart.c: 265:             RCSTAbits.RX9 = 1;
  3948  0028F8  8CAB               	bsf	171,6,c	;volatile
  3949                           
  3950                           ;MCAL_Layer/usart/hal_usart.c: 266:         }
  3951  0028FA  EF8F  F014         	goto	l1687
  3952  0028FE                     l8651:
  3953  0028FE  EE20 F008          	lfsr	2,8
  3954  002902  500E               	movf	EUSART_ASYNC_RX_Init@_eusart^0,w,c
  3955  002904  26D9               	addwf	fsr2l,f,c
  3956  002906  500F               	movf	(EUSART_ASYNC_RX_Init@_eusart+1)^0,w,c
  3957  002908  22DA               	addwfc	fsr2h,f,c
  3958  00290A  B4DF               	btfsc	indf2,2,c
  3959  00290C  EF8A  F014         	goto	u8561
  3960  002910  EF8C  F014         	goto	u8560
  3961  002914                     u8561:
  3962  002914  EF8F  F014         	goto	l1683
  3963  002918                     u8560:
  3964  002918                     
  3965                           ;MCAL_Layer/usart/hal_usart.c: 268:             RCSTAbits.RX9 = 0;
  3966  002918  9CAB               	bcf	171,6,c	;volatile
  3967                           
  3968                           ;MCAL_Layer/usart/hal_usart.c: 269:         }
  3969  00291A  EF8F  F014         	goto	l1687
  3970  00291E                     l1683:
  3971  00291E                     l1687:
  3972  00291E  0012               	return		;funcret
  3973  002920                     __end_of_EUSART_ASYNC_RX_Init:
  3974                           	callstack 0
  3975                           
  3976 ;; *************** function _TimesUpdate *****************
  3977 ;; Defined at:
  3978 ;;		line 100 in file "application.c"
  3979 ;; Parameters:    Size  Location     Type
  3980 ;;		None
  3981 ;; Auto vars:     Size  Location     Type
  3982 ;;		None
  3983 ;; Return value:  Size  Location     Type
  3984 ;;                  1    wreg      void 
  3985 ;; Registers used:
  3986 ;;		wreg, status,2, status,0
  3987 ;; Tracked objects:
  3988 ;;		On entry : 0/0
  3989 ;;		On exit  : 0/0
  3990 ;;		Unchanged: 0/0
  3991 ;; Data sizes:     COMRAM   BANK0   BANK1   BANK2   BANK3   BANK4   BANK5   BANK6   BANK7   BANK8   BANK9  BANK10  BANK1
      +1  BANK12  BANK13  BANK14  BANK15
  3992 ;;      Params:         0       0       0       0       0       0       0       0       0       0       0       0       
      +0       0       0       0       0
  3993 ;;      Locals:         0       0       0       0       0       0       0       0       0       0       0       0       
      +0       0       0       0       0
  3994 ;;      Temps:          0       0       0       0       0       0       0       0       0       0       0       0       
      +0       0       0       0       0
  3995 ;;      Totals:         0       0       0       0       0       0       0       0       0       0       0       0       
      +0       0       0       0       0
  3996 ;;Total ram usage:        0 bytes
  3997 ;; Hardware stack levels used: 1
  3998 ;; Hardware stack levels required when called: 4
  3999 ;; This function calls:
  4000 ;;		Nothing
  4001 ;; This function is called by:
  4002 ;;		_main
  4003 ;; This function uses a non-reentrant model
  4004 ;;
  4005                           
  4006                           	psect	text14
  4007  002D5E                     __ptext14:
  4008                           	callstack 0
  4009  002D5E                     _TimesUpdate:
  4010                           	callstack 26
  4011  002D5E                     
  4012                           ;application.c: 102:     sec++;
  4013  002D5E  2A64               	incf	_sec^0,f,c
  4014  002D60                     
  4015                           ;application.c: 103:     if(sec==60)
  4016  002D60  0E3C               	movlw	60
  4017  002D62  1864               	xorwf	_sec^0,w,c
  4018  002D64  A4D8               	btfss	status,2,c
  4019  002D66  EFB7  F016         	goto	u1551
  4020  002D6A  EFB9  F016         	goto	u1550
  4021  002D6E                     u1551:
  4022  002D6E  EFBC  F016         	goto	l3649
  4023  002D72                     u1550:
  4024  002D72                     
  4025                           ;application.c: 104:     {;application.c: 105:         min++;
  4026  002D72  2A65               	incf	_min^0,f,c
  4027  002D74                     
  4028                           ;application.c: 106:         sec=0;
  4029  002D74  0E00               	movlw	0
  4030  002D76  6E64               	movwf	_sec^0,c
  4031  002D78                     l3649:
  4032                           
  4033                           ;application.c: 108:     if(min==60)
  4034  002D78  0E3C               	movlw	60
  4035  002D7A  1865               	xorwf	_min^0,w,c
  4036  002D7C  A4D8               	btfss	status,2,c
  4037  002D7E  EFC3  F016         	goto	u1561
  4038  002D82  EFC5  F016         	goto	u1560
  4039  002D86                     u1561:
  4040  002D86  EFC8  F016         	goto	l3655
  4041  002D8A                     u1560:
  4042  002D8A                     
  4043                           ;application.c: 109:     {;application.c: 110:         hour++;
  4044  002D8A  2A66               	incf	_hour^0,f,c
  4045  002D8C                     
  4046                           ;application.c: 111:         min=0;
  4047  002D8C  0E00               	movlw	0
  4048  002D8E  6E65               	movwf	_min^0,c
  4049  002D90                     l3655:
  4050                           
  4051                           ;application.c: 113:     if(hour==24)
  4052  002D90  0E18               	movlw	24
  4053  002D92  1866               	xorwf	_hour^0,w,c
  4054  002D94  A4D8               	btfss	status,2,c
  4055  002D96  EFCF  F016         	goto	u1571
  4056  002D9A  EFD1  F016         	goto	u1570
  4057  002D9E                     u1571:
  4058  002D9E  EFD3  F016         	goto	l1761
  4059  002DA2                     u1570:
  4060  002DA2                     
  4061                           ;application.c: 114:     {;application.c: 115:         hour=0;
  4062  002DA2  0E00               	movlw	0
  4063  002DA4  6E66               	movwf	_hour^0,c
  4064  002DA6                     l1761:
  4065  002DA6  0012               	return		;funcret
  4066  002DA8                     __end_of_TimesUpdate:
  4067                           	callstack 0
  4068                           
  4069 ;; *************** function _SegmentsUpdate *****************
  4070 ;; Defined at:
  4071 ;;		line 120 in file "application.c"
  4072 ;; Parameters:    Size  Location     Type
  4073 ;;		None
  4074 ;; Auto vars:     Size  Location     Type
  4075 ;;		None
  4076 ;; Return value:  Size  Location     Type
  4077 ;;                  1    wreg      void 
  4078 ;; Registers used:
  4079 ;;		wreg, fsr2l, fsr2h, status,2, status,0, prodl, prodh, cstack
  4080 ;; Tracked objects:
  4081 ;;		On entry : 0/0
  4082 ;;		On exit  : 0/0
  4083 ;;		Unchanged: 0/0
  4084 ;; Data sizes:     COMRAM   BANK0   BANK1   BANK2   BANK3   BANK4   BANK5   BANK6   BANK7   BANK8   BANK9  BANK10  BANK1
      +1  BANK12  BANK13  BANK14  BANK15
  4085 ;;      Params:         0       0       0       0       0       0       0       0       0       0       0       0       
      +0       0       0       0       0
  4086 ;;      Locals:         0       0       0       0       0       0       0       0       0       0       0       0       
      +0       0       0       0       0
  4087 ;;      Temps:          1       0       0       0       0       0       0       0       0       0       0       0       
      +0       0       0       0       0
  4088 ;;      Totals:         1       0       0       0       0       0       0       0       0       0       0       0       
      +0       0       0       0       0
  4089 ;;Total ram usage:        1 bytes
  4090 ;; Hardware stack levels used: 1
  4091 ;; Hardware stack levels required when called: 6
  4092 ;; This function calls:
  4093 ;;		___awdiv
  4094 ;;		___awmod
  4095 ;;		_gpio_port_write_logic
  4096 ;;		_seven_segement_write_number
  4097 ;; This function is called by:
  4098 ;;		_main
  4099 ;; This function uses a non-reentrant model
  4100 ;;
  4101                           
  4102                           	psect	text15
  4103  00232A                     __ptext15:
  4104                           	callstack 0
  4105  00232A                     _SegmentsUpdate:
  4106                           	callstack 24
  4107  00232A                     
  4108                           ;application.c: 122:     for(counter=0 ; counter<34 ; counter++)
  4109  00232A  0E00               	movlw	0
  4110  00232C  6E5B               	movwf	_counter^0,c
  4111  00232E                     l6767:
  4112                           
  4113                           ;application.c: 123:     {;application.c: 124:         ret = gpio_port_write_logic(PORTD
      +                          _INDEX, 1);
  4114  00232E  0E01               	movlw	1
  4115  002330  6E0E               	movwf	gpio_port_write_logic@logic^0,c
  4116  002332  0E03               	movlw	3
  4117  002334  ECF7  F016         	call	_gpio_port_write_logic
  4118  002338  0100               	movlb	0	; () banked
  4119  00233A  6FEE               	movwf	_ret& (0+255),b
  4120                           
  4121                           ;application.c: 125:         ret = seven_segement_write_number(&seg, (uint8)(hour/10) );
  4122  00233C  0EB0               	movlw	low _seg
  4123  00233E  6E18               	movwf	seven_segement_write_number@seg^0,c
  4124  002340  0E00               	movlw	high _seg
  4125  002342  6E19               	movwf	(seven_segement_write_number@seg+1)^0,c
  4126  002344  C066  F00E         	movff	_hour,___awdiv@dividend
  4127  002348  6A0F               	clrf	(___awdiv@dividend+1)^0,c
  4128  00234A  0E00               	movlw	0
  4129  00234C  6E11               	movwf	(___awdiv@divisor+1)^0,c
  4130  00234E  0E0A               	movlw	10
  4131  002350  6E10               	movwf	___awdiv@divisor^0,c
  4132  002352  EC90  F014         	call	___awdiv	;wreg free
  4133  002356  500E               	movf	?___awdiv^0,w,c
  4134  002358  6E1A               	movwf	seven_segement_write_number@number^0,c
  4135  00235A  ECA4  F015         	call	_seven_segement_write_number	;wreg free
  4136  00235E  0100               	movlb	0	; () banked
  4137  002360  6FEE               	movwf	_ret& (0+255),b
  4138  002362                     
  4139                           ; BSR set to: 0
  4140                           ;application.c: 126:         _delay((unsigned long)((5)*(8000000UL/4000.0)));
  4141  002362  0E0D               	movlw	13
  4142  002364  6E1C               	movwf	??_SegmentsUpdate^0,c
  4143  002366  0EFC               	movlw	252
  4144  002368                     u8857:
  4145  002368  2EE8               	decfsz	wreg,f,c
  4146  00236A  D7FE               	bra	u8857
  4147  00236C  2E1C               	decfsz	??_SegmentsUpdate^0,f,c
  4148  00236E  D7FC               	bra	u8857
  4149  002370                     
  4150                           ;application.c: 128:         ret = gpio_port_write_logic(PORTD_INDEX, 2);
  4151  002370  0E02               	movlw	2
  4152  002372  6E0E               	movwf	gpio_port_write_logic@logic^0,c
  4153  002374  0E03               	movlw	3
  4154  002376  ECF7  F016         	call	_gpio_port_write_logic
  4155  00237A  0100               	movlb	0	; () banked
  4156  00237C  6FEE               	movwf	_ret& (0+255),b
  4157  00237E                     
  4158                           ; BSR set to: 0
  4159                           ;application.c: 129:         ret = seven_segement_write_number(&seg, (uint8)(hour%10 ) )
      +                          ;
  4160  00237E  0EB0               	movlw	low _seg
  4161  002380  6E18               	movwf	seven_segement_write_number@seg^0,c
  4162  002382  0E00               	movlw	high _seg
  4163  002384  6E19               	movwf	(seven_segement_write_number@seg+1)^0,c
  4164  002386  C066  F00E         	movff	_hour,___awmod@dividend
  4165  00238A  6A0F               	clrf	(___awmod@dividend+1)^0,c
  4166  00238C  0E00               	movlw	0
  4167  00238E  6E11               	movwf	(___awmod@divisor+1)^0,c
  4168  002390  0E0A               	movlw	10
  4169  002392  6E10               	movwf	___awmod@divisor^0,c
  4170  002394  EC4C  F015         	call	___awmod	;wreg free
  4171  002398  500E               	movf	?___awmod^0,w,c
  4172  00239A  6E1A               	movwf	seven_segement_write_number@number^0,c
  4173  00239C  ECA4  F015         	call	_seven_segement_write_number	;wreg free
  4174  0023A0  0100               	movlb	0	; () banked
  4175  0023A2  6FEE               	movwf	_ret& (0+255),b
  4176  0023A4                     
  4177                           ; BSR set to: 0
  4178                           ;application.c: 130:         _delay((unsigned long)((5)*(8000000UL/4000.0)));
  4179  0023A4  0E0D               	movlw	13
  4180  0023A6  6E1C               	movwf	??_SegmentsUpdate^0,c
  4181  0023A8  0EFC               	movlw	252
  4182  0023AA                     u8867:
  4183  0023AA  2EE8               	decfsz	wreg,f,c
  4184  0023AC  D7FE               	bra	u8867
  4185  0023AE  2E1C               	decfsz	??_SegmentsUpdate^0,f,c
  4186  0023B0  D7FC               	bra	u8867
  4187                           
  4188                           ;application.c: 132:         ret = gpio_port_write_logic(PORTD_INDEX, 4);
  4189  0023B2  0E04               	movlw	4
  4190  0023B4  6E0E               	movwf	gpio_port_write_logic@logic^0,c
  4191  0023B6  0E03               	movlw	3
  4192  0023B8  ECF7  F016         	call	_gpio_port_write_logic
  4193  0023BC  0100               	movlb	0	; () banked
  4194  0023BE  6FEE               	movwf	_ret& (0+255),b
  4195                           
  4196                           ;application.c: 133:         ret = seven_segement_write_number(&seg, (uint8)(min/10) );
  4197  0023C0  0EB0               	movlw	low _seg
  4198  0023C2  6E18               	movwf	seven_segement_write_number@seg^0,c
  4199  0023C4  0E00               	movlw	high _seg
  4200  0023C6  6E19               	movwf	(seven_segement_write_number@seg+1)^0,c
  4201  0023C8  C065  F00E         	movff	_min,___awdiv@dividend
  4202  0023CC  6A0F               	clrf	(___awdiv@dividend+1)^0,c
  4203  0023CE  0E00               	movlw	0
  4204  0023D0  6E11               	movwf	(___awdiv@divisor+1)^0,c
  4205  0023D2  0E0A               	movlw	10
  4206  0023D4  6E10               	movwf	___awdiv@divisor^0,c
  4207  0023D6  EC90  F014         	call	___awdiv	;wreg free
  4208  0023DA  500E               	movf	?___awdiv^0,w,c
  4209  0023DC  6E1A               	movwf	seven_segement_write_number@number^0,c
  4210  0023DE  ECA4  F015         	call	_seven_segement_write_number	;wreg free
  4211  0023E2  0100               	movlb	0	; () banked
  4212  0023E4  6FEE               	movwf	_ret& (0+255),b
  4213  0023E6                     
  4214                           ; BSR set to: 0
  4215                           ;application.c: 134:         _delay((unsigned long)((5)*(8000000UL/4000.0)));
  4216  0023E6  0E0D               	movlw	13
  4217  0023E8  6E1C               	movwf	??_SegmentsUpdate^0,c
  4218  0023EA  0EFC               	movlw	252
  4219  0023EC                     u8877:
  4220  0023EC  2EE8               	decfsz	wreg,f,c
  4221  0023EE  D7FE               	bra	u8877
  4222  0023F0  2E1C               	decfsz	??_SegmentsUpdate^0,f,c
  4223  0023F2  D7FC               	bra	u8877
  4224  0023F4                     
  4225                           ;application.c: 136:         ret = gpio_port_write_logic(PORTD_INDEX, 8);
  4226  0023F4  0E08               	movlw	8
  4227  0023F6  6E0E               	movwf	gpio_port_write_logic@logic^0,c
  4228  0023F8  0E03               	movlw	3
  4229  0023FA  ECF7  F016         	call	_gpio_port_write_logic
  4230  0023FE  0100               	movlb	0	; () banked
  4231  002400  6FEE               	movwf	_ret& (0+255),b
  4232  002402                     
  4233                           ; BSR set to: 0
  4234                           ;application.c: 137:         ret = seven_segement_write_number(&seg, (uint8)(min%10) );
  4235  002402  0EB0               	movlw	low _seg
  4236  002404  6E18               	movwf	seven_segement_write_number@seg^0,c
  4237  002406  0E00               	movlw	high _seg
  4238  002408  6E19               	movwf	(seven_segement_write_number@seg+1)^0,c
  4239  00240A  C065  F00E         	movff	_min,___awmod@dividend
  4240  00240E  6A0F               	clrf	(___awmod@dividend+1)^0,c
  4241  002410  0E00               	movlw	0
  4242  002412  6E11               	movwf	(___awmod@divisor+1)^0,c
  4243  002414  0E0A               	movlw	10
  4244  002416  6E10               	movwf	___awmod@divisor^0,c
  4245  002418  EC4C  F015         	call	___awmod	;wreg free
  4246  00241C  500E               	movf	?___awmod^0,w,c
  4247  00241E  6E1A               	movwf	seven_segement_write_number@number^0,c
  4248  002420  ECA4  F015         	call	_seven_segement_write_number	;wreg free
  4249  002424  0100               	movlb	0	; () banked
  4250  002426  6FEE               	movwf	_ret& (0+255),b
  4251  002428                     
  4252                           ; BSR set to: 0
  4253                           ;application.c: 138:         _delay((unsigned long)((5)*(8000000UL/4000.0)));
  4254  002428  0E0D               	movlw	13
  4255  00242A  6E1C               	movwf	??_SegmentsUpdate^0,c
  4256  00242C  0EFC               	movlw	252
  4257  00242E                     u8887:
  4258  00242E  2EE8               	decfsz	wreg,f,c
  4259  002430  D7FE               	bra	u8887
  4260  002432  2E1C               	decfsz	??_SegmentsUpdate^0,f,c
  4261  002434  D7FC               	bra	u8887
  4262                           
  4263                           ;application.c: 140:         ret = gpio_port_write_logic(PORTD_INDEX, 16);
  4264  002436  0E10               	movlw	16
  4265  002438  6E0E               	movwf	gpio_port_write_logic@logic^0,c
  4266  00243A  0E03               	movlw	3
  4267  00243C  ECF7  F016         	call	_gpio_port_write_logic
  4268  002440  0100               	movlb	0	; () banked
  4269  002442  6FEE               	movwf	_ret& (0+255),b
  4270                           
  4271                           ;application.c: 141:         ret = seven_segement_write_number(&seg, (uint8)(sec/10) );
  4272  002444  0EB0               	movlw	low _seg
  4273  002446  6E18               	movwf	seven_segement_write_number@seg^0,c
  4274  002448  0E00               	movlw	high _seg
  4275  00244A  6E19               	movwf	(seven_segement_write_number@seg+1)^0,c
  4276  00244C  C064  F00E         	movff	_sec,___awdiv@dividend
  4277  002450  6A0F               	clrf	(___awdiv@dividend+1)^0,c
  4278  002452  0E00               	movlw	0
  4279  002454  6E11               	movwf	(___awdiv@divisor+1)^0,c
  4280  002456  0E0A               	movlw	10
  4281  002458  6E10               	movwf	___awdiv@divisor^0,c
  4282  00245A  EC90  F014         	call	___awdiv	;wreg free
  4283  00245E  500E               	movf	?___awdiv^0,w,c
  4284  002460  6E1A               	movwf	seven_segement_write_number@number^0,c
  4285  002462  ECA4  F015         	call	_seven_segement_write_number	;wreg free
  4286  002466  0100               	movlb	0	; () banked
  4287  002468  6FEE               	movwf	_ret& (0+255),b
  4288  00246A                     
  4289                           ; BSR set to: 0
  4290                           ;application.c: 142:         _delay((unsigned long)((5)*(8000000UL/4000.0)));
  4291  00246A  0E0D               	movlw	13
  4292  00246C  6E1C               	movwf	??_SegmentsUpdate^0,c
  4293  00246E  0EFC               	movlw	252
  4294  002470                     u8897:
  4295  002470  2EE8               	decfsz	wreg,f,c
  4296  002472  D7FE               	bra	u8897
  4297  002474  2E1C               	decfsz	??_SegmentsUpdate^0,f,c
  4298  002476  D7FC               	bra	u8897
  4299  002478                     
  4300                           ;application.c: 144:         ret = gpio_port_write_logic(PORTD_INDEX, 32);
  4301  002478  0E20               	movlw	32
  4302  00247A  6E0E               	movwf	gpio_port_write_logic@logic^0,c
  4303  00247C  0E03               	movlw	3
  4304  00247E  ECF7  F016         	call	_gpio_port_write_logic
  4305  002482  0100               	movlb	0	; () banked
  4306  002484  6FEE               	movwf	_ret& (0+255),b
  4307  002486                     
  4308                           ; BSR set to: 0
  4309                           ;application.c: 145:         ret = seven_segement_write_number(&seg, (uint8)(sec%10) );
  4310  002486  0EB0               	movlw	low _seg
  4311  002488  6E18               	movwf	seven_segement_write_number@seg^0,c
  4312  00248A  0E00               	movlw	high _seg
  4313  00248C  6E19               	movwf	(seven_segement_write_number@seg+1)^0,c
  4314  00248E  C064  F00E         	movff	_sec,___awmod@dividend
  4315  002492  6A0F               	clrf	(___awmod@dividend+1)^0,c
  4316  002494  0E00               	movlw	0
  4317  002496  6E11               	movwf	(___awmod@divisor+1)^0,c
  4318  002498  0E0A               	movlw	10
  4319  00249A  6E10               	movwf	___awmod@divisor^0,c
  4320  00249C  EC4C  F015         	call	___awmod	;wreg free
  4321  0024A0  500E               	movf	?___awmod^0,w,c
  4322  0024A2  6E1A               	movwf	seven_segement_write_number@number^0,c
  4323  0024A4  ECA4  F015         	call	_seven_segement_write_number	;wreg free
  4324  0024A8  0100               	movlb	0	; () banked
  4325  0024AA  6FEE               	movwf	_ret& (0+255),b
  4326  0024AC                     
  4327                           ; BSR set to: 0
  4328                           ;application.c: 146:         _delay((unsigned long)((5)*(8000000UL/4000.0)));
  4329  0024AC  0E0D               	movlw	13
  4330  0024AE  6E1C               	movwf	??_SegmentsUpdate^0,c
  4331  0024B0  0EFC               	movlw	252
  4332  0024B2                     u8907:
  4333  0024B2  2EE8               	decfsz	wreg,f,c
  4334  0024B4  D7FE               	bra	u8907
  4335  0024B6  2E1C               	decfsz	??_SegmentsUpdate^0,f,c
  4336  0024B8  D7FC               	bra	u8907
  4337  0024BA                     
  4338                           ;application.c: 147:     }
  4339  0024BA  2A5B               	incf	_counter^0,f,c
  4340  0024BC  0E21               	movlw	33
  4341  0024BE  645B               	cpfsgt	_counter^0,c
  4342  0024C0  EF64  F012         	goto	u5761
  4343  0024C4  EF66  F012         	goto	u5760
  4344  0024C8                     u5761:
  4345  0024C8  EF97  F011         	goto	l6767
  4346  0024CC                     u5760:
  4347  0024CC  0012               	return		;funcret
  4348  0024CE                     __end_of_SegmentsUpdate:
  4349                           	callstack 0
  4350                           
  4351 ;; *************** function _seven_segement_write_number *****************
  4352 ;; Defined at:
  4353 ;;		line 39 in file "ECU_Layer/7_Segment/ecu_seven_segment.c"
  4354 ;; Parameters:    Size  Location     Type
  4355 ;;  seg             2   23[COMRAM] PTR const struct .
  4356 ;;		 -> seg(5), 
  4357 ;;  number          1   25[COMRAM] unsigned char 
  4358 ;; Auto vars:     Size  Location     Type
  4359 ;;  ret             1   26[COMRAM] unsigned char 
  4360 ;; Return value:  Size  Location     Type
  4361 ;;                  1    wreg      unsigned char 
  4362 ;; Registers used:
  4363 ;;		wreg, fsr2l, fsr2h, status,2, status,0, prodl, prodh, cstack
  4364 ;; Tracked objects:
  4365 ;;		On entry : 0/0
  4366 ;;		On exit  : 0/0
  4367 ;;		Unchanged: 0/0
  4368 ;; Data sizes:     COMRAM   BANK0   BANK1   BANK2   BANK3   BANK4   BANK5   BANK6   BANK7   BANK8   BANK9  BANK10  BANK1
      +1  BANK12  BANK13  BANK14  BANK15
  4369 ;;      Params:         3       0       0       0       0       0       0       0       0       0       0       0       
      +0       0       0       0       0
  4370 ;;      Locals:         1       0       0       0       0       0       0       0       0       0       0       0       
      +0       0       0       0       0
  4371 ;;      Temps:          0       0       0       0       0       0       0       0       0       0       0       0       
      +0       0       0       0       0
  4372 ;;      Totals:         4       0       0       0       0       0       0       0       0       0       0       0       
      +0       0       0       0       0
  4373 ;;Total ram usage:        4 bytes
  4374 ;; Hardware stack levels used: 1
  4375 ;; Hardware stack levels required when called: 5
  4376 ;; This function calls:
  4377 ;;		_gpio_pin_write_logic
  4378 ;; This function is called by:
  4379 ;;		_SegmentsUpdate
  4380 ;; This function uses a non-reentrant model
  4381 ;;
  4382                           
  4383                           	psect	text16
  4384  002B48                     __ptext16:
  4385                           	callstack 0
  4386  002B48                     _seven_segement_write_number:
  4387                           	callstack 24
  4388  002B48                     
  4389                           ;ECU_Layer/7_Segment/ecu_seven_segment.c: 41:     if((((void*)0) == seg) && (number > 9)
      +                          ){
  4390  002B48  5018               	movf	seven_segement_write_number@seg^0,w,c
  4391  002B4A  1019               	iorwf	(seven_segement_write_number@seg+1)^0,w,c
  4392  002B4C  A4D8               	btfss	status,2,c
  4393  002B4E  EFAB  F015         	goto	u5381
  4394  002B52  EFAD  F015         	goto	u5380
  4395  002B56                     u5381:
  4396  002B56  EFB9  F015         	goto	l6309
  4397  002B5A                     u5380:
  4398  002B5A  0E09               	movlw	9
  4399  002B5C  641A               	cpfsgt	seven_segement_write_number@number^0,c
  4400  002B5E  EFB3  F015         	goto	u5391
  4401  002B62  EFB5  F015         	goto	u5390
  4402  002B66                     u5391:
  4403  002B66  EFB9  F015         	goto	l6309
  4404  002B6A                     u5390:
  4405  002B6A                     
  4406                           ;ECU_Layer/7_Segment/ecu_seven_segment.c: 42:         ret = (Std_ReturnType)0x00;
  4407  002B6A  0E00               	movlw	0
  4408  002B6C  6E1B               	movwf	seven_segement_write_number@ret^0,c
  4409                           
  4410                           ;ECU_Layer/7_Segment/ecu_seven_segment.c: 43:     }
  4411  002B6E  EFEC  F015         	goto	l6311
  4412  002B72                     l6309:
  4413                           
  4414                           ;ECU_Layer/7_Segment/ecu_seven_segment.c: 45:         ret = gpio_pin_write_logic(&(seg->
      +                          segment_pins[0]), number & 0x01);
  4415  002B72  C018  F00E         	movff	seven_segement_write_number@seg,gpio_pin_write_logic@_pin_config
  4416  002B76  C019  F00F         	movff	seven_segement_write_number@seg+1,gpio_pin_write_logic@_pin_config+1
  4417  002B7A  501A               	movf	seven_segement_write_number@number^0,w,c
  4418  002B7C  0B01               	andlw	1
  4419  002B7E  6E10               	movwf	gpio_pin_write_logic@logic^0,c
  4420  002B80  EC09  F013         	call	_gpio_pin_write_logic	;wreg free
  4421  002B84  6E1B               	movwf	seven_segement_write_number@ret^0,c
  4422                           
  4423                           ;ECU_Layer/7_Segment/ecu_seven_segment.c: 46:         ret = gpio_pin_write_logic(&(seg->
      +                          segment_pins[1]), (number>>1) & 0x01);
  4424  002B86  0E01               	movlw	1
  4425  002B88  2418               	addwf	seven_segement_write_number@seg^0,w,c
  4426  002B8A  6E0E               	movwf	gpio_pin_write_logic@_pin_config^0,c
  4427  002B8C  0E00               	movlw	0
  4428  002B8E  2019               	addwfc	(seven_segement_write_number@seg+1)^0,w,c
  4429  002B90  6E0F               	movwf	(gpio_pin_write_logic@_pin_config+1)^0,c
  4430  002B92  90D8               	bcf	status,0,c
  4431  002B94  301A               	rrcf	seven_segement_write_number@number^0,w,c
  4432  002B96  0B01               	andlw	1
  4433  002B98  6E10               	movwf	gpio_pin_write_logic@logic^0,c
  4434  002B9A  EC09  F013         	call	_gpio_pin_write_logic	;wreg free
  4435  002B9E  6E1B               	movwf	seven_segement_write_number@ret^0,c
  4436                           
  4437                           ;ECU_Layer/7_Segment/ecu_seven_segment.c: 47:         ret = gpio_pin_write_logic(&(seg->
      +                          segment_pins[2]), (number>>2) & 0x01);
  4438  002BA0  0E02               	movlw	2
  4439  002BA2  2418               	addwf	seven_segement_write_number@seg^0,w,c
  4440  002BA4  6E0E               	movwf	gpio_pin_write_logic@_pin_config^0,c
  4441  002BA6  0E00               	movlw	0
  4442  002BA8  2019               	addwfc	(seven_segement_write_number@seg+1)^0,w,c
  4443  002BAA  6E0F               	movwf	(gpio_pin_write_logic@_pin_config+1)^0,c
  4444  002BAC  401A               	rrncf	seven_segement_write_number@number^0,w,c
  4445  002BAE  42E8               	rrncf	wreg,f,c
  4446  002BB0  0B3F               	andlw	63
  4447  002BB2  0B01               	andlw	1
  4448  002BB4  6E10               	movwf	gpio_pin_write_logic@logic^0,c
  4449  002BB6  EC09  F013         	call	_gpio_pin_write_logic	;wreg free
  4450  002BBA  6E1B               	movwf	seven_segement_write_number@ret^0,c
  4451                           
  4452                           ;ECU_Layer/7_Segment/ecu_seven_segment.c: 48:         ret = gpio_pin_write_logic(&(seg->
      +                          segment_pins[3]), (number>>3) & 0x01);
  4453  002BBC  0E03               	movlw	3
  4454  002BBE  2418               	addwf	seven_segement_write_number@seg^0,w,c
  4455  002BC0  6E0E               	movwf	gpio_pin_write_logic@_pin_config^0,c
  4456  002BC2  0E00               	movlw	0
  4457  002BC4  2019               	addwfc	(seven_segement_write_number@seg+1)^0,w,c
  4458  002BC6  6E0F               	movwf	(gpio_pin_write_logic@_pin_config+1)^0,c
  4459  002BC8  381A               	swapf	seven_segement_write_number@number^0,w,c
  4460  002BCA  46E8               	rlncf	wreg,f,c
  4461  002BCC  0B1F               	andlw	31
  4462  002BCE  0B01               	andlw	1
  4463  002BD0  6E10               	movwf	gpio_pin_write_logic@logic^0,c
  4464  002BD2  EC09  F013         	call	_gpio_pin_write_logic	;wreg free
  4465  002BD6  6E1B               	movwf	seven_segement_write_number@ret^0,c
  4466  002BD8                     l6311:
  4467                           
  4468                           ;ECU_Layer/7_Segment/ecu_seven_segment.c: 50:     return ret;
  4469  002BD8  501B               	movf	seven_segement_write_number@ret^0,w,c
  4470  002BDA  0012               	return		;funcret
  4471  002BDC                     __end_of_seven_segement_write_number:
  4472                           	callstack 0
  4473                           
  4474 ;; *************** function _gpio_pin_write_logic *****************
  4475 ;; Defined at:
  4476 ;;		line 75 in file "MCAL_Layer/GPIO/hal_gpio.c"
  4477 ;; Parameters:    Size  Location     Type
  4478 ;;  _pin_config     2   13[COMRAM] PTR const struct .
  4479 ;;		 -> seg.segment_pins(4), seg(5), relay_turn_off@pin_obj(1), relay_turn_on@pin_obj(1), 
  4480 ;;		 -> relay_initialize@pin_obj(1), led_turn_off@pin_obj(1), led_turn_on@pin_obj(1), led_initialize@pin_obj(1), 
  4481 ;;  logic           1   15[COMRAM] enum E2933
  4482 ;; Auto vars:     Size  Location     Type
  4483 ;;  ret             1   22[COMRAM] unsigned char 
  4484 ;; Return value:  Size  Location     Type
  4485 ;;                  1    wreg      unsigned char 
  4486 ;; Registers used:
  4487 ;;		wreg, fsr2l, fsr2h, status,2, status,0, prodl, prodh
  4488 ;; Tracked objects:
  4489 ;;		On entry : 0/0
  4490 ;;		On exit  : 0/0
  4491 ;;		Unchanged: 0/0
  4492 ;; Data sizes:     COMRAM   BANK0   BANK1   BANK2   BANK3   BANK4   BANK5   BANK6   BANK7   BANK8   BANK9  BANK10  BANK1
      +1  BANK12  BANK13  BANK14  BANK15
  4493 ;;      Params:         3       0       0       0       0       0       0       0       0       0       0       0       
      +0       0       0       0       0
  4494 ;;      Locals:         1       0       0       0       0       0       0       0       0       0       0       0       
      +0       0       0       0       0
  4495 ;;      Temps:          6       0       0       0       0       0       0       0       0       0       0       0       
      +0       0       0       0       0
  4496 ;;      Totals:        10       0       0       0       0       0       0       0       0       0       0       0       
      +0       0       0       0       0
  4497 ;;Total ram usage:       10 bytes
  4498 ;; Hardware stack levels used: 1
  4499 ;; Hardware stack levels required when called: 4
  4500 ;; This function calls:
  4501 ;;		Nothing
  4502 ;; This function is called by:
  4503 ;;		_seven_segement_write_number
  4504 ;;		_gpio_pin_intialize
  4505 ;;		_lcd_4bit_send_command
  4506 ;;		_lcd_4bit_send_char_data
  4507 ;;		_lcd_8bit_send_command
  4508 ;;		_lcd_8bit_send_char_data
  4509 ;;		_lcd_send_4bits
  4510 ;;		_lcd_4bit_send_enable_signal
  4511 ;;		_lcd_8bit_send_enable_signal
  4512 ;;		_dc_motor_move_right
  4513 ;;		_dc_motor_move_left
  4514 ;;		_dc_motor_stop
  4515 ;;		_keypad_get_value
  4516 ;;		_led_turn_on
  4517 ;;		_led_turn_off
  4518 ;;		_relay_turn_on
  4519 ;;		_relay_turn_off
  4520 ;;		_Ultrasonic_Calculate_Distance
  4521 ;; This function uses a non-reentrant model
  4522 ;;
  4523                           
  4524                           	psect	text17
  4525  002612                     __ptext17:
  4526                           	callstack 0
  4527  002612                     _gpio_pin_write_logic:
  4528                           	callstack 23
  4529  002612                     
  4530                           ;MCAL_Layer/GPIO/hal_gpio.c: 76:     Std_ReturnType ret = (Std_ReturnType)0x01;
  4531  002612  0E01               	movlw	1
  4532  002614  6E17               	movwf	gpio_pin_write_logic@ret^0,c
  4533  002616                     
  4534                           ;MCAL_Layer/GPIO/hal_gpio.c: 77:     if(((void*)0) == _pin_config || _pin_config->pin > 
      +                          8 -1){
  4535  002616  500E               	movf	gpio_pin_write_logic@_pin_config^0,w,c
  4536  002618  100F               	iorwf	(gpio_pin_write_logic@_pin_config+1)^0,w,c
  4537  00261A  B4D8               	btfsc	status,2,c
  4538  00261C  EF12  F013         	goto	u4341
  4539  002620  EF14  F013         	goto	u4340
  4540  002624                     u4341:
  4541  002624  EF25  F013         	goto	l5719
  4542  002628                     u4340:
  4543  002628  C00E  FFD9         	movff	gpio_pin_write_logic@_pin_config,fsr2l
  4544  00262C  C00F  FFDA         	movff	gpio_pin_write_logic@_pin_config+1,fsr2h
  4545  002630  30DF               	rrcf	223,w,c
  4546  002632  32E8               	rrcf	wreg,f,c
  4547  002634  32E8               	rrcf	wreg,f,c
  4548  002636  0B07               	andlw	7
  4549  002638  6E11               	movwf	??_gpio_pin_write_logic^0,c
  4550  00263A  0E07               	movlw	7
  4551  00263C  6411               	cpfsgt	??_gpio_pin_write_logic^0,c
  4552  00263E  EF23  F013         	goto	u4351
  4553  002642  EF25  F013         	goto	u4350
  4554  002646                     u4351:
  4555  002646  EF88  F013         	goto	l5727
  4556  00264A                     u4350:
  4557  00264A                     l5719:
  4558                           
  4559                           ;MCAL_Layer/GPIO/hal_gpio.c: 78:         ret = (Std_ReturnType)0x00;
  4560  00264A  0E00               	movlw	0
  4561  00264C  6E17               	movwf	gpio_pin_write_logic@ret^0,c
  4562                           
  4563                           ;MCAL_Layer/GPIO/hal_gpio.c: 79:     }
  4564  00264E  EF9D  F013         	goto	l5729
  4565  002652                     l5721:
  4566                           
  4567                           ;MCAL_Layer/GPIO/hal_gpio.c: 83:                 (*lat_registers[_pin_config->port] &= ~
      +                          ((uint8)1 << _pin_config->pin));
  4568  002652  C00E  FFD9         	movff	gpio_pin_write_logic@_pin_config,fsr2l
  4569  002656  C00F  FFDA         	movff	gpio_pin_write_logic@_pin_config+1,fsr2h
  4570  00265A  30DF               	rrcf	223,w,c
  4571  00265C  32E8               	rrcf	wreg,f,c
  4572  00265E  32E8               	rrcf	wreg,f,c
  4573  002660  0B07               	andlw	7
  4574  002662  6E11               	movwf	??_gpio_pin_write_logic^0,c
  4575  002664  0E01               	movlw	1
  4576  002666  6E12               	movwf	(??_gpio_pin_write_logic+1)^0,c
  4577  002668  2A11               	incf	??_gpio_pin_write_logic^0,f,c
  4578  00266A  EF39  F013         	goto	u4364
  4579  00266E                     u4365:
  4580  00266E  90D8               	bcf	status,0,c
  4581  002670  3612               	rlcf	(??_gpio_pin_write_logic+1)^0,f,c
  4582  002672                     u4364:
  4583  002672  2E11               	decfsz	??_gpio_pin_write_logic^0,f,c
  4584  002674  EF37  F013         	goto	u4365
  4585  002678  5012               	movf	(??_gpio_pin_write_logic+1)^0,w,c
  4586  00267A  0AFF               	xorlw	255
  4587  00267C  6E13               	movwf	(??_gpio_pin_write_logic+2)^0,c
  4588  00267E  C00E  FFD9         	movff	gpio_pin_write_logic@_pin_config,fsr2l
  4589  002682  C00F  FFDA         	movff	gpio_pin_write_logic@_pin_config+1,fsr2h
  4590  002686  50DF               	movf	223,w,c
  4591  002688  0B07               	andlw	7
  4592  00268A  6E14               	movwf	(??_gpio_pin_write_logic+3)^0,c
  4593  00268C  5014               	movf	(??_gpio_pin_write_logic+3)^0,w,c
  4594  00268E  0D02               	mullw	2
  4595  002690  0E8A               	movlw	low _lat_registers
  4596  002692  24F3               	addwf	243,w,c
  4597  002694  6ED9               	movwf	fsr2l,c
  4598  002696  0E00               	movlw	high _lat_registers
  4599  002698  20F4               	addwfc	prodh,w,c
  4600  00269A  6EDA               	movwf	fsr2h,c
  4601  00269C  CFDE F015          	movff	postinc2,??_gpio_pin_write_logic+4
  4602  0026A0  CFDD F016          	movff	postdec2,??_gpio_pin_write_logic+5
  4603  0026A4  C015  FFD9         	movff	??_gpio_pin_write_logic+4,fsr2l
  4604  0026A8  C016  FFDA         	movff	??_gpio_pin_write_logic+5,fsr2h
  4605  0026AC  5013               	movf	(??_gpio_pin_write_logic+2)^0,w,c
  4606  0026AE  16DF               	andwf	indf2,f,c
  4607                           
  4608                           ;MCAL_Layer/GPIO/hal_gpio.c: 84:                 break;
  4609  0026B0  EF9D  F013         	goto	l5729
  4610  0026B4                     l5723:
  4611                           
  4612                           ;MCAL_Layer/GPIO/hal_gpio.c: 86:                 (*lat_registers[_pin_config->port] |= (
      +                          (uint8)1 << _pin_config->pin));
  4613  0026B4  C00E  FFD9         	movff	gpio_pin_write_logic@_pin_config,fsr2l
  4614  0026B8  C00F  FFDA         	movff	gpio_pin_write_logic@_pin_config+1,fsr2h
  4615  0026BC  30DF               	rrcf	223,w,c
  4616  0026BE  32E8               	rrcf	wreg,f,c
  4617  0026C0  32E8               	rrcf	wreg,f,c
  4618  0026C2  0B07               	andlw	7
  4619  0026C4  6E11               	movwf	??_gpio_pin_write_logic^0,c
  4620  0026C6  0E01               	movlw	1
  4621  0026C8  6E12               	movwf	(??_gpio_pin_write_logic+1)^0,c
  4622  0026CA  2A11               	incf	??_gpio_pin_write_logic^0,f,c
  4623  0026CC  EF6A  F013         	goto	u4374
  4624  0026D0                     u4375:
  4625  0026D0  90D8               	bcf	status,0,c
  4626  0026D2  3612               	rlcf	(??_gpio_pin_write_logic+1)^0,f,c
  4627  0026D4                     u4374:
  4628  0026D4  2E11               	decfsz	??_gpio_pin_write_logic^0,f,c
  4629  0026D6  EF68  F013         	goto	u4375
  4630  0026DA  C00E  FFD9         	movff	gpio_pin_write_logic@_pin_config,fsr2l
  4631  0026DE  C00F  FFDA         	movff	gpio_pin_write_logic@_pin_config+1,fsr2h
  4632  0026E2  50DF               	movf	223,w,c
  4633  0026E4  0B07               	andlw	7
  4634  0026E6  6E13               	movwf	(??_gpio_pin_write_logic+2)^0,c
  4635  0026E8  5013               	movf	(??_gpio_pin_write_logic+2)^0,w,c
  4636  0026EA  0D02               	mullw	2
  4637  0026EC  0E8A               	movlw	low _lat_registers
  4638  0026EE  24F3               	addwf	243,w,c
  4639  0026F0  6ED9               	movwf	fsr2l,c
  4640  0026F2  0E00               	movlw	high _lat_registers
  4641  0026F4  20F4               	addwfc	prodh,w,c
  4642  0026F6  6EDA               	movwf	fsr2h,c
  4643  0026F8  CFDE F014          	movff	postinc2,??_gpio_pin_write_logic+3
  4644  0026FC  CFDD F015          	movff	postdec2,??_gpio_pin_write_logic+4
  4645  002700  C014  FFD9         	movff	??_gpio_pin_write_logic+3,fsr2l
  4646  002704  C015  FFDA         	movff	??_gpio_pin_write_logic+4,fsr2h
  4647  002708  5012               	movf	(??_gpio_pin_write_logic+1)^0,w,c
  4648  00270A  12DF               	iorwf	indf2,f,c
  4649                           
  4650                           ;MCAL_Layer/GPIO/hal_gpio.c: 87:                 break;
  4651  00270C  EF9D  F013         	goto	l5729
  4652  002710                     l5727:
  4653  002710  5010               	movf	gpio_pin_write_logic@logic^0,w,c
  4654  002712  6E11               	movwf	??_gpio_pin_write_logic^0,c
  4655  002714  6A12               	clrf	(??_gpio_pin_write_logic+1)^0,c
  4656                           
  4657                           ; Switch on 2 bytes has been partitioned into a top level switch of size 1, and 1 sub-sw
      +                          itches
  4658                           ; Switch size 1, requested type "simple"
  4659                           ; Number of cases is 1, Range of values is 0 to 0
  4660                           ; switch strategies available:
  4661                           ; Name         Instructions Cycles
  4662                           ; simple_byte            4     3 (average)
  4663                           ;	Chosen strategy is simple_byte
  4664  002716  5012               	movf	(??_gpio_pin_write_logic+1)^0,w,c
  4665  002718  0A00               	xorlw	0	; case 0
  4666  00271A  B4D8               	btfsc	status,2,c
  4667  00271C  EF92  F013         	goto	l8907
  4668  002720  EF25  F013         	goto	l5719
  4669  002724                     l8907:
  4670                           
  4671                           ; Switch size 1, requested type "simple"
  4672                           ; Number of cases is 2, Range of values is 0 to 1
  4673                           ; switch strategies available:
  4674                           ; Name         Instructions Cycles
  4675                           ; simple_byte            7     4 (average)
  4676                           ;	Chosen strategy is simple_byte
  4677  002724  5011               	movf	??_gpio_pin_write_logic^0,w,c
  4678  002726  0A00               	xorlw	0	; case 0
  4679  002728  B4D8               	btfsc	status,2,c
  4680  00272A  EF29  F013         	goto	l5721
  4681  00272E  0A01               	xorlw	1	; case 1
  4682  002730  B4D8               	btfsc	status,2,c
  4683  002732  EF5A  F013         	goto	l5723
  4684  002736  EF25  F013         	goto	l5719
  4685  00273A                     l5729:
  4686                           
  4687                           ;MCAL_Layer/GPIO/hal_gpio.c: 91:     return ret;
  4688  00273A  5017               	movf	gpio_pin_write_logic@ret^0,w,c
  4689  00273C  0012               	return		;funcret
  4690  00273E                     __end_of_gpio_pin_write_logic:
  4691                           	callstack 0
  4692                           
  4693 ;; *************** function _gpio_port_write_logic *****************
  4694 ;; Defined at:
  4695 ;;		line 208 in file "MCAL_Layer/GPIO/hal_gpio.c"
  4696 ;; Parameters:    Size  Location     Type
  4697 ;;  port            1    wreg     enum E2951
  4698 ;;  logic           1   13[COMRAM] unsigned char 
  4699 ;; Auto vars:     Size  Location     Type
  4700 ;;  port            1   17[COMRAM] enum E2951
  4701 ;;  ret             1   16[COMRAM] unsigned char 
  4702 ;; Return value:  Size  Location     Type
  4703 ;;                  1    wreg      unsigned char 
  4704 ;; Registers used:
  4705 ;;		wreg, fsr2l, fsr2h, status,2, status,0, prodl, prodh
  4706 ;; Tracked objects:
  4707 ;;		On entry : 0/0
  4708 ;;		On exit  : 0/0
  4709 ;;		Unchanged: 0/0
  4710 ;; Data sizes:     COMRAM   BANK0   BANK1   BANK2   BANK3   BANK4   BANK5   BANK6   BANK7   BANK8   BANK9  BANK10  BANK1
      +1  BANK12  BANK13  BANK14  BANK15
  4711 ;;      Params:         1       0       0       0       0       0       0       0       0       0       0       0       
      +0       0       0       0       0
  4712 ;;      Locals:         2       0       0       0       0       0       0       0       0       0       0       0       
      +0       0       0       0       0
  4713 ;;      Temps:          2       0       0       0       0       0       0       0       0       0       0       0       
      +0       0       0       0       0
  4714 ;;      Totals:         5       0       0       0       0       0       0       0       0       0       0       0       
      +0       0       0       0       0
  4715 ;;Total ram usage:        5 bytes
  4716 ;; Hardware stack levels used: 1
  4717 ;; Hardware stack levels required when called: 4
  4718 ;; This function calls:
  4719 ;;		Nothing
  4720 ;; This function is called by:
  4721 ;;		_SegmentsUpdate
  4722 ;; This function uses a non-reentrant model
  4723 ;;
  4724                           
  4725                           	psect	text18
  4726  002DEE                     __ptext18:
  4727                           	callstack 0
  4728  002DEE                     _gpio_port_write_logic:
  4729                           	callstack 25
  4730                           
  4731                           ;incstack = 0
  4732                           ;gpio_port_write_logic@port stored from wreg
  4733  002DEE  6E12               	movwf	gpio_port_write_logic@port^0,c
  4734  002DF0                     
  4735                           ;MCAL_Layer/GPIO/hal_gpio.c: 209:     Std_ReturnType ret = (Std_ReturnType)0x01;
  4736  002DF0  0E01               	movlw	1
  4737  002DF2  6E11               	movwf	gpio_port_write_logic@ret^0,c
  4738  002DF4                     
  4739                           ;MCAL_Layer/GPIO/hal_gpio.c: 210:     if(port > 5 -1){
  4740  002DF4  0E04               	movlw	4
  4741  002DF6  6412               	cpfsgt	gpio_port_write_logic@port^0,c
  4742  002DF8  EF00  F017         	goto	u5451
  4743  002DFC  EF02  F017         	goto	u5450
  4744  002E00                     u5451:
  4745  002E00  EF06  F017         	goto	l6407
  4746  002E04                     u5450:
  4747  002E04                     
  4748                           ;MCAL_Layer/GPIO/hal_gpio.c: 211:         ret = (Std_ReturnType)0x00;
  4749  002E04  0E00               	movlw	0
  4750  002E06  6E11               	movwf	gpio_port_write_logic@ret^0,c
  4751                           
  4752                           ;MCAL_Layer/GPIO/hal_gpio.c: 212:     }
  4753  002E08  EF18  F017         	goto	l6409
  4754  002E0C                     l6407:
  4755                           
  4756                           ;MCAL_Layer/GPIO/hal_gpio.c: 214:         *lat_registers[port] = logic;
  4757  002E0C  5012               	movf	gpio_port_write_logic@port^0,w,c
  4758  002E0E  0D02               	mullw	2
  4759  002E10  0E8A               	movlw	low _lat_registers
  4760  002E12  24F3               	addwf	243,w,c
  4761  002E14  6ED9               	movwf	fsr2l,c
  4762  002E16  0E00               	movlw	high _lat_registers
  4763  002E18  20F4               	addwfc	prodh,w,c
  4764  002E1A  6EDA               	movwf	fsr2h,c
  4765  002E1C  CFDE F00F          	movff	postinc2,??_gpio_port_write_logic
  4766  002E20  CFDD F010          	movff	postdec2,??_gpio_port_write_logic+1
  4767  002E24  C00F  FFD9         	movff	??_gpio_port_write_logic,fsr2l
  4768  002E28  C010  FFDA         	movff	??_gpio_port_write_logic+1,fsr2h
  4769  002E2C  C00E  FFDF         	movff	gpio_port_write_logic@logic,indf2
  4770  002E30                     l6409:
  4771                           
  4772                           ;MCAL_Layer/GPIO/hal_gpio.c: 216:     return ret;
  4773  002E30  5011               	movf	gpio_port_write_logic@ret^0,w,c
  4774  002E32  0012               	return		;funcret
  4775  002E34                     __end_of_gpio_port_write_logic:
  4776                           	callstack 0
  4777                           
  4778 ;; *************** function ___awmod *****************
  4779 ;; Defined at:
  4780 ;;		line 7 in file "C:\Program Files\Microchip\xc8\v2.36\pic\sources\c99\common\awmod.c"
  4781 ;; Parameters:    Size  Location     Type
  4782 ;;  dividend        2   13[COMRAM] int 
  4783 ;;  divisor         2   15[COMRAM] int 
  4784 ;; Auto vars:     Size  Location     Type
  4785 ;;  sign            1   18[COMRAM] unsigned char 
  4786 ;;  counter         1   17[COMRAM] unsigned char 
  4787 ;; Return value:  Size  Location     Type
  4788 ;;                  2   13[COMRAM] int 
  4789 ;; Registers used:
  4790 ;;		wreg, status,2, status,0
  4791 ;; Tracked objects:
  4792 ;;		On entry : 0/0
  4793 ;;		On exit  : 0/0
  4794 ;;		Unchanged: 0/0
  4795 ;; Data sizes:     COMRAM   BANK0   BANK1   BANK2   BANK3   BANK4   BANK5   BANK6   BANK7   BANK8   BANK9  BANK10  BANK1
      +1  BANK12  BANK13  BANK14  BANK15
  4796 ;;      Params:         4       0       0       0       0       0       0       0       0       0       0       0       
      +0       0       0       0       0
  4797 ;;      Locals:         2       0       0       0       0       0       0       0       0       0       0       0       
      +0       0       0       0       0
  4798 ;;      Temps:          0       0       0       0       0       0       0       0       0       0       0       0       
      +0       0       0       0       0
  4799 ;;      Totals:         6       0       0       0       0       0       0       0       0       0       0       0       
      +0       0       0       0       0
  4800 ;;Total ram usage:        6 bytes
  4801 ;; Hardware stack levels used: 1
  4802 ;; Hardware stack levels required when called: 4
  4803 ;; This function calls:
  4804 ;;		Nothing
  4805 ;; This function is called by:
  4806 ;;		_SegmentsUpdate
  4807 ;; This function uses a non-reentrant model
  4808 ;;
  4809                           
  4810                           	psect	text19
  4811  002A98                     __ptext19:
  4812                           	callstack 0
  4813  002A98                     ___awmod:
  4814                           	callstack 25
  4815  002A98  0E00               	movlw	0
  4816  002A9A  6E13               	movwf	___awmod@sign^0,c
  4817  002A9C  BE0F               	btfsc	(___awmod@dividend+1)^0,7,c
  4818  002A9E  EF55  F015         	goto	u5530
  4819  002AA2  EF53  F015         	goto	u5531
  4820  002AA6                     u5531:
  4821  002AA6  EF5B  F015         	goto	l6489
  4822  002AAA                     u5530:
  4823  002AAA  6C0E               	negf	___awmod@dividend^0,c
  4824  002AAC  1E0F               	comf	(___awmod@dividend+1)^0,f,c
  4825  002AAE  B0D8               	btfsc	status,0,c
  4826  002AB0  2A0F               	incf	(___awmod@dividend+1)^0,f,c
  4827  002AB2  0E01               	movlw	1
  4828  002AB4  6E13               	movwf	___awmod@sign^0,c
  4829  002AB6                     l6489:
  4830  002AB6  BE11               	btfsc	(___awmod@divisor+1)^0,7,c
  4831  002AB8  EF62  F015         	goto	u5540
  4832  002ABC  EF60  F015         	goto	u5541
  4833  002AC0                     u5541:
  4834  002AC0  EF66  F015         	goto	l6493
  4835  002AC4                     u5540:
  4836  002AC4  6C10               	negf	___awmod@divisor^0,c
  4837  002AC6  1E11               	comf	(___awmod@divisor+1)^0,f,c
  4838  002AC8  B0D8               	btfsc	status,0,c
  4839  002ACA  2A11               	incf	(___awmod@divisor+1)^0,f,c
  4840  002ACC                     l6493:
  4841  002ACC  5010               	movf	___awmod@divisor^0,w,c
  4842  002ACE  1011               	iorwf	(___awmod@divisor+1)^0,w,c
  4843  002AD0  B4D8               	btfsc	status,2,c
  4844  002AD2  EF6D  F015         	goto	u5551
  4845  002AD6  EF6F  F015         	goto	u5550
  4846  002ADA                     u5551:
  4847  002ADA  EF93  F015         	goto	l6509
  4848  002ADE                     u5550:
  4849  002ADE  0E01               	movlw	1
  4850  002AE0  6E12               	movwf	___awmod@counter^0,c
  4851  002AE2  EF77  F015         	goto	l6499
  4852  002AE6                     l6497:
  4853  002AE6  90D8               	bcf	status,0,c
  4854  002AE8  3610               	rlcf	___awmod@divisor^0,f,c
  4855  002AEA  3611               	rlcf	(___awmod@divisor+1)^0,f,c
  4856  002AEC  2A12               	incf	___awmod@counter^0,f,c
  4857  002AEE                     l6499:
  4858  002AEE  AE11               	btfss	(___awmod@divisor+1)^0,7,c
  4859  002AF0  EF7C  F015         	goto	u5561
  4860  002AF4  EF7E  F015         	goto	u5560
  4861  002AF8                     u5561:
  4862  002AF8  EF73  F015         	goto	l6497
  4863  002AFC                     u5560:
  4864  002AFC                     l6501:
  4865  002AFC  5010               	movf	___awmod@divisor^0,w,c
  4866  002AFE  5C0E               	subwf	___awmod@dividend^0,w,c
  4867  002B00  5011               	movf	(___awmod@divisor+1)^0,w,c
  4868  002B02  580F               	subwfb	(___awmod@dividend+1)^0,w,c
  4869  002B04  A0D8               	btfss	status,0,c
  4870  002B06  EF87  F015         	goto	u5571
  4871  002B0A  EF89  F015         	goto	u5570
  4872  002B0E                     u5571:
  4873  002B0E  EF8D  F015         	goto	l6505
  4874  002B12                     u5570:
  4875  002B12  5010               	movf	___awmod@divisor^0,w,c
  4876  002B14  5E0E               	subwf	___awmod@dividend^0,f,c
  4877  002B16  5011               	movf	(___awmod@divisor+1)^0,w,c
  4878  002B18  5A0F               	subwfb	(___awmod@dividend+1)^0,f,c
  4879  002B1A                     l6505:
  4880  002B1A  90D8               	bcf	status,0,c
  4881  002B1C  3211               	rrcf	(___awmod@divisor+1)^0,f,c
  4882  002B1E  3210               	rrcf	___awmod@divisor^0,f,c
  4883  002B20  2E12               	decfsz	___awmod@counter^0,f,c
  4884  002B22  EF7E  F015         	goto	l6501
  4885  002B26                     l6509:
  4886  002B26  5013               	movf	___awmod@sign^0,w,c
  4887  002B28  B4D8               	btfsc	status,2,c
  4888  002B2A  EF99  F015         	goto	u5581
  4889  002B2E  EF9B  F015         	goto	u5580
  4890  002B32                     u5581:
  4891  002B32  EF9F  F015         	goto	l6513
  4892  002B36                     u5580:
  4893  002B36  6C0E               	negf	___awmod@dividend^0,c
  4894  002B38  1E0F               	comf	(___awmod@dividend+1)^0,f,c
  4895  002B3A  B0D8               	btfsc	status,0,c
  4896  002B3C  2A0F               	incf	(___awmod@dividend+1)^0,f,c
  4897  002B3E                     l6513:
  4898  002B3E  C00E  F00E         	movff	___awmod@dividend,?___awmod
  4899  002B42  C00F  F00F         	movff	___awmod@dividend+1,?___awmod+1
  4900  002B46  0012               	return		;funcret
  4901  002B48                     __end_of___awmod:
  4902                           	callstack 0
  4903                           
  4904 ;; *************** function ___awdiv *****************
  4905 ;; Defined at:
  4906 ;;		line 7 in file "C:\Program Files\Microchip\xc8\v2.36\pic\sources\c99\common\awdiv.c"
  4907 ;; Parameters:    Size  Location     Type
  4908 ;;  dividend        2   13[COMRAM] int 
  4909 ;;  divisor         2   15[COMRAM] int 
  4910 ;; Auto vars:     Size  Location     Type
  4911 ;;  quotient        2   19[COMRAM] int 
  4912 ;;  sign            1   18[COMRAM] unsigned char 
  4913 ;;  counter         1   17[COMRAM] unsigned char 
  4914 ;; Return value:  Size  Location     Type
  4915 ;;                  2   13[COMRAM] int 
  4916 ;; Registers used:
  4917 ;;		wreg, status,2, status,0
  4918 ;; Tracked objects:
  4919 ;;		On entry : 0/0
  4920 ;;		On exit  : 0/0
  4921 ;;		Unchanged: 0/0
  4922 ;; Data sizes:     COMRAM   BANK0   BANK1   BANK2   BANK3   BANK4   BANK5   BANK6   BANK7   BANK8   BANK9  BANK10  BANK1
      +1  BANK12  BANK13  BANK14  BANK15
  4923 ;;      Params:         4       0       0       0       0       0       0       0       0       0       0       0       
      +0       0       0       0       0
  4924 ;;      Locals:         4       0       0       0       0       0       0       0       0       0       0       0       
      +0       0       0       0       0
  4925 ;;      Temps:          0       0       0       0       0       0       0       0       0       0       0       0       
      +0       0       0       0       0
  4926 ;;      Totals:         8       0       0       0       0       0       0       0       0       0       0       0       
      +0       0       0       0       0
  4927 ;;Total ram usage:        8 bytes
  4928 ;; Hardware stack levels used: 1
  4929 ;; Hardware stack levels required when called: 4
  4930 ;; This function calls:
  4931 ;;		Nothing
  4932 ;; This function is called by:
  4933 ;;		_SegmentsUpdate
  4934 ;; This function uses a non-reentrant model
  4935 ;;
  4936                           
  4937                           	psect	text20
  4938  002920                     __ptext20:
  4939                           	callstack 0
  4940  002920                     ___awdiv:
  4941                           	callstack 25
  4942  002920  0E00               	movlw	0
  4943  002922  6E13               	movwf	___awdiv@sign^0,c
  4944  002924  BE11               	btfsc	(___awdiv@divisor+1)^0,7,c
  4945  002926  EF99  F014         	goto	u5470
  4946  00292A  EF97  F014         	goto	u5471
  4947  00292E                     u5471:
  4948  00292E  EF9F  F014         	goto	l6445
  4949  002932                     u5470:
  4950  002932  6C10               	negf	___awdiv@divisor^0,c
  4951  002934  1E11               	comf	(___awdiv@divisor+1)^0,f,c
  4952  002936  B0D8               	btfsc	status,0,c
  4953  002938  2A11               	incf	(___awdiv@divisor+1)^0,f,c
  4954  00293A  0E01               	movlw	1
  4955  00293C  6E13               	movwf	___awdiv@sign^0,c
  4956  00293E                     l6445:
  4957  00293E  BE0F               	btfsc	(___awdiv@dividend+1)^0,7,c
  4958  002940  EFA6  F014         	goto	u5480
  4959  002944  EFA4  F014         	goto	u5481
  4960  002948                     u5481:
  4961  002948  EFAC  F014         	goto	l6451
  4962  00294C                     u5480:
  4963  00294C  6C0E               	negf	___awdiv@dividend^0,c
  4964  00294E  1E0F               	comf	(___awdiv@dividend+1)^0,f,c
  4965  002950  B0D8               	btfsc	status,0,c
  4966  002952  2A0F               	incf	(___awdiv@dividend+1)^0,f,c
  4967  002954  0E01               	movlw	1
  4968  002956  1A13               	xorwf	___awdiv@sign^0,f,c
  4969  002958                     l6451:
  4970  002958  0E00               	movlw	0
  4971  00295A  6E15               	movwf	(___awdiv@quotient+1)^0,c
  4972  00295C  0E00               	movlw	0
  4973  00295E  6E14               	movwf	___awdiv@quotient^0,c
  4974  002960  5010               	movf	___awdiv@divisor^0,w,c
  4975  002962  1011               	iorwf	(___awdiv@divisor+1)^0,w,c
  4976  002964  B4D8               	btfsc	status,2,c
  4977  002966  EFB7  F014         	goto	u5491
  4978  00296A  EFB9  F014         	goto	u5490
  4979  00296E                     u5491:
  4980  00296E  EFE1  F014         	goto	l6473
  4981  002972                     u5490:
  4982  002972  0E01               	movlw	1
  4983  002974  6E12               	movwf	___awdiv@counter^0,c
  4984  002976  EFC1  F014         	goto	l6459
  4985  00297A                     l6457:
  4986  00297A  90D8               	bcf	status,0,c
  4987  00297C  3610               	rlcf	___awdiv@divisor^0,f,c
  4988  00297E  3611               	rlcf	(___awdiv@divisor+1)^0,f,c
  4989  002980  2A12               	incf	___awdiv@counter^0,f,c
  4990  002982                     l6459:
  4991  002982  AE11               	btfss	(___awdiv@divisor+1)^0,7,c
  4992  002984  EFC6  F014         	goto	u5501
  4993  002988  EFC8  F014         	goto	u5500
  4994  00298C                     u5501:
  4995  00298C  EFBD  F014         	goto	l6457
  4996  002990                     u5500:
  4997  002990                     l6461:
  4998  002990  90D8               	bcf	status,0,c
  4999  002992  3614               	rlcf	___awdiv@quotient^0,f,c
  5000  002994  3615               	rlcf	(___awdiv@quotient+1)^0,f,c
  5001  002996  5010               	movf	___awdiv@divisor^0,w,c
  5002  002998  5C0E               	subwf	___awdiv@dividend^0,w,c
  5003  00299A  5011               	movf	(___awdiv@divisor+1)^0,w,c
  5004  00299C  580F               	subwfb	(___awdiv@dividend+1)^0,w,c
  5005  00299E  A0D8               	btfss	status,0,c
  5006  0029A0  EFD4  F014         	goto	u5511
  5007  0029A4  EFD6  F014         	goto	u5510
  5008  0029A8                     u5511:
  5009  0029A8  EFDB  F014         	goto	l6469
  5010  0029AC                     u5510:
  5011  0029AC  5010               	movf	___awdiv@divisor^0,w,c
  5012  0029AE  5E0E               	subwf	___awdiv@dividend^0,f,c
  5013  0029B0  5011               	movf	(___awdiv@divisor+1)^0,w,c
  5014  0029B2  5A0F               	subwfb	(___awdiv@dividend+1)^0,f,c
  5015  0029B4  8014               	bsf	___awdiv@quotient^0,0,c
  5016  0029B6                     l6469:
  5017  0029B6  90D8               	bcf	status,0,c
  5018  0029B8  3211               	rrcf	(___awdiv@divisor+1)^0,f,c
  5019  0029BA  3210               	rrcf	___awdiv@divisor^0,f,c
  5020  0029BC  2E12               	decfsz	___awdiv@counter^0,f,c
  5021  0029BE  EFC8  F014         	goto	l6461
  5022  0029C2                     l6473:
  5023  0029C2  5013               	movf	___awdiv@sign^0,w,c
  5024  0029C4  B4D8               	btfsc	status,2,c
  5025  0029C6  EFE7  F014         	goto	u5521
  5026  0029CA  EFE9  F014         	goto	u5520
  5027  0029CE                     u5521:
  5028  0029CE  EFED  F014         	goto	l6477
  5029  0029D2                     u5520:
  5030  0029D2  6C14               	negf	___awdiv@quotient^0,c
  5031  0029D4  1E15               	comf	(___awdiv@quotient+1)^0,f,c
  5032  0029D6  B0D8               	btfsc	status,0,c
  5033  0029D8  2A15               	incf	(___awdiv@quotient+1)^0,f,c
  5034  0029DA                     l6477:
  5035  0029DA  C014  F00E         	movff	___awdiv@quotient,?___awdiv
  5036  0029DE  C015  F00F         	movff	___awdiv@quotient+1,?___awdiv+1
  5037  0029E2  0012               	return		;funcret
  5038  0029E4                     __end_of___awdiv:
  5039                           	callstack 0
  5040                           
  5041 ;; *************** function _InterruptManager *****************
  5042 ;; Defined at:
  5043 ;;		line 32 in file "MCAL_Layer/Interrupt/mcal_interrupt_manager.c"
  5044 ;; Parameters:    Size  Location     Type
  5045 ;;		None
  5046 ;; Auto vars:     Size  Location     Type
  5047 ;;		None
  5048 ;; Return value:  Size  Location     Type
  5049 ;;                  1    wreg      void 
  5050 ;; Registers used:
  5051 ;;		wreg, fsr2l, fsr2h, status,2, status,0, pcl, pclath, pclatu, tosl, cstack
  5052 ;; Tracked objects:
  5053 ;;		On entry : 0/0
  5054 ;;		On exit  : 0/0
  5055 ;;		Unchanged: 0/0
  5056 ;; Data sizes:     COMRAM   BANK0   BANK1   BANK2   BANK3   BANK4   BANK5   BANK6   BANK7   BANK8   BANK9  BANK10  BANK1
      +1  BANK12  BANK13  BANK14  BANK15
  5057 ;;      Params:         0       0       0       0       0       0       0       0       0       0       0       0       
      +0       0       0       0       0
  5058 ;;      Locals:         0       0       0       0       0       0       0       0       0       0       0       0       
      +0       0       0       0       0
  5059 ;;      Temps:          4       0       0       0       0       0       0       0       0       0       0       0       
      +0       0       0       0       0
  5060 ;;      Totals:         4       0       0       0       0       0       0       0       0       0       0       0       
      +0       0       0       0       0
  5061 ;;Total ram usage:        4 bytes
  5062 ;; Hardware stack levels used: 1
  5063 ;; Hardware stack levels required when called: 3
  5064 ;; This function calls:
  5065 ;;		_ADC_ISR
  5066 ;;		_CCP1_ISR
  5067 ;;		_CCP2_ISR
  5068 ;;		_EUSART_RX_ISR
  5069 ;;		_EUSART_TX_ISR
  5070 ;;		_INT0_ISR
  5071 ;;		_INT1_ISR
  5072 ;;		_INT2_ISR
  5073 ;;		_MSSP_I2C_BC_ISR
  5074 ;;		_MSSP_I2C_ISR
  5075 ;;		_MSSP_SPI_ISR
  5076 ;;		_RB4_ISR
  5077 ;;		_RB5_ISR
  5078 ;;		_RB6_ISR
  5079 ;;		_RB7_ISR
  5080 ;;		_TMR0_ISR
  5081 ;;		_TMR1_ISR
  5082 ;;		_TMR2_ISR
  5083 ;;		_TMR3_ISR
  5084 ;; This function is called by:
  5085 ;;		Interrupt level 2
  5086 ;; This function uses a non-reentrant model
  5087 ;;
  5088                           
  5089                           	psect	intcode
  5090  000008                     __pintcode:
  5091                           	callstack 0
  5092  000008                     _InterruptManager:
  5093                           	callstack 23
  5094                           
  5095                           ;incstack = 0
  5096  000008  8272               	bsf	int$flags,1,c	;set compiler interrupt flag (level 2)
  5097  00000A  EDDB  F00C         	call	int_func,f	;refresh shadow registers
  5098                           
  5099                           	psect	intcode_body
  5100  0019B6                     __pintcode_body:
  5101                           	callstack 23
  5102  0019B6                     int_func:
  5103                           	callstack 23
  5104  0019B6  0006               	pop		; remove dummy address from shadow register refresh
  5105  0019B8  CFFA F00A          	movff	pclath,??_InterruptManager
  5106  0019BC  CFFB F00B          	movff	pclatu,??_InterruptManager+1
  5107  0019C0  CFD9 F00C          	movff	fsr2l,??_InterruptManager+2
  5108  0019C4  CFDA F00D          	movff	fsr2h,??_InterruptManager+3
  5109  0019C8                     
  5110                           ;MCAL_Layer/Interrupt/mcal_interrupt_manager.c: 34:     if((1 == INTCONbits.INT0IE) && (
      +                          1 == INTCONbits.INT0IF)){
  5111  0019C8  A8F2               	btfss	242,4,c	;volatile
  5112  0019CA  EFE9  F00C         	goto	i2u678_41
  5113  0019CE  EFEB  F00C         	goto	i2u678_40
  5114  0019D2                     i2u678_41:
  5115  0019D2  EFF4  F00C         	goto	i2l1216
  5116  0019D6                     i2u678_40:
  5117  0019D6  A2F2               	btfss	242,1,c	;volatile
  5118  0019D8  EFF0  F00C         	goto	i2u679_41
  5119  0019DC  EFF2  F00C         	goto	i2u679_40
  5120  0019E0                     i2u679_41:
  5121  0019E0  EFF4  F00C         	goto	i2l1216
  5122  0019E4                     i2u679_40:
  5123  0019E4                     
  5124                           ;MCAL_Layer/Interrupt/mcal_interrupt_manager.c: 35:         INT0_ISR();
  5125  0019E4  ECF9  F017         	call	_INT0_ISR	;wreg free
  5126  0019E8                     i2l1216:
  5127                           
  5128                           ;MCAL_Layer/Interrupt/mcal_interrupt_manager.c: 38:     if((1 == INTCON3bits.INT1E) && (
      +                          1 == INTCON3bits.INT1F)){
  5129  0019E8  A6F0               	btfss	240,3,c	;volatile
  5130  0019EA  EFF9  F00C         	goto	i2u680_41
  5131  0019EE  EFFB  F00C         	goto	i2u680_40
  5132  0019F2                     i2u680_41:
  5133  0019F2  EF04  F00D         	goto	i2l1218
  5134  0019F6                     i2u680_40:
  5135  0019F6  A0F0               	btfss	240,0,c	;volatile
  5136  0019F8  EF00  F00D         	goto	i2u681_41
  5137  0019FC  EF02  F00D         	goto	i2u681_40
  5138  001A00                     i2u681_41:
  5139  001A00  EF04  F00D         	goto	i2l1218
  5140  001A04                     i2u681_40:
  5141  001A04                     
  5142                           ;MCAL_Layer/Interrupt/mcal_interrupt_manager.c: 39:         INT1_ISR();
  5143  001A04  ECF7  F017         	call	_INT1_ISR	;wreg free
  5144  001A08                     i2l1218:
  5145                           
  5146                           ;MCAL_Layer/Interrupt/mcal_interrupt_manager.c: 42:     if((1 == INTCON3bits.INT2IE) && 
      +                          (1 == INTCON3bits.INT2IF)){
  5147  001A08  A8F0               	btfss	240,4,c	;volatile
  5148  001A0A  EF09  F00D         	goto	i2u682_41
  5149  001A0E  EF0B  F00D         	goto	i2u682_40
  5150  001A12                     i2u682_41:
  5151  001A12  EF14  F00D         	goto	i2l1220
  5152  001A16                     i2u682_40:
  5153  001A16  A2F0               	btfss	240,1,c	;volatile
  5154  001A18  EF10  F00D         	goto	i2u683_41
  5155  001A1C  EF12  F00D         	goto	i2u683_40
  5156  001A20                     i2u683_41:
  5157  001A20  EF14  F00D         	goto	i2l1220
  5158  001A24                     i2u683_40:
  5159  001A24                     
  5160                           ;MCAL_Layer/Interrupt/mcal_interrupt_manager.c: 43:         INT2_ISR();
  5161  001A24  ECF5  F017         	call	_INT2_ISR	;wreg free
  5162  001A28                     i2l1220:
  5163                           
  5164                           ;MCAL_Layer/Interrupt/mcal_interrupt_manager.c: 49:     if((1 == INTCONbits.RBIE) && (1 
      +                          == INTCONbits.RBIF) &&
  5165  001A28  A6F2               	btfss	242,3,c	;volatile
  5166  001A2A  EF19  F00D         	goto	i2u684_41
  5167  001A2E  EF1B  F00D         	goto	i2u684_40
  5168  001A32                     i2u684_41:
  5169  001A32  EF36  F00D         	goto	i2l1222
  5170  001A36                     i2u684_40:
  5171  001A36  A0F2               	btfss	242,0,c	;volatile
  5172  001A38  EF20  F00D         	goto	i2u685_41
  5173  001A3C  EF22  F00D         	goto	i2u685_40
  5174  001A40                     i2u685_41:
  5175  001A40  EF36  F00D         	goto	i2l1222
  5176  001A44                     i2u685_40:
  5177  001A44  A881               	btfss	129,4,c	;volatile
  5178  001A46  EF27  F00D         	goto	i2u686_41
  5179  001A4A  EF29  F00D         	goto	i2u686_40
  5180  001A4E                     i2u686_41:
  5181  001A4E  EF36  F00D         	goto	i2l1222
  5182  001A52                     i2u686_40:
  5183  001A52  0471               	decf	_RB4_Flag^0,w,c	;volatile
  5184  001A54  A4D8               	btfss	status,2,c
  5185  001A56  EF2F  F00D         	goto	i2u687_41
  5186  001A5A  EF31  F00D         	goto	i2u687_40
  5187  001A5E                     i2u687_41:
  5188  001A5E  EF36  F00D         	goto	i2l1222
  5189  001A62                     i2u687_40:
  5190  001A62                     
  5191                           ;MCAL_Layer/Interrupt/mcal_interrupt_manager.c: 50:        (PORTBbits.RB4 == GPIO_HIGH) 
      +                          && (RB4_Flag == 1)){;MCAL_Layer/Interrupt/mcal_interrupt_manager.c: 51:         RB4_Flag
      +                           = 0;
  5192  001A62  0E00               	movlw	0
  5193  001A64  6E71               	movwf	_RB4_Flag^0,c	;volatile
  5194  001A66                     
  5195                           ;MCAL_Layer/Interrupt/mcal_interrupt_manager.c: 52:         RB4_ISR(0);
  5196  001A66  0E00               	movlw	0
  5197  001A68  ECBD  F017         	call	_RB4_ISR
  5198  001A6C                     i2l1222:
  5199                           
  5200                           ;MCAL_Layer/Interrupt/mcal_interrupt_manager.c: 55:     if((1 == INTCONbits.RBIE) && (1 
      +                          == INTCONbits.RBIF) &&
  5201  001A6C  A6F2               	btfss	242,3,c	;volatile
  5202  001A6E  EF3B  F00D         	goto	i2u688_41
  5203  001A72  EF3D  F00D         	goto	i2u688_40
  5204  001A76                     i2u688_41:
  5205  001A76  EF58  F00D         	goto	i2l1224
  5206  001A7A                     i2u688_40:
  5207  001A7A  A0F2               	btfss	242,0,c	;volatile
  5208  001A7C  EF42  F00D         	goto	i2u689_41
  5209  001A80  EF44  F00D         	goto	i2u689_40
  5210  001A84                     i2u689_41:
  5211  001A84  EF58  F00D         	goto	i2l1224
  5212  001A88                     i2u689_40:
  5213  001A88  B881               	btfsc	129,4,c	;volatile
  5214  001A8A  EF49  F00D         	goto	i2u690_41
  5215  001A8E  EF4B  F00D         	goto	i2u690_40
  5216  001A92                     i2u690_41:
  5217  001A92  EF58  F00D         	goto	i2l1224
  5218  001A96                     i2u690_40:
  5219  001A96  5071               	movf	_RB4_Flag^0,w,c	;volatile
  5220  001A98  A4D8               	btfss	status,2,c
  5221  001A9A  EF51  F00D         	goto	i2u691_41
  5222  001A9E  EF53  F00D         	goto	i2u691_40
  5223  001AA2                     i2u691_41:
  5224  001AA2  EF58  F00D         	goto	i2l1224
  5225  001AA6                     i2u691_40:
  5226  001AA6                     
  5227                           ;MCAL_Layer/Interrupt/mcal_interrupt_manager.c: 56:        (PORTBbits.RB4 == GPIO_LOW) &
      +                          & (RB4_Flag == 0)){;MCAL_Layer/Interrupt/mcal_interrupt_manager.c: 57:         RB4_Flag 
      +                          = 1;
  5228  001AA6  0E01               	movlw	1
  5229  001AA8  6E71               	movwf	_RB4_Flag^0,c	;volatile
  5230  001AAA                     
  5231                           ;MCAL_Layer/Interrupt/mcal_interrupt_manager.c: 58:         RB4_ISR(1);
  5232  001AAA  0E01               	movlw	1
  5233  001AAC  ECBD  F017         	call	_RB4_ISR
  5234  001AB0                     i2l1224:
  5235                           
  5236                           ;MCAL_Layer/Interrupt/mcal_interrupt_manager.c: 61:     if((1 == INTCONbits.RBIE) && (1 
      +                          == INTCONbits.RBIF) &&
  5237  001AB0  A6F2               	btfss	242,3,c	;volatile
  5238  001AB2  EF5D  F00D         	goto	i2u692_41
  5239  001AB6  EF5F  F00D         	goto	i2u692_40
  5240  001ABA                     i2u692_41:
  5241  001ABA  EF7A  F00D         	goto	i2l1226
  5242  001ABE                     i2u692_40:
  5243  001ABE  A0F2               	btfss	242,0,c	;volatile
  5244  001AC0  EF64  F00D         	goto	i2u693_41
  5245  001AC4  EF66  F00D         	goto	i2u693_40
  5246  001AC8                     i2u693_41:
  5247  001AC8  EF7A  F00D         	goto	i2l1226
  5248  001ACC                     i2u693_40:
  5249  001ACC  AA81               	btfss	129,5,c	;volatile
  5250  001ACE  EF6B  F00D         	goto	i2u694_41
  5251  001AD2  EF6D  F00D         	goto	i2u694_40
  5252  001AD6                     i2u694_41:
  5253  001AD6  EF7A  F00D         	goto	i2l1226
  5254  001ADA                     i2u694_40:
  5255  001ADA  0470               	decf	_RB5_Flag^0,w,c	;volatile
  5256  001ADC  A4D8               	btfss	status,2,c
  5257  001ADE  EF73  F00D         	goto	i2u695_41
  5258  001AE2  EF75  F00D         	goto	i2u695_40
  5259  001AE6                     i2u695_41:
  5260  001AE6  EF7A  F00D         	goto	i2l1226
  5261  001AEA                     i2u695_40:
  5262  001AEA                     
  5263                           ;MCAL_Layer/Interrupt/mcal_interrupt_manager.c: 62:        (PORTBbits.RB5 == GPIO_HIGH) 
      +                          && (RB5_Flag == 1)){;MCAL_Layer/Interrupt/mcal_interrupt_manager.c: 63:         RB5_Flag
      +                           = 0;
  5264  001AEA  0E00               	movlw	0
  5265  001AEC  6E70               	movwf	_RB5_Flag^0,c	;volatile
  5266  001AEE                     
  5267                           ;MCAL_Layer/Interrupt/mcal_interrupt_manager.c: 64:         RB5_ISR(0);
  5268  001AEE  0E00               	movlw	0
  5269  001AF0  ECB0  F017         	call	_RB5_ISR
  5270  001AF4                     i2l1226:
  5271                           
  5272                           ;MCAL_Layer/Interrupt/mcal_interrupt_manager.c: 67:     if((1 == INTCONbits.RBIE) && (1 
      +                          == INTCONbits.RBIF) &&
  5273  001AF4  A6F2               	btfss	242,3,c	;volatile
  5274  001AF6  EF7F  F00D         	goto	i2u696_41
  5275  001AFA  EF81  F00D         	goto	i2u696_40
  5276  001AFE                     i2u696_41:
  5277  001AFE  EF9C  F00D         	goto	i2l1228
  5278  001B02                     i2u696_40:
  5279  001B02  A0F2               	btfss	242,0,c	;volatile
  5280  001B04  EF86  F00D         	goto	i2u697_41
  5281  001B08  EF88  F00D         	goto	i2u697_40
  5282  001B0C                     i2u697_41:
  5283  001B0C  EF9C  F00D         	goto	i2l1228
  5284  001B10                     i2u697_40:
  5285  001B10  BA81               	btfsc	129,5,c	;volatile
  5286  001B12  EF8D  F00D         	goto	i2u698_41
  5287  001B16  EF8F  F00D         	goto	i2u698_40
  5288  001B1A                     i2u698_41:
  5289  001B1A  EF9C  F00D         	goto	i2l1228
  5290  001B1E                     i2u698_40:
  5291  001B1E  5070               	movf	_RB5_Flag^0,w,c	;volatile
  5292  001B20  A4D8               	btfss	status,2,c
  5293  001B22  EF95  F00D         	goto	i2u699_41
  5294  001B26  EF97  F00D         	goto	i2u699_40
  5295  001B2A                     i2u699_41:
  5296  001B2A  EF9C  F00D         	goto	i2l1228
  5297  001B2E                     i2u699_40:
  5298  001B2E                     
  5299                           ;MCAL_Layer/Interrupt/mcal_interrupt_manager.c: 68:        (PORTBbits.RB5 == GPIO_LOW) &
      +                          & (RB5_Flag == 0)){;MCAL_Layer/Interrupt/mcal_interrupt_manager.c: 69:         RB5_Flag 
      +                          = 1;
  5300  001B2E  0E01               	movlw	1
  5301  001B30  6E70               	movwf	_RB5_Flag^0,c	;volatile
  5302  001B32                     
  5303                           ;MCAL_Layer/Interrupt/mcal_interrupt_manager.c: 70:         RB5_ISR(1);
  5304  001B32  0E01               	movlw	1
  5305  001B34  ECB0  F017         	call	_RB5_ISR
  5306  001B38                     i2l1228:
  5307                           
  5308                           ;MCAL_Layer/Interrupt/mcal_interrupt_manager.c: 73:     if((1 == INTCONbits.RBIE) && (1 
      +                          == INTCONbits.RBIF) &&
  5309  001B38  A6F2               	btfss	242,3,c	;volatile
  5310  001B3A  EFA1  F00D         	goto	i2u700_41
  5311  001B3E  EFA3  F00D         	goto	i2u700_40
  5312  001B42                     i2u700_41:
  5313  001B42  EFBE  F00D         	goto	i2l1230
  5314  001B46                     i2u700_40:
  5315  001B46  A0F2               	btfss	242,0,c	;volatile
  5316  001B48  EFA8  F00D         	goto	i2u701_41
  5317  001B4C  EFAA  F00D         	goto	i2u701_40
  5318  001B50                     i2u701_41:
  5319  001B50  EFBE  F00D         	goto	i2l1230
  5320  001B54                     i2u701_40:
  5321  001B54  AC81               	btfss	129,6,c	;volatile
  5322  001B56  EFAF  F00D         	goto	i2u702_41
  5323  001B5A  EFB1  F00D         	goto	i2u702_40
  5324  001B5E                     i2u702_41:
  5325  001B5E  EFBE  F00D         	goto	i2l1230
  5326  001B62                     i2u702_40:
  5327  001B62  046F               	decf	_RB6_Flag^0,w,c	;volatile
  5328  001B64  A4D8               	btfss	status,2,c
  5329  001B66  EFB7  F00D         	goto	i2u703_41
  5330  001B6A  EFB9  F00D         	goto	i2u703_40
  5331  001B6E                     i2u703_41:
  5332  001B6E  EFBE  F00D         	goto	i2l1230
  5333  001B72                     i2u703_40:
  5334  001B72                     
  5335                           ;MCAL_Layer/Interrupt/mcal_interrupt_manager.c: 74:        (PORTBbits.RB6 == GPIO_HIGH) 
      +                          && (RB6_Flag == 1)){;MCAL_Layer/Interrupt/mcal_interrupt_manager.c: 75:         RB6_Flag
      +                           = 0;
  5336  001B72  0E00               	movlw	0
  5337  001B74  6E6F               	movwf	_RB6_Flag^0,c	;volatile
  5338  001B76                     
  5339                           ;MCAL_Layer/Interrupt/mcal_interrupt_manager.c: 76:         RB6_ISR(0);
  5340  001B76  0E00               	movlw	0
  5341  001B78  ECA3  F017         	call	_RB6_ISR
  5342  001B7C                     i2l1230:
  5343                           
  5344                           ;MCAL_Layer/Interrupt/mcal_interrupt_manager.c: 79:     if((1 == INTCONbits.RBIE) && (1 
      +                          == INTCONbits.RBIF) &&
  5345  001B7C  A6F2               	btfss	242,3,c	;volatile
  5346  001B7E  EFC3  F00D         	goto	i2u704_41
  5347  001B82  EFC5  F00D         	goto	i2u704_40
  5348  001B86                     i2u704_41:
  5349  001B86  EFE0  F00D         	goto	i2l1232
  5350  001B8A                     i2u704_40:
  5351  001B8A  A0F2               	btfss	242,0,c	;volatile
  5352  001B8C  EFCA  F00D         	goto	i2u705_41
  5353  001B90  EFCC  F00D         	goto	i2u705_40
  5354  001B94                     i2u705_41:
  5355  001B94  EFE0  F00D         	goto	i2l1232
  5356  001B98                     i2u705_40:
  5357  001B98  BC81               	btfsc	129,6,c	;volatile
  5358  001B9A  EFD1  F00D         	goto	i2u706_41
  5359  001B9E  EFD3  F00D         	goto	i2u706_40
  5360  001BA2                     i2u706_41:
  5361  001BA2  EFE0  F00D         	goto	i2l1232
  5362  001BA6                     i2u706_40:
  5363  001BA6  506F               	movf	_RB6_Flag^0,w,c	;volatile
  5364  001BA8  A4D8               	btfss	status,2,c
  5365  001BAA  EFD9  F00D         	goto	i2u707_41
  5366  001BAE  EFDB  F00D         	goto	i2u707_40
  5367  001BB2                     i2u707_41:
  5368  001BB2  EFE0  F00D         	goto	i2l1232
  5369  001BB6                     i2u707_40:
  5370  001BB6                     
  5371                           ;MCAL_Layer/Interrupt/mcal_interrupt_manager.c: 80:        (PORTBbits.RB6 == GPIO_LOW) &
      +                          & (RB6_Flag == 0)){;MCAL_Layer/Interrupt/mcal_interrupt_manager.c: 81:         RB6_Flag 
      +                          = 1;
  5372  001BB6  0E01               	movlw	1
  5373  001BB8  6E6F               	movwf	_RB6_Flag^0,c	;volatile
  5374  001BBA                     
  5375                           ;MCAL_Layer/Interrupt/mcal_interrupt_manager.c: 82:         RB6_ISR(1);
  5376  001BBA  0E01               	movlw	1
  5377  001BBC  ECA3  F017         	call	_RB6_ISR
  5378  001BC0                     i2l1232:
  5379                           
  5380                           ;MCAL_Layer/Interrupt/mcal_interrupt_manager.c: 85:     if((1 == INTCONbits.RBIE) && (1 
      +                          == INTCONbits.RBIF) &&
  5381  001BC0  A6F2               	btfss	242,3,c	;volatile
  5382  001BC2  EFE5  F00D         	goto	i2u708_41
  5383  001BC6  EFE7  F00D         	goto	i2u708_40
  5384  001BCA                     i2u708_41:
  5385  001BCA  EF02  F00E         	goto	i2l1234
  5386  001BCE                     i2u708_40:
  5387  001BCE  A0F2               	btfss	242,0,c	;volatile
  5388  001BD0  EFEC  F00D         	goto	i2u709_41
  5389  001BD4  EFEE  F00D         	goto	i2u709_40
  5390  001BD8                     i2u709_41:
  5391  001BD8  EF02  F00E         	goto	i2l1234
  5392  001BDC                     i2u709_40:
  5393  001BDC  AE81               	btfss	129,7,c	;volatile
  5394  001BDE  EFF3  F00D         	goto	i2u710_41
  5395  001BE2  EFF5  F00D         	goto	i2u710_40
  5396  001BE6                     i2u710_41:
  5397  001BE6  EF02  F00E         	goto	i2l1234
  5398  001BEA                     i2u710_40:
  5399  001BEA  046E               	decf	_RB7_Flag^0,w,c	;volatile
  5400  001BEC  A4D8               	btfss	status,2,c
  5401  001BEE  EFFB  F00D         	goto	i2u711_41
  5402  001BF2  EFFD  F00D         	goto	i2u711_40
  5403  001BF6                     i2u711_41:
  5404  001BF6  EF02  F00E         	goto	i2l1234
  5405  001BFA                     i2u711_40:
  5406  001BFA                     
  5407                           ;MCAL_Layer/Interrupt/mcal_interrupt_manager.c: 86:        (PORTBbits.RB7 == GPIO_HIGH) 
      +                          && (RB7_Flag == 1)){;MCAL_Layer/Interrupt/mcal_interrupt_manager.c: 87:         RB7_Flag
      +                           = 0;
  5408  001BFA  0E00               	movlw	0
  5409  001BFC  6E6E               	movwf	_RB7_Flag^0,c	;volatile
  5410  001BFE                     
  5411                           ;MCAL_Layer/Interrupt/mcal_interrupt_manager.c: 88:         RB7_ISR(0);
  5412  001BFE  0E00               	movlw	0
  5413  001C00  EC96  F017         	call	_RB7_ISR
  5414  001C04                     i2l1234:
  5415                           
  5416                           ;MCAL_Layer/Interrupt/mcal_interrupt_manager.c: 91:     if((1 == INTCONbits.RBIE) && (1 
      +                          == INTCONbits.RBIF) &&
  5417  001C04  A6F2               	btfss	242,3,c	;volatile
  5418  001C06  EF07  F00E         	goto	i2u712_41
  5419  001C0A  EF09  F00E         	goto	i2u712_40
  5420  001C0E                     i2u712_41:
  5421  001C0E  EF24  F00E         	goto	i2l1236
  5422  001C12                     i2u712_40:
  5423  001C12  A0F2               	btfss	242,0,c	;volatile
  5424  001C14  EF0E  F00E         	goto	i2u713_41
  5425  001C18  EF10  F00E         	goto	i2u713_40
  5426  001C1C                     i2u713_41:
  5427  001C1C  EF24  F00E         	goto	i2l1236
  5428  001C20                     i2u713_40:
  5429  001C20  BE81               	btfsc	129,7,c	;volatile
  5430  001C22  EF15  F00E         	goto	i2u714_41
  5431  001C26  EF17  F00E         	goto	i2u714_40
  5432  001C2A                     i2u714_41:
  5433  001C2A  EF24  F00E         	goto	i2l1236
  5434  001C2E                     i2u714_40:
  5435  001C2E  506E               	movf	_RB7_Flag^0,w,c	;volatile
  5436  001C30  A4D8               	btfss	status,2,c
  5437  001C32  EF1D  F00E         	goto	i2u715_41
  5438  001C36  EF1F  F00E         	goto	i2u715_40
  5439  001C3A                     i2u715_41:
  5440  001C3A  EF24  F00E         	goto	i2l1236
  5441  001C3E                     i2u715_40:
  5442  001C3E                     
  5443                           ;MCAL_Layer/Interrupt/mcal_interrupt_manager.c: 92:        (PORTBbits.RB7 == GPIO_LOW) &
      +                          & (RB7_Flag == 0)){;MCAL_Layer/Interrupt/mcal_interrupt_manager.c: 93:         RB7_Flag 
      +                          = 1;
  5444  001C3E  0E01               	movlw	1
  5445  001C40  6E6E               	movwf	_RB7_Flag^0,c	;volatile
  5446  001C42                     
  5447                           ;MCAL_Layer/Interrupt/mcal_interrupt_manager.c: 94:         RB7_ISR(1);
  5448  001C42  0E01               	movlw	1
  5449  001C44  EC96  F017         	call	_RB7_ISR
  5450  001C48                     i2l1236:
  5451                           
  5452                           ;MCAL_Layer/Interrupt/mcal_interrupt_manager.c: 99:     if((1 == PIE1bits.ADIE) && (1 ==
      +                           PIR1bits.ADIF)){
  5453  001C48  AC9D               	btfss	157,6,c	;volatile
  5454  001C4A  EF29  F00E         	goto	i2u716_41
  5455  001C4E  EF2B  F00E         	goto	i2u716_40
  5456  001C52                     i2u716_41:
  5457  001C52  EF34  F00E         	goto	i2l1238
  5458  001C56                     i2u716_40:
  5459  001C56  AC9E               	btfss	158,6,c	;volatile
  5460  001C58  EF30  F00E         	goto	i2u717_41
  5461  001C5C  EF32  F00E         	goto	i2u717_40
  5462  001C60                     i2u717_41:
  5463  001C60  EF34  F00E         	goto	i2l1238
  5464  001C64                     i2u717_40:
  5465  001C64                     
  5466                           ;MCAL_Layer/Interrupt/mcal_interrupt_manager.c: 100:         ADC_ISR();
  5467  001C64  ECFF  F017         	call	_ADC_ISR	;wreg free
  5468  001C68                     i2l1238:
  5469                           
  5470                           ;MCAL_Layer/Interrupt/mcal_interrupt_manager.c: 104:     if((1 == INTCONbits.TMR0IE) && 
      +                          (1 == INTCONbits.TMR0IF)){
  5471  001C68  AAF2               	btfss	242,5,c	;volatile
  5472  001C6A  EF39  F00E         	goto	i2u718_41
  5473  001C6E  EF3B  F00E         	goto	i2u718_40
  5474  001C72                     i2u718_41:
  5475  001C72  EF44  F00E         	goto	i2l1240
  5476  001C76                     i2u718_40:
  5477  001C76  A4F2               	btfss	242,2,c	;volatile
  5478  001C78  EF40  F00E         	goto	i2u719_41
  5479  001C7C  EF42  F00E         	goto	i2u719_40
  5480  001C80                     i2u719_41:
  5481  001C80  EF44  F00E         	goto	i2l1240
  5482  001C84                     i2u719_40:
  5483  001C84                     
  5484                           ;MCAL_Layer/Interrupt/mcal_interrupt_manager.c: 105:         TMR0_ISR();
  5485  001C84  ECE7  F017         	call	_TMR0_ISR	;wreg free
  5486  001C88                     i2l1240:
  5487                           
  5488                           ;MCAL_Layer/Interrupt/mcal_interrupt_manager.c: 108:     if((1 == PIE1bits.TMR1IE) && (1
      +                           == PIR1bits.TMR1IF)){
  5489  001C88  A09D               	btfss	157,0,c	;volatile
  5490  001C8A  EF49  F00E         	goto	i2u720_41
  5491  001C8E  EF4B  F00E         	goto	i2u720_40
  5492  001C92                     i2u720_41:
  5493  001C92  EF54  F00E         	goto	i2l1242
  5494  001C96                     i2u720_40:
  5495  001C96  A09E               	btfss	158,0,c	;volatile
  5496  001C98  EF50  F00E         	goto	i2u721_41
  5497  001C9C  EF52  F00E         	goto	i2u721_40
  5498  001CA0                     i2u721_41:
  5499  001CA0  EF54  F00E         	goto	i2l1242
  5500  001CA4                     i2u721_40:
  5501  001CA4                     
  5502                           ;MCAL_Layer/Interrupt/mcal_interrupt_manager.c: 109:         TMR1_ISR();
  5503  001CA4  ECE1  F017         	call	_TMR1_ISR	;wreg free
  5504  001CA8                     i2l1242:
  5505                           
  5506                           ;MCAL_Layer/Interrupt/mcal_interrupt_manager.c: 112:     if((1 == PIE1bits.TMR2IE) && (1
      +                           == PIR1bits.TMR2IF)){
  5507  001CA8  A29D               	btfss	157,1,c	;volatile
  5508  001CAA  EF59  F00E         	goto	i2u722_41
  5509  001CAE  EF5B  F00E         	goto	i2u722_40
  5510  001CB2                     i2u722_41:
  5511  001CB2  EF64  F00E         	goto	i2l1244
  5512  001CB6                     i2u722_40:
  5513  001CB6  A29E               	btfss	158,1,c	;volatile
  5514  001CB8  EF60  F00E         	goto	i2u723_41
  5515  001CBC  EF62  F00E         	goto	i2u723_40
  5516  001CC0                     i2u723_41:
  5517  001CC0  EF64  F00E         	goto	i2l1244
  5518  001CC4                     i2u723_40:
  5519  001CC4                     
  5520                           ;MCAL_Layer/Interrupt/mcal_interrupt_manager.c: 113:         TMR2_ISR();
  5521  001CC4  ECED  F017         	call	_TMR2_ISR	;wreg free
  5522  001CC8                     i2l1244:
  5523                           
  5524                           ;MCAL_Layer/Interrupt/mcal_interrupt_manager.c: 116:     if((1 == PIE2bits.TMR3IE) && (1
      +                           == PIR2bits.TMR3IF)){
  5525  001CC8  A2A0               	btfss	160,1,c	;volatile
  5526  001CCA  EF69  F00E         	goto	i2u724_41
  5527  001CCE  EF6B  F00E         	goto	i2u724_40
  5528  001CD2                     i2u724_41:
  5529  001CD2  EF74  F00E         	goto	i2l1246
  5530  001CD6                     i2u724_40:
  5531  001CD6  A2A1               	btfss	161,1,c	;volatile
  5532  001CD8  EF70  F00E         	goto	i2u725_41
  5533  001CDC  EF72  F00E         	goto	i2u725_40
  5534  001CE0                     i2u725_41:
  5535  001CE0  EF74  F00E         	goto	i2l1246
  5536  001CE4                     i2u725_40:
  5537  001CE4                     
  5538                           ;MCAL_Layer/Interrupt/mcal_interrupt_manager.c: 117:         TMR3_ISR();
  5539  001CE4  ECDB  F017         	call	_TMR3_ISR	;wreg free
  5540  001CE8                     i2l1246:
  5541                           
  5542                           ;MCAL_Layer/Interrupt/mcal_interrupt_manager.c: 121:     if((1 == PIE1bits.TXIE) && (1 =
      +                          = PIR1bits.TXIF)){
  5543  001CE8  A89D               	btfss	157,4,c	;volatile
  5544  001CEA  EF79  F00E         	goto	i2u726_41
  5545  001CEE  EF7B  F00E         	goto	i2u726_40
  5546  001CF2                     i2u726_41:
  5547  001CF2  EF84  F00E         	goto	i2l1248
  5548  001CF6                     i2u726_40:
  5549  001CF6  A89E               	btfss	158,4,c	;volatile
  5550  001CF8  EF80  F00E         	goto	i2u727_41
  5551  001CFC  EF82  F00E         	goto	i2u727_40
  5552  001D00                     i2u727_41:
  5553  001D00  EF84  F00E         	goto	i2l1248
  5554  001D04                     i2u727_40:
  5555  001D04                     
  5556                           ;MCAL_Layer/Interrupt/mcal_interrupt_manager.c: 122:         EUSART_TX_ISR();
  5557  001D04  EC6D  F017         	call	_EUSART_TX_ISR	;wreg free
  5558  001D08                     i2l1248:
  5559                           
  5560                           ;MCAL_Layer/Interrupt/mcal_interrupt_manager.c: 125:     if((1 == PIE1bits.RCIE) && (1 =
      +                          = PIR1bits.RCIF)){
  5561  001D08  AA9D               	btfss	157,5,c	;volatile
  5562  001D0A  EF89  F00E         	goto	i2u728_41
  5563  001D0E  EF8B  F00E         	goto	i2u728_40
  5564  001D12                     i2u728_41:
  5565  001D12  EF94  F00E         	goto	i2l1250
  5566  001D16                     i2u728_40:
  5567  001D16  AA9E               	btfss	158,5,c	;volatile
  5568  001D18  EF90  F00E         	goto	i2u729_41
  5569  001D1C  EF92  F00E         	goto	i2u729_40
  5570  001D20                     i2u729_41:
  5571  001D20  EF94  F00E         	goto	i2l1250
  5572  001D24                     i2u729_40:
  5573  001D24                     
  5574                           ;MCAL_Layer/Interrupt/mcal_interrupt_manager.c: 126:         EUSART_RX_ISR();
  5575  001D24  EC02  F018         	call	_EUSART_RX_ISR	;wreg free
  5576  001D28                     i2l1250:
  5577                           
  5578                           ;MCAL_Layer/Interrupt/mcal_interrupt_manager.c: 131:     if((1 == PIE1bits.SSPIE) && (1 
      +                          == PIR1bits.SSPIF)){
  5579  001D28  A69D               	btfss	157,3,c	;volatile
  5580  001D2A  EF99  F00E         	goto	i2u730_41
  5581  001D2E  EF9B  F00E         	goto	i2u730_40
  5582  001D32                     i2u730_41:
  5583  001D32  EFA4  F00E         	goto	i2l1252
  5584  001D36                     i2u730_40:
  5585  001D36  A69E               	btfss	158,3,c	;volatile
  5586  001D38  EFA0  F00E         	goto	i2u731_41
  5587  001D3C  EFA2  F00E         	goto	i2u731_40
  5588  001D40                     i2u731_41:
  5589  001D40  EFA4  F00E         	goto	i2l1252
  5590  001D44                     i2u731_40:
  5591  001D44                     
  5592                           ;MCAL_Layer/Interrupt/mcal_interrupt_manager.c: 132:         MSSP_I2C_ISR();
  5593  001D44  ECF1  F017         	call	_MSSP_I2C_ISR	;wreg free
  5594  001D48                     i2l1252:
  5595                           
  5596                           ;MCAL_Layer/Interrupt/mcal_interrupt_manager.c: 135:     if((1 == PIE2bits.BCLIE) && (1 
      +                          == PIR2bits.BCLIF)){
  5597  001D48  A6A0               	btfss	160,3,c	;volatile
  5598  001D4A  EFA9  F00E         	goto	i2u732_41
  5599  001D4E  EFAB  F00E         	goto	i2u732_40
  5600  001D52                     i2u732_41:
  5601  001D52  EFB4  F00E         	goto	i2l1254
  5602  001D56                     i2u732_40:
  5603  001D56  A6A1               	btfss	161,3,c	;volatile
  5604  001D58  EFB0  F00E         	goto	i2u733_41
  5605  001D5C  EFB2  F00E         	goto	i2u733_40
  5606  001D60                     i2u733_41:
  5607  001D60  EFB4  F00E         	goto	i2l1254
  5608  001D64                     i2u733_40:
  5609  001D64                     
  5610                           ;MCAL_Layer/Interrupt/mcal_interrupt_manager.c: 136:         MSSP_I2C_BC_ISR();
  5611  001D64  ECF3  F017         	call	_MSSP_I2C_BC_ISR	;wreg free
  5612  001D68                     i2l1254:
  5613                           
  5614                           ;MCAL_Layer/Interrupt/mcal_interrupt_manager.c: 139:     if((1 == PIE1bits.SSPIE) && (1 
      +                          == PIR1bits.SSPIF)){
  5615  001D68  A69D               	btfss	157,3,c	;volatile
  5616  001D6A  EFB9  F00E         	goto	i2u734_41
  5617  001D6E  EFBB  F00E         	goto	i2u734_40
  5618  001D72                     i2u734_41:
  5619  001D72  EFC4  F00E         	goto	i2l1256
  5620  001D76                     i2u734_40:
  5621  001D76  A69E               	btfss	158,3,c	;volatile
  5622  001D78  EFC0  F00E         	goto	i2u735_41
  5623  001D7C  EFC2  F00E         	goto	i2u735_40
  5624  001D80                     i2u735_41:
  5625  001D80  EFC4  F00E         	goto	i2l1256
  5626  001D84                     i2u735_40:
  5627  001D84                     
  5628                           ;MCAL_Layer/Interrupt/mcal_interrupt_manager.c: 140:         MSSP_SPI_ISR();
  5629  001D84  EC01  F018         	call	_MSSP_SPI_ISR	;wreg free
  5630  001D88                     i2l1256:
  5631                           
  5632                           ;MCAL_Layer/Interrupt/mcal_interrupt_manager.c: 145:     if((1 == PIE1bits.CCP1IE) && (1
      +                           == PIR1bits.CCP1IF)){
  5633  001D88  A49D               	btfss	157,2,c	;volatile
  5634  001D8A  EFC9  F00E         	goto	i2u736_41
  5635  001D8E  EFCB  F00E         	goto	i2u736_40
  5636  001D92                     i2u736_41:
  5637  001D92  EFD4  F00E         	goto	i2l1258
  5638  001D96                     i2u736_40:
  5639  001D96  A49E               	btfss	158,2,c	;volatile
  5640  001D98  EFD0  F00E         	goto	i2u737_41
  5641  001D9C  EFD2  F00E         	goto	i2u737_40
  5642  001DA0                     i2u737_41:
  5643  001DA0  EFD4  F00E         	goto	i2l1258
  5644  001DA4                     i2u737_40:
  5645  001DA4                     
  5646                           ;MCAL_Layer/Interrupt/mcal_interrupt_manager.c: 146:         CCP1_ISR();
  5647  001DA4  ECFD  F017         	call	_CCP1_ISR	;wreg free
  5648  001DA8                     i2l1258:
  5649                           
  5650                           ;MCAL_Layer/Interrupt/mcal_interrupt_manager.c: 149:     if((1 == PIE2bits.CCP2IE) && (1
      +                           == PIR2bits.CCP2IF)){
  5651  001DA8  A0A0               	btfss	160,0,c	;volatile
  5652  001DAA  EFD9  F00E         	goto	i2u738_41
  5653  001DAE  EFDB  F00E         	goto	i2u738_40
  5654  001DB2                     i2u738_41:
  5655  001DB2  EFE4  F00E         	goto	i2l1261
  5656  001DB6                     i2u738_40:
  5657  001DB6  A0A1               	btfss	161,0,c	;volatile
  5658  001DB8  EFE0  F00E         	goto	i2u739_41
  5659  001DBC  EFE2  F00E         	goto	i2u739_40
  5660  001DC0                     i2u739_41:
  5661  001DC0  EFE4  F00E         	goto	i2l1261
  5662  001DC4                     i2u739_40:
  5663  001DC4                     
  5664                           ;MCAL_Layer/Interrupt/mcal_interrupt_manager.c: 150:         CCP2_ISR();
  5665  001DC4  ECFB  F017         	call	_CCP2_ISR	;wreg free
  5666  001DC8                     i2l1261:
  5667  001DC8  C00D  FFDA         	movff	??_InterruptManager+3,fsr2h
  5668  001DCC  C00C  FFD9         	movff	??_InterruptManager+2,fsr2l
  5669  001DD0  C00B  FFFB         	movff	??_InterruptManager+1,pclatu
  5670  001DD4  C00A  FFFA         	movff	??_InterruptManager,pclath
  5671  001DD8  9272               	bcf	int$flags,1,c	;clear compiler interrupt flag (level 2)
  5672  001DDA  0011               	retfie		f
  5673  001DDC                     __end_of_InterruptManager:
  5674                           	callstack 0
  5675                           
  5676 ;; *************** function _TMR3_ISR *****************
  5677 ;; Defined at:
  5678 ;;		line 102 in file "MCAL_Layer/Timer3/hal_timr3.c"
  5679 ;; Parameters:    Size  Location     Type
  5680 ;;		None
  5681 ;; Auto vars:     Size  Location     Type
  5682 ;;		None
  5683 ;; Return value:  Size  Location     Type
  5684 ;;                  1    wreg      void 
  5685 ;; Registers used:
  5686 ;;		wreg, status,2
  5687 ;; Tracked objects:
  5688 ;;		On entry : 0/0
  5689 ;;		On exit  : 0/0
  5690 ;;		Unchanged: 0/0
  5691 ;; Data sizes:     COMRAM   BANK0   BANK1   BANK2   BANK3   BANK4   BANK5   BANK6   BANK7   BANK8   BANK9  BANK10  BANK1
      +1  BANK12  BANK13  BANK14  BANK15
  5692 ;;      Params:         0       0       0       0       0       0       0       0       0       0       0       0       
      +0       0       0       0       0
  5693 ;;      Locals:         0       0       0       0       0       0       0       0       0       0       0       0       
      +0       0       0       0       0
  5694 ;;      Temps:          0       0       0       0       0       0       0       0       0       0       0       0       
      +0       0       0       0       0
  5695 ;;      Totals:         0       0       0       0       0       0       0       0       0       0       0       0       
      +0       0       0       0       0
  5696 ;;Total ram usage:        0 bytes
  5697 ;; Hardware stack levels used: 1
  5698 ;; This function calls:
  5699 ;;		Nothing
  5700 ;; This function is called by:
  5701 ;;		_InterruptManager
  5702 ;; This function uses a non-reentrant model
  5703 ;;
  5704                           
  5705                           	psect	text22
  5706  002FB6                     __ptext22:
  5707                           	callstack 0
  5708  002FB6                     _TMR3_ISR:
  5709                           	callstack 25
  5710  002FB6                     
  5711                           ;MCAL_Layer/Timer3/hal_timr3.c: 103:     (PIR2bits.TMR3IF = 0);
  5712  002FB6  92A1               	bcf	161,1,c	;volatile
  5713  002FB8                     
  5714                           ;MCAL_Layer/Timer3/hal_timr3.c: 104:     TMR3H = (timer3_preload) >> 8;
  5715  002FB8  504A               	movf	(_timer3_preload+1)^0,w,c
  5716  002FBA  6EB3               	movwf	179,c	;volatile
  5717  002FBC                     
  5718                           ;MCAL_Layer/Timer3/hal_timr3.c: 105:     TMR3L = (uint8)(timer3_preload);
  5719  002FBC  C049  FFB2         	movff	_timer3_preload,4018	;volatile
  5720  002FC0  0012               	return		;funcret
  5721  002FC2                     __end_of_TMR3_ISR:
  5722                           	callstack 0
  5723                           
  5724 ;; *************** function _TMR2_ISR *****************
  5725 ;; Defined at:
  5726 ;;		line 95 in file "MCAL_Layer/Timer2/hal_timr2.c"
  5727 ;; Parameters:    Size  Location     Type
  5728 ;;		None
  5729 ;; Auto vars:     Size  Location     Type
  5730 ;;		None
  5731 ;; Return value:  Size  Location     Type
  5732 ;;                  1    wreg      void 
  5733 ;; Registers used:
  5734 ;;		None
  5735 ;; Tracked objects:
  5736 ;;		On entry : 0/0
  5737 ;;		On exit  : 0/0
  5738 ;;		Unchanged: 0/0
  5739 ;; Data sizes:     COMRAM   BANK0   BANK1   BANK2   BANK3   BANK4   BANK5   BANK6   BANK7   BANK8   BANK9  BANK10  BANK1
      +1  BANK12  BANK13  BANK14  BANK15
  5740 ;;      Params:         0       0       0       0       0       0       0       0       0       0       0       0       
      +0       0       0       0       0
  5741 ;;      Locals:         0       0       0       0       0       0       0       0       0       0       0       0       
      +0       0       0       0       0
  5742 ;;      Temps:          0       0       0       0       0       0       0       0       0       0       0       0       
      +0       0       0       0       0
  5743 ;;      Totals:         0       0       0       0       0       0       0       0       0       0       0       0       
      +0       0       0       0       0
  5744 ;;Total ram usage:        0 bytes
  5745 ;; Hardware stack levels used: 1
  5746 ;; This function calls:
  5747 ;;		Nothing
  5748 ;; This function is called by:
  5749 ;;		_InterruptManager
  5750 ;; This function uses a non-reentrant model
  5751 ;;
  5752                           
  5753                           	psect	text23
  5754  002FDA                     __ptext23:
  5755                           	callstack 0
  5756  002FDA                     _TMR2_ISR:
  5757                           	callstack 25
  5758  002FDA                     
  5759                           ;MCAL_Layer/Timer2/hal_timr2.c: 96:     (PIR1bits.TMR2IF = 0);
  5760  002FDA  929E               	bcf	158,1,c	;volatile
  5761                           
  5762                           ;MCAL_Layer/Timer2/hal_timr2.c: 97:     TMR2 = timer2_preload;
  5763  002FDC  C05C  FFCC         	movff	_timer2_preload,4044	;volatile
  5764  002FE0  0012               	return		;funcret
  5765  002FE2                     __end_of_TMR2_ISR:
  5766                           	callstack 0
  5767                           
  5768 ;; *************** function _TMR1_ISR *****************
  5769 ;; Defined at:
  5770 ;;		line 102 in file "MCAL_Layer/Timer1/hal_timr1.c"
  5771 ;; Parameters:    Size  Location     Type
  5772 ;;		None
  5773 ;; Auto vars:     Size  Location     Type
  5774 ;;		None
  5775 ;; Return value:  Size  Location     Type
  5776 ;;                  1    wreg      void 
  5777 ;; Registers used:
  5778 ;;		wreg, status,2
  5779 ;; Tracked objects:
  5780 ;;		On entry : 0/0
  5781 ;;		On exit  : 0/0
  5782 ;;		Unchanged: 0/0
  5783 ;; Data sizes:     COMRAM   BANK0   BANK1   BANK2   BANK3   BANK4   BANK5   BANK6   BANK7   BANK8   BANK9  BANK10  BANK1
      +1  BANK12  BANK13  BANK14  BANK15
  5784 ;;      Params:         0       0       0       0       0       0       0       0       0       0       0       0       
      +0       0       0       0       0
  5785 ;;      Locals:         0       0       0       0       0       0       0       0       0       0       0       0       
      +0       0       0       0       0
  5786 ;;      Temps:          0       0       0       0       0       0       0       0       0       0       0       0       
      +0       0       0       0       0
  5787 ;;      Totals:         0       0       0       0       0       0       0       0       0       0       0       0       
      +0       0       0       0       0
  5788 ;;Total ram usage:        0 bytes
  5789 ;; Hardware stack levels used: 1
  5790 ;; This function calls:
  5791 ;;		Nothing
  5792 ;; This function is called by:
  5793 ;;		_InterruptManager
  5794 ;; This function uses a non-reentrant model
  5795 ;;
  5796                           
  5797                           	psect	text24
  5798  002FC2                     __ptext24:
  5799                           	callstack 0
  5800  002FC2                     _TMR1_ISR:
  5801                           	callstack 25
  5802  002FC2                     
  5803                           ;MCAL_Layer/Timer1/hal_timr1.c: 103:     (PIR1bits.TMR1IF = 0);
  5804  002FC2  909E               	bcf	158,0,c	;volatile
  5805  002FC4                     
  5806                           ;MCAL_Layer/Timer1/hal_timr1.c: 104:     TMR1H = (timer1_preload) >> 8;
  5807  002FC4  504C               	movf	(_timer1_preload+1)^0,w,c	;volatile
  5808  002FC6  6ECF               	movwf	207,c	;volatile
  5809  002FC8                     
  5810                           ;MCAL_Layer/Timer1/hal_timr1.c: 105:     TMR1L = (uint8)(timer1_preload);
  5811  002FC8  C04B  FFCE         	movff	_timer1_preload,4046	;volatile
  5812  002FCC  0012               	return		;funcret
  5813  002FCE                     __end_of_TMR1_ISR:
  5814                           	callstack 0
  5815                           
  5816 ;; *************** function _TMR0_ISR *****************
  5817 ;; Defined at:
  5818 ;;		line 107 in file "MCAL_Layer/Timer0/hal_timr0.c"
  5819 ;; Parameters:    Size  Location     Type
  5820 ;;		None
  5821 ;; Auto vars:     Size  Location     Type
  5822 ;;		None
  5823 ;; Return value:  Size  Location     Type
  5824 ;;                  1    wreg      void 
  5825 ;; Registers used:
  5826 ;;		wreg, status,2
  5827 ;; Tracked objects:
  5828 ;;		On entry : 0/0
  5829 ;;		On exit  : 0/0
  5830 ;;		Unchanged: 0/0
  5831 ;; Data sizes:     COMRAM   BANK0   BANK1   BANK2   BANK3   BANK4   BANK5   BANK6   BANK7   BANK8   BANK9  BANK10  BANK1
      +1  BANK12  BANK13  BANK14  BANK15
  5832 ;;      Params:         0       0       0       0       0       0       0       0       0       0       0       0       
      +0       0       0       0       0
  5833 ;;      Locals:         0       0       0       0       0       0       0       0       0       0       0       0       
      +0       0       0       0       0
  5834 ;;      Temps:          0       0       0       0       0       0       0       0       0       0       0       0       
      +0       0       0       0       0
  5835 ;;      Totals:         0       0       0       0       0       0       0       0       0       0       0       0       
      +0       0       0       0       0
  5836 ;;Total ram usage:        0 bytes
  5837 ;; Hardware stack levels used: 1
  5838 ;; This function calls:
  5839 ;;		Nothing
  5840 ;; This function is called by:
  5841 ;;		_InterruptManager
  5842 ;; This function uses a non-reentrant model
  5843 ;;
  5844                           
  5845                           	psect	text25
  5846  002FCE                     __ptext25:
  5847                           	callstack 0
  5848  002FCE                     _TMR0_ISR:
  5849                           	callstack 25
  5850  002FCE                     
  5851                           ;MCAL_Layer/Timer0/hal_timr0.c: 108:     (INTCONbits.TMR0IF = 0);
  5852  002FCE  94F2               	bcf	242,2,c	;volatile
  5853  002FD0                     
  5854                           ;MCAL_Layer/Timer0/hal_timr0.c: 109:     TMR0H = (timer0_preload) >> 8;
  5855  002FD0  504E               	movf	(_timer0_preload+1)^0,w,c
  5856  002FD2  6ED7               	movwf	215,c	;volatile
  5857  002FD4                     
  5858                           ;MCAL_Layer/Timer0/hal_timr0.c: 110:     TMR0L = (uint8)(timer0_preload);
  5859  002FD4  C04D  FFD6         	movff	_timer0_preload,4054	;volatile
  5860  002FD8  0012               	return		;funcret
  5861  002FDA                     __end_of_TMR0_ISR:
  5862                           	callstack 0
  5863                           
  5864 ;; *************** function _RB7_ISR *****************
  5865 ;; Defined at:
  5866 ;;		line 164 in file "MCAL_Layer/Interrupt/mcal_external_interrupt.c"
  5867 ;; Parameters:    Size  Location     Type
  5868 ;;  RB7_Source      1    wreg     unsigned char 
  5869 ;; Auto vars:     Size  Location     Type
  5870 ;;  RB7_Source      1    0[COMRAM] unsigned char 
  5871 ;; Return value:  Size  Location     Type
  5872 ;;                  1    wreg      void 
  5873 ;; Registers used:
  5874 ;;		wreg, status,2, status,0
  5875 ;; Tracked objects:
  5876 ;;		On entry : 0/0
  5877 ;;		On exit  : 0/0
  5878 ;;		Unchanged: 0/0
  5879 ;; Data sizes:     COMRAM   BANK0   BANK1   BANK2   BANK3   BANK4   BANK5   BANK6   BANK7   BANK8   BANK9  BANK10  BANK1
      +1  BANK12  BANK13  BANK14  BANK15
  5880 ;;      Params:         0       0       0       0       0       0       0       0       0       0       0       0       
      +0       0       0       0       0
  5881 ;;      Locals:         1       0       0       0       0       0       0       0       0       0       0       0       
      +0       0       0       0       0
  5882 ;;      Temps:          0       0       0       0       0       0       0       0       0       0       0       0       
      +0       0       0       0       0
  5883 ;;      Totals:         1       0       0       0       0       0       0       0       0       0       0       0       
      +0       0       0       0       0
  5884 ;;Total ram usage:        1 bytes
  5885 ;; Hardware stack levels used: 1
  5886 ;; This function calls:
  5887 ;;		Nothing
  5888 ;; This function is called by:
  5889 ;;		_InterruptManager
  5890 ;; This function uses a non-reentrant model
  5891 ;;
  5892                           
  5893                           	psect	text26
  5894  002F2C                     __ptext26:
  5895                           	callstack 0
  5896  002F2C                     _RB7_ISR:
  5897                           	callstack 25
  5898                           
  5899                           ;incstack = 0
  5900                           ;RB7_ISR@RB7_Source stored from wreg
  5901  002F2C  6E01               	movwf	RB7_ISR@RB7_Source^0,c
  5902  002F2E                     
  5903                           ;MCAL_Layer/Interrupt/mcal_external_interrupt.c: 166:     (INTCONbits.RBIF = 0);
  5904  002F2E  90F2               	bcf	242,0,c	;volatile
  5905  002F30                     
  5906                           ;MCAL_Layer/Interrupt/mcal_external_interrupt.c: 169:     if(0 == RB7_Source){
  5907  002F30  5001               	movf	RB7_ISR@RB7_Source^0,w,c
  5908  002F32  A4D8               	btfss	status,2,c
  5909  002F34  EF9E  F017         	goto	i2u570_41
  5910  002F38  EFA0  F017         	goto	i2u570_40
  5911  002F3C                     i2u570_41:
  5912  002F3C  EFA2  F017         	goto	i2l6663
  5913  002F40                     i2u570_40:
  5914  002F40  EFA2  F017         	goto	i2l1041
  5915  002F44                     i2l6663:
  5916  002F44                     i2l1041:
  5917  002F44  0012               	return		;funcret
  5918  002F46                     __end_of_RB7_ISR:
  5919                           	callstack 0
  5920                           
  5921 ;; *************** function _RB6_ISR *****************
  5922 ;; Defined at:
  5923 ;;		line 145 in file "MCAL_Layer/Interrupt/mcal_external_interrupt.c"
  5924 ;; Parameters:    Size  Location     Type
  5925 ;;  RB6_Source      1    wreg     unsigned char 
  5926 ;; Auto vars:     Size  Location     Type
  5927 ;;  RB6_Source      1    0[COMRAM] unsigned char 
  5928 ;; Return value:  Size  Location     Type
  5929 ;;                  1    wreg      void 
  5930 ;; Registers used:
  5931 ;;		wreg, status,2, status,0
  5932 ;; Tracked objects:
  5933 ;;		On entry : 0/0
  5934 ;;		On exit  : 0/0
  5935 ;;		Unchanged: 0/0
  5936 ;; Data sizes:     COMRAM   BANK0   BANK1   BANK2   BANK3   BANK4   BANK5   BANK6   BANK7   BANK8   BANK9  BANK10  BANK1
      +1  BANK12  BANK13  BANK14  BANK15
  5937 ;;      Params:         0       0       0       0       0       0       0       0       0       0       0       0       
      +0       0       0       0       0
  5938 ;;      Locals:         1       0       0       0       0       0       0       0       0       0       0       0       
      +0       0       0       0       0
  5939 ;;      Temps:          0       0       0       0       0       0       0       0       0       0       0       0       
      +0       0       0       0       0
  5940 ;;      Totals:         1       0       0       0       0       0       0       0       0       0       0       0       
      +0       0       0       0       0
  5941 ;;Total ram usage:        1 bytes
  5942 ;; Hardware stack levels used: 1
  5943 ;; This function calls:
  5944 ;;		Nothing
  5945 ;; This function is called by:
  5946 ;;		_InterruptManager
  5947 ;; This function uses a non-reentrant model
  5948 ;;
  5949                           
  5950                           	psect	text27
  5951  002F46                     __ptext27:
  5952                           	callstack 0
  5953  002F46                     _RB6_ISR:
  5954                           	callstack 25
  5955                           
  5956                           ;incstack = 0
  5957                           ;RB6_ISR@RB6_Source stored from wreg
  5958  002F46  6E01               	movwf	RB6_ISR@RB6_Source^0,c
  5959  002F48                     
  5960                           ;MCAL_Layer/Interrupt/mcal_external_interrupt.c: 147:     (INTCONbits.RBIF = 0);
  5961  002F48  90F2               	bcf	242,0,c	;volatile
  5962  002F4A                     
  5963                           ;MCAL_Layer/Interrupt/mcal_external_interrupt.c: 150:     if(0 == RB6_Source){
  5964  002F4A  5001               	movf	RB6_ISR@RB6_Source^0,w,c
  5965  002F4C  A4D8               	btfss	status,2,c
  5966  002F4E  EFAB  F017         	goto	i2u569_41
  5967  002F52  EFAD  F017         	goto	i2u569_40
  5968  002F56                     i2u569_41:
  5969  002F56  EFAF  F017         	goto	i2l6649
  5970  002F5A                     i2u569_40:
  5971  002F5A  EFAF  F017         	goto	i2l1030
  5972  002F5E                     i2l6649:
  5973  002F5E                     i2l1030:
  5974  002F5E  0012               	return		;funcret
  5975  002F60                     __end_of_RB6_ISR:
  5976                           	callstack 0
  5977                           
  5978 ;; *************** function _RB5_ISR *****************
  5979 ;; Defined at:
  5980 ;;		line 126 in file "MCAL_Layer/Interrupt/mcal_external_interrupt.c"
  5981 ;; Parameters:    Size  Location     Type
  5982 ;;  RB5_Source      1    wreg     unsigned char 
  5983 ;; Auto vars:     Size  Location     Type
  5984 ;;  RB5_Source      1    0[COMRAM] unsigned char 
  5985 ;; Return value:  Size  Location     Type
  5986 ;;                  1    wreg      void 
  5987 ;; Registers used:
  5988 ;;		wreg, status,2, status,0
  5989 ;; Tracked objects:
  5990 ;;		On entry : 0/0
  5991 ;;		On exit  : 0/0
  5992 ;;		Unchanged: 0/0
  5993 ;; Data sizes:     COMRAM   BANK0   BANK1   BANK2   BANK3   BANK4   BANK5   BANK6   BANK7   BANK8   BANK9  BANK10  BANK1
      +1  BANK12  BANK13  BANK14  BANK15
  5994 ;;      Params:         0       0       0       0       0       0       0       0       0       0       0       0       
      +0       0       0       0       0
  5995 ;;      Locals:         1       0       0       0       0       0       0       0       0       0       0       0       
      +0       0       0       0       0
  5996 ;;      Temps:          0       0       0       0       0       0       0       0       0       0       0       0       
      +0       0       0       0       0
  5997 ;;      Totals:         1       0       0       0       0       0       0       0       0       0       0       0       
      +0       0       0       0       0
  5998 ;;Total ram usage:        1 bytes
  5999 ;; Hardware stack levels used: 1
  6000 ;; This function calls:
  6001 ;;		Nothing
  6002 ;; This function is called by:
  6003 ;;		_InterruptManager
  6004 ;; This function uses a non-reentrant model
  6005 ;;
  6006                           
  6007                           	psect	text28
  6008  002F60                     __ptext28:
  6009                           	callstack 0
  6010  002F60                     _RB5_ISR:
  6011                           	callstack 25
  6012                           
  6013                           ;incstack = 0
  6014                           ;RB5_ISR@RB5_Source stored from wreg
  6015  002F60  6E01               	movwf	RB5_ISR@RB5_Source^0,c
  6016  002F62                     
  6017                           ;MCAL_Layer/Interrupt/mcal_external_interrupt.c: 128:     (INTCONbits.RBIF = 0);
  6018  002F62  90F2               	bcf	242,0,c	;volatile
  6019  002F64                     
  6020                           ;MCAL_Layer/Interrupt/mcal_external_interrupt.c: 131:     if(0 == RB5_Source){
  6021  002F64  5001               	movf	RB5_ISR@RB5_Source^0,w,c
  6022  002F66  A4D8               	btfss	status,2,c
  6023  002F68  EFB8  F017         	goto	i2u568_41
  6024  002F6C  EFBA  F017         	goto	i2u568_40
  6025  002F70                     i2u568_41:
  6026  002F70  EFBC  F017         	goto	i2l6635
  6027  002F74                     i2u568_40:
  6028  002F74  EFBC  F017         	goto	i2l1019
  6029  002F78                     i2l6635:
  6030  002F78                     i2l1019:
  6031  002F78  0012               	return		;funcret
  6032  002F7A                     __end_of_RB5_ISR:
  6033                           	callstack 0
  6034                           
  6035 ;; *************** function _RB4_ISR *****************
  6036 ;; Defined at:
  6037 ;;		line 107 in file "MCAL_Layer/Interrupt/mcal_external_interrupt.c"
  6038 ;; Parameters:    Size  Location     Type
  6039 ;;  RB4_Source      1    wreg     unsigned char 
  6040 ;; Auto vars:     Size  Location     Type
  6041 ;;  RB4_Source      1    0[COMRAM] unsigned char 
  6042 ;; Return value:  Size  Location     Type
  6043 ;;                  1    wreg      void 
  6044 ;; Registers used:
  6045 ;;		wreg, status,2, status,0
  6046 ;; Tracked objects:
  6047 ;;		On entry : 0/0
  6048 ;;		On exit  : 0/0
  6049 ;;		Unchanged: 0/0
  6050 ;; Data sizes:     COMRAM   BANK0   BANK1   BANK2   BANK3   BANK4   BANK5   BANK6   BANK7   BANK8   BANK9  BANK10  BANK1
      +1  BANK12  BANK13  BANK14  BANK15
  6051 ;;      Params:         0       0       0       0       0       0       0       0       0       0       0       0       
      +0       0       0       0       0
  6052 ;;      Locals:         1       0       0       0       0       0       0       0       0       0       0       0       
      +0       0       0       0       0
  6053 ;;      Temps:          0       0       0       0       0       0       0       0       0       0       0       0       
      +0       0       0       0       0
  6054 ;;      Totals:         1       0       0       0       0       0       0       0       0       0       0       0       
      +0       0       0       0       0
  6055 ;;Total ram usage:        1 bytes
  6056 ;; Hardware stack levels used: 1
  6057 ;; This function calls:
  6058 ;;		Nothing
  6059 ;; This function is called by:
  6060 ;;		_InterruptManager
  6061 ;; This function uses a non-reentrant model
  6062 ;;
  6063                           
  6064                           	psect	text29
  6065  002F7A                     __ptext29:
  6066                           	callstack 0
  6067  002F7A                     _RB4_ISR:
  6068                           	callstack 25
  6069                           
  6070                           ;incstack = 0
  6071                           ;RB4_ISR@RB4_Source stored from wreg
  6072  002F7A  6E01               	movwf	RB4_ISR@RB4_Source^0,c
  6073  002F7C                     
  6074                           ;MCAL_Layer/Interrupt/mcal_external_interrupt.c: 109:     (INTCONbits.RBIF = 0);
  6075  002F7C  90F2               	bcf	242,0,c	;volatile
  6076  002F7E                     
  6077                           ;MCAL_Layer/Interrupt/mcal_external_interrupt.c: 112:     if(0 == RB4_Source){
  6078  002F7E  5001               	movf	RB4_ISR@RB4_Source^0,w,c
  6079  002F80  A4D8               	btfss	status,2,c
  6080  002F82  EFC5  F017         	goto	i2u567_41
  6081  002F86  EFC7  F017         	goto	i2u567_40
  6082  002F8A                     i2u567_41:
  6083  002F8A  EFC9  F017         	goto	i2l6621
  6084  002F8E                     i2u567_40:
  6085  002F8E  EFC9  F017         	goto	i2l1008
  6086  002F92                     i2l6621:
  6087  002F92                     i2l1008:
  6088  002F92  0012               	return		;funcret
  6089  002F94                     __end_of_RB4_ISR:
  6090                           	callstack 0
  6091                           
  6092 ;; *************** function _MSSP_SPI_ISR *****************
  6093 ;; Defined at:
  6094 ;;		line 105 in file "MCAL_Layer/SPI/hal_spi.c"
  6095 ;; Parameters:    Size  Location     Type
  6096 ;;		None
  6097 ;; Auto vars:     Size  Location     Type
  6098 ;;		None
  6099 ;; Return value:  Size  Location     Type
  6100 ;;                  1    wreg      void 
  6101 ;; Registers used:
  6102 ;;		None
  6103 ;; Tracked objects:
  6104 ;;		On entry : 0/0
  6105 ;;		On exit  : 0/0
  6106 ;;		Unchanged: 0/0
  6107 ;; Data sizes:     COMRAM   BANK0   BANK1   BANK2   BANK3   BANK4   BANK5   BANK6   BANK7   BANK8   BANK9  BANK10  BANK1
      +1  BANK12  BANK13  BANK14  BANK15
  6108 ;;      Params:         0       0       0       0       0       0       0       0       0       0       0       0       
      +0       0       0       0       0
  6109 ;;      Locals:         0       0       0       0       0       0       0       0       0       0       0       0       
      +0       0       0       0       0
  6110 ;;      Temps:          0       0       0       0       0       0       0       0       0       0       0       0       
      +0       0       0       0       0
  6111 ;;      Totals:         0       0       0       0       0       0       0       0       0       0       0       0       
      +0       0       0       0       0
  6112 ;;Total ram usage:        0 bytes
  6113 ;; Hardware stack levels used: 1
  6114 ;; This function calls:
  6115 ;;		Nothing
  6116 ;; This function is called by:
  6117 ;;		_InterruptManager
  6118 ;; This function uses a non-reentrant model
  6119 ;;
  6120                           
  6121                           	psect	text30
  6122  003002                     __ptext30:
  6123                           	callstack 0
  6124  003002                     _MSSP_SPI_ISR:
  6125                           	callstack 25
  6126  003002  0012               	return		;funcret
  6127  003004                     __end_of_MSSP_SPI_ISR:
  6128                           	callstack 0
  6129                           
  6130 ;; *************** function _MSSP_I2C_ISR *****************
  6131 ;; Defined at:
  6132 ;;		line 242 in file "MCAL_Layer/I2C/hal_i2c.c"
  6133 ;; Parameters:    Size  Location     Type
  6134 ;;		None
  6135 ;; Auto vars:     Size  Location     Type
  6136 ;;		None
  6137 ;; Return value:  Size  Location     Type
  6138 ;;                  1    wreg      void 
  6139 ;; Registers used:
  6140 ;;		None
  6141 ;; Tracked objects:
  6142 ;;		On entry : 0/0
  6143 ;;		On exit  : 0/0
  6144 ;;		Unchanged: 0/0
  6145 ;; Data sizes:     COMRAM   BANK0   BANK1   BANK2   BANK3   BANK4   BANK5   BANK6   BANK7   BANK8   BANK9  BANK10  BANK1
      +1  BANK12  BANK13  BANK14  BANK15
  6146 ;;      Params:         0       0       0       0       0       0       0       0       0       0       0       0       
      +0       0       0       0       0
  6147 ;;      Locals:         0       0       0       0       0       0       0       0       0       0       0       0       
      +0       0       0       0       0
  6148 ;;      Temps:          0       0       0       0       0       0       0       0       0       0       0       0       
      +0       0       0       0       0
  6149 ;;      Totals:         0       0       0       0       0       0       0       0       0       0       0       0       
      +0       0       0       0       0
  6150 ;;Total ram usage:        0 bytes
  6151 ;; Hardware stack levels used: 1
  6152 ;; This function calls:
  6153 ;;		Nothing
  6154 ;; This function is called by:
  6155 ;;		_InterruptManager
  6156 ;; This function uses a non-reentrant model
  6157 ;;
  6158                           
  6159                           	psect	text31
  6160  002FE2                     __ptext31:
  6161                           	callstack 0
  6162  002FE2                     _MSSP_I2C_ISR:
  6163                           	callstack 25
  6164  002FE2                     
  6165                           ;MCAL_Layer/I2C/hal_i2c.c: 244:     (PIR1bits.SSPIF = 0);
  6166  002FE2  969E               	bcf	158,3,c	;volatile
  6167  002FE4  0012               	return		;funcret
  6168  002FE6                     __end_of_MSSP_I2C_ISR:
  6169                           	callstack 0
  6170                           
  6171 ;; *************** function _MSSP_I2C_BC_ISR *****************
  6172 ;; Defined at:
  6173 ;;		line 251 in file "MCAL_Layer/I2C/hal_i2c.c"
  6174 ;; Parameters:    Size  Location     Type
  6175 ;;		None
  6176 ;; Auto vars:     Size  Location     Type
  6177 ;;		None
  6178 ;; Return value:  Size  Location     Type
  6179 ;;                  1    wreg      void 
  6180 ;; Registers used:
  6181 ;;		None
  6182 ;; Tracked objects:
  6183 ;;		On entry : 0/0
  6184 ;;		On exit  : 0/0
  6185 ;;		Unchanged: 0/0
  6186 ;; Data sizes:     COMRAM   BANK0   BANK1   BANK2   BANK3   BANK4   BANK5   BANK6   BANK7   BANK8   BANK9  BANK10  BANK1
      +1  BANK12  BANK13  BANK14  BANK15
  6187 ;;      Params:         0       0       0       0       0       0       0       0       0       0       0       0       
      +0       0       0       0       0
  6188 ;;      Locals:         0       0       0       0       0       0       0       0       0       0       0       0       
      +0       0       0       0       0
  6189 ;;      Temps:          0       0       0       0       0       0       0       0       0       0       0       0       
      +0       0       0       0       0
  6190 ;;      Totals:         0       0       0       0       0       0       0       0       0       0       0       0       
      +0       0       0       0       0
  6191 ;;Total ram usage:        0 bytes
  6192 ;; Hardware stack levels used: 1
  6193 ;; This function calls:
  6194 ;;		Nothing
  6195 ;; This function is called by:
  6196 ;;		_InterruptManager
  6197 ;; This function uses a non-reentrant model
  6198 ;;
  6199                           
  6200                           	psect	text32
  6201  002FE6                     __ptext32:
  6202                           	callstack 0
  6203  002FE6                     _MSSP_I2C_BC_ISR:
  6204                           	callstack 25
  6205  002FE6                     
  6206                           ;MCAL_Layer/I2C/hal_i2c.c: 253:     (PIR2bits.BCLIF = 0);
  6207  002FE6  96A1               	bcf	161,3,c	;volatile
  6208  002FE8  0012               	return		;funcret
  6209  002FEA                     __end_of_MSSP_I2C_BC_ISR:
  6210                           	callstack 0
  6211                           
  6212 ;; *************** function _INT2_ISR *****************
  6213 ;; Defined at:
  6214 ;;		line 95 in file "MCAL_Layer/Interrupt/mcal_external_interrupt.c"
  6215 ;; Parameters:    Size  Location     Type
  6216 ;;		None
  6217 ;; Auto vars:     Size  Location     Type
  6218 ;;		None
  6219 ;; Return value:  Size  Location     Type
  6220 ;;                  1    wreg      void 
  6221 ;; Registers used:
  6222 ;;		None
  6223 ;; Tracked objects:
  6224 ;;		On entry : 0/0
  6225 ;;		On exit  : 0/0
  6226 ;;		Unchanged: 0/0
  6227 ;; Data sizes:     COMRAM   BANK0   BANK1   BANK2   BANK3   BANK4   BANK5   BANK6   BANK7   BANK8   BANK9  BANK10  BANK1
      +1  BANK12  BANK13  BANK14  BANK15
  6228 ;;      Params:         0       0       0       0       0       0       0       0       0       0       0       0       
      +0       0       0       0       0
  6229 ;;      Locals:         0       0       0       0       0       0       0       0       0       0       0       0       
      +0       0       0       0       0
  6230 ;;      Temps:          0       0       0       0       0       0       0       0       0       0       0       0       
      +0       0       0       0       0
  6231 ;;      Totals:         0       0       0       0       0       0       0       0       0       0       0       0       
      +0       0       0       0       0
  6232 ;;Total ram usage:        0 bytes
  6233 ;; Hardware stack levels used: 1
  6234 ;; This function calls:
  6235 ;;		Nothing
  6236 ;; This function is called by:
  6237 ;;		_InterruptManager
  6238 ;; This function uses a non-reentrant model
  6239 ;;
  6240                           
  6241                           	psect	text33
  6242  002FEA                     __ptext33:
  6243                           	callstack 0
  6244  002FEA                     _INT2_ISR:
  6245                           	callstack 25
  6246  002FEA                     
  6247                           ;MCAL_Layer/Interrupt/mcal_external_interrupt.c: 97:     (INTCON3bits.INT2IF = 0);
  6248  002FEA  92F0               	bcf	240,1,c	;volatile
  6249  002FEC  0012               	return		;funcret
  6250  002FEE                     __end_of_INT2_ISR:
  6251                           	callstack 0
  6252                           
  6253 ;; *************** function _INT1_ISR *****************
  6254 ;; Defined at:
  6255 ;;		line 86 in file "MCAL_Layer/Interrupt/mcal_external_interrupt.c"
  6256 ;; Parameters:    Size  Location     Type
  6257 ;;		None
  6258 ;; Auto vars:     Size  Location     Type
  6259 ;;		None
  6260 ;; Return value:  Size  Location     Type
  6261 ;;                  1    wreg      void 
  6262 ;; Registers used:
  6263 ;;		None
  6264 ;; Tracked objects:
  6265 ;;		On entry : 0/0
  6266 ;;		On exit  : 0/0
  6267 ;;		Unchanged: 0/0
  6268 ;; Data sizes:     COMRAM   BANK0   BANK1   BANK2   BANK3   BANK4   BANK5   BANK6   BANK7   BANK8   BANK9  BANK10  BANK1
      +1  BANK12  BANK13  BANK14  BANK15
  6269 ;;      Params:         0       0       0       0       0       0       0       0       0       0       0       0       
      +0       0       0       0       0
  6270 ;;      Locals:         0       0       0       0       0       0       0       0       0       0       0       0       
      +0       0       0       0       0
  6271 ;;      Temps:          0       0       0       0       0       0       0       0       0       0       0       0       
      +0       0       0       0       0
  6272 ;;      Totals:         0       0       0       0       0       0       0       0       0       0       0       0       
      +0       0       0       0       0
  6273 ;;Total ram usage:        0 bytes
  6274 ;; Hardware stack levels used: 1
  6275 ;; This function calls:
  6276 ;;		Nothing
  6277 ;; This function is called by:
  6278 ;;		_InterruptManager
  6279 ;; This function uses a non-reentrant model
  6280 ;;
  6281                           
  6282                           	psect	text34
  6283  002FEE                     __ptext34:
  6284                           	callstack 0
  6285  002FEE                     _INT1_ISR:
  6286                           	callstack 25
  6287  002FEE                     
  6288                           ;MCAL_Layer/Interrupt/mcal_external_interrupt.c: 88:     (INTCON3bits.INT1IF = 0);
  6289  002FEE  90F0               	bcf	240,0,c	;volatile
  6290  002FF0  0012               	return		;funcret
  6291  002FF2                     __end_of_INT1_ISR:
  6292                           	callstack 0
  6293                           
  6294 ;; *************** function _INT0_ISR *****************
  6295 ;; Defined at:
  6296 ;;		line 74 in file "MCAL_Layer/Interrupt/mcal_external_interrupt.c"
  6297 ;; Parameters:    Size  Location     Type
  6298 ;;		None
  6299 ;; Auto vars:     Size  Location     Type
  6300 ;;		None
  6301 ;; Return value:  Size  Location     Type
  6302 ;;                  1    wreg      void 
  6303 ;; Registers used:
  6304 ;;		None
  6305 ;; Tracked objects:
  6306 ;;		On entry : 0/0
  6307 ;;		On exit  : 0/0
  6308 ;;		Unchanged: 0/0
  6309 ;; Data sizes:     COMRAM   BANK0   BANK1   BANK2   BANK3   BANK4   BANK5   BANK6   BANK7   BANK8   BANK9  BANK10  BANK1
      +1  BANK12  BANK13  BANK14  BANK15
  6310 ;;      Params:         0       0       0       0       0       0       0       0       0       0       0       0       
      +0       0       0       0       0
  6311 ;;      Locals:         0       0       0       0       0       0       0       0       0       0       0       0       
      +0       0       0       0       0
  6312 ;;      Temps:          0       0       0       0       0       0       0       0       0       0       0       0       
      +0       0       0       0       0
  6313 ;;      Totals:         0       0       0       0       0       0       0       0       0       0       0       0       
      +0       0       0       0       0
  6314 ;;Total ram usage:        0 bytes
  6315 ;; Hardware stack levels used: 1
  6316 ;; This function calls:
  6317 ;;		Nothing
  6318 ;; This function is called by:
  6319 ;;		_InterruptManager
  6320 ;; This function uses a non-reentrant model
  6321 ;;
  6322                           
  6323                           	psect	text35
  6324  002FF2                     __ptext35:
  6325                           	callstack 0
  6326  002FF2                     _INT0_ISR:
  6327                           	callstack 25
  6328  002FF2                     
  6329                           ;MCAL_Layer/Interrupt/mcal_external_interrupt.c: 76:     (INTCONbits.INT0IF = 0);
  6330  002FF2  92F2               	bcf	242,1,c	;volatile
  6331  002FF4  0012               	return		;funcret
  6332  002FF6                     __end_of_INT0_ISR:
  6333                           	callstack 0
  6334                           
  6335 ;; *************** function _EUSART_TX_ISR *****************
  6336 ;; Defined at:
  6337 ;;		line 275 in file "MCAL_Layer/usart/hal_usart.c"
  6338 ;; Parameters:    Size  Location     Type
  6339 ;;		None
  6340 ;; Auto vars:     Size  Location     Type
  6341 ;;		None
  6342 ;; Return value:  Size  Location     Type
  6343 ;;                  1    wreg      void 
  6344 ;; Registers used:
  6345 ;;		wreg, fsr2l, fsr2h, status,2, status,0, pcl, pclath, pclatu, tosl, cstack
  6346 ;; Tracked objects:
  6347 ;;		On entry : 0/0
  6348 ;;		On exit  : 0/0
  6349 ;;		Unchanged: 0/0
  6350 ;; Data sizes:     COMRAM   BANK0   BANK1   BANK2   BANK3   BANK4   BANK5   BANK6   BANK7   BANK8   BANK9  BANK10  BANK1
      +1  BANK12  BANK13  BANK14  BANK15
  6351 ;;      Params:         0       0       0       0       0       0       0       0       0       0       0       0       
      +0       0       0       0       0
  6352 ;;      Locals:         0       0       0       0       0       0       0       0       0       0       0       0       
      +0       0       0       0       0
  6353 ;;      Temps:          0       0       0       0       0       0       0       0       0       0       0       0       
      +0       0       0       0       0
  6354 ;;      Totals:         0       0       0       0       0       0       0       0       0       0       0       0       
      +0       0       0       0       0
  6355 ;;Total ram usage:        0 bytes
  6356 ;; Hardware stack levels used: 1
  6357 ;; Hardware stack levels required when called: 2
  6358 ;; This function calls:
  6359 ;;		Absolute function
  6360 ;;		_usartTxHandeler
  6361 ;; This function is called by:
  6362 ;;		_InterruptManager
  6363 ;; This function uses a non-reentrant model
  6364 ;;
  6365                           
  6366                           	psect	text36
  6367  002EDA                     __ptext36:
  6368                           	callstack 0
  6369  002EDA                     _EUSART_TX_ISR:
  6370                           	callstack 23
  6371  002EDA                     
  6372                           ;MCAL_Layer/usart/hal_usart.c: 276:     (PIE1bits.TXIE = 0);
  6373  002EDA  989D               	bcf	157,4,c	;volatile
  6374  002EDC                     
  6375                           ;MCAL_Layer/usart/hal_usart.c: 277:     if(EUSART_TxInterruptHandler){
  6376  002EDC  5047               	movf	_EUSART_TxInterruptHandler^0,w,c
  6377  002EDE  1048               	iorwf	(_EUSART_TxInterruptHandler+1)^0,w,c
  6378  002EE0  B4D8               	btfsc	status,2,c
  6379  002EE2  EF75  F017         	goto	i2u574_41
  6380  002EE6  EF77  F017         	goto	i2u574_40
  6381  002EEA                     i2u574_41:
  6382  002EEA  EF83  F017         	goto	i2l1692
  6383  002EEE                     i2u574_40:
  6384  002EEE                     
  6385                           ;MCAL_Layer/usart/hal_usart.c: 278:         EUSART_TxInterruptHandler();
  6386  002EEE  D802               	call	i2u575_48
  6387  002EF0  EF83  F017         	goto	i2u575_49
  6388  002EF4                     i2u575_48:
  6389  002EF4  0005               	push	
  6390  002EF6  6EFA               	movwf	pclath,c
  6391  002EF8  5047               	movf	_EUSART_TxInterruptHandler^0,w,c
  6392  002EFA  6EFD               	movwf	tosl,c
  6393  002EFC  5048               	movf	(_EUSART_TxInterruptHandler+1)^0,w,c
  6394  002EFE  6EFE               	movwf	tosh,c
  6395  002F00  6AFF               	clrf	tosu,c
  6396  002F02  50FA               	movf	pclath,w,c
  6397  002F04  0012               	return		;indir
  6398  002F06                     i2u575_49:
  6399  002F06                     i2l1692:
  6400  002F06  0012               	return		;funcret
  6401  002F08                     __end_of_EUSART_TX_ISR:
  6402                           	callstack 0
  6403                           
  6404 ;; *************** function _usartTxHandeler *****************
  6405 ;; Defined at:
  6406 ;;		line 89 in file "application.c"
  6407 ;; Parameters:    Size  Location     Type
  6408 ;;		None
  6409 ;; Auto vars:     Size  Location     Type
  6410 ;;  timeRxArray     4    5[COMRAM] unsigned char [4]
  6411 ;; Return value:  Size  Location     Type
  6412 ;;                  1    wreg      void 
  6413 ;; Registers used:
  6414 ;;		wreg, fsr2l, fsr2h, status,2, status,0, cstack
  6415 ;; Tracked objects:
  6416 ;;		On entry : 0/0
  6417 ;;		On exit  : 0/0
  6418 ;;		Unchanged: 0/0
  6419 ;; Data sizes:     COMRAM   BANK0   BANK1   BANK2   BANK3   BANK4   BANK5   BANK6   BANK7   BANK8   BANK9  BANK10  BANK1
      +1  BANK12  BANK13  BANK14  BANK15
  6420 ;;      Params:         0       0       0       0       0       0       0       0       0       0       0       0       
      +0       0       0       0       0
  6421 ;;      Locals:         4       0       0       0       0       0       0       0       0       0       0       0       
      +0       0       0       0       0
  6422 ;;      Temps:          0       0       0       0       0       0       0       0       0       0       0       0       
      +0       0       0       0       0
  6423 ;;      Totals:         4       0       0       0       0       0       0       0       0       0       0       0       
      +0       0       0       0       0
  6424 ;;Total ram usage:        4 bytes
  6425 ;; Hardware stack levels used: 1
  6426 ;; Hardware stack levels required when called: 1
  6427 ;; This function calls:
  6428 ;;		_USART_Read_string
  6429 ;; This function is called by:
  6430 ;;		_EUSART_TX_ISR
  6431 ;; This function uses a non-reentrant model
  6432 ;;
  6433                           
  6434                           	psect	text37
  6435  002F08                     __ptext37:
  6436                           	callstack 0
  6437  002F08                     _usartTxHandeler:
  6438                           	callstack 23
  6439  002F08                     
  6440                           ;application.c: 91:     uint8 timeRxArray[4];;application.c: 92:     USART_Read_string(&
      +                          timeRxArray , 4);
  6441  002F08  0E06               	movlw	low usartTxHandeler@timeRxArray
  6442  002F0A  6E01               	movwf	USART_Read_string@buffer^0,c
  6443  002F0C  0E00               	movlw	high usartTxHandeler@timeRxArray
  6444  002F0E  6E02               	movwf	(USART_Read_string@buffer+1)^0,c
  6445  002F10  0E04               	movlw	4
  6446  002F12  6E03               	movwf	USART_Read_string@len^0,c
  6447  002F14  EC1A  F017         	call	_USART_Read_string	;wreg free
  6448  002F18                     
  6449                           ;application.c: 93:     hour = timeRxArray[0] - '0';
  6450  002F18  5006               	movf	usartTxHandeler@timeRxArray^0,w,c
  6451  002F1A  0FD0               	addlw	208
  6452  002F1C  6E66               	movwf	_hour^0,c
  6453  002F1E                     
  6454                           ;application.c: 94:     min = timeRxArray[1] - '0';
  6455  002F1E  5007               	movf	(usartTxHandeler@timeRxArray+1)^0,w,c
  6456  002F20  0FD0               	addlw	208
  6457  002F22  6E65               	movwf	_min^0,c
  6458  002F24                     
  6459                           ;application.c: 95:     sec = timeRxArray[2] - '0';
  6460  002F24  5008               	movf	(usartTxHandeler@timeRxArray+2)^0,w,c
  6461  002F26  0FD0               	addlw	208
  6462  002F28  6E64               	movwf	_sec^0,c
  6463  002F2A  0012               	return		;funcret
  6464  002F2C                     __end_of_usartTxHandeler:
  6465                           	callstack 0
  6466                           
  6467 ;; *************** function _USART_Read_string *****************
  6468 ;; Defined at:
  6469 ;;		line 104 in file "MCAL_Layer/usart/hal_usart.c"
  6470 ;; Parameters:    Size  Location     Type
  6471 ;;  buffer          2    0[COMRAM] PTR unsigned char 
  6472 ;;		 -> usartTxHandeler@timeRxArray(4), 
  6473 ;;  len             1    2[COMRAM] unsigned char 
  6474 ;; Auto vars:     Size  Location     Type
  6475 ;;  i               1    4[COMRAM] unsigned char 
  6476 ;;  data            1    3[COMRAM] unsigned char 
  6477 ;; Return value:  Size  Location     Type
  6478 ;;                  1    wreg      void 
  6479 ;; Registers used:
  6480 ;;		wreg, fsr2l, fsr2h, status,2, status,0
  6481 ;; Tracked objects:
  6482 ;;		On entry : 0/0
  6483 ;;		On exit  : 0/0
  6484 ;;		Unchanged: 0/0
  6485 ;; Data sizes:     COMRAM   BANK0   BANK1   BANK2   BANK3   BANK4   BANK5   BANK6   BANK7   BANK8   BANK9  BANK10  BANK1
      +1  BANK12  BANK13  BANK14  BANK15
  6486 ;;      Params:         3       0       0       0       0       0       0       0       0       0       0       0       
      +0       0       0       0       0
  6487 ;;      Locals:         2       0       0       0       0       0       0       0       0       0       0       0       
      +0       0       0       0       0
  6488 ;;      Temps:          0       0       0       0       0       0       0       0       0       0       0       0       
      +0       0       0       0       0
  6489 ;;      Totals:         5       0       0       0       0       0       0       0       0       0       0       0       
      +0       0       0       0       0
  6490 ;;Total ram usage:        5 bytes
  6491 ;; Hardware stack levels used: 1
  6492 ;; This function calls:
  6493 ;;		Nothing
  6494 ;; This function is called by:
  6495 ;;		_usartTxHandeler
  6496 ;; This function uses a non-reentrant model
  6497 ;;
  6498                           
  6499                           	psect	text38
  6500  002E34                     __ptext38:
  6501                           	callstack 0
  6502  002E34                     _USART_Read_string:
  6503                           	callstack 23
  6504  002E34                     
  6505                           ;MCAL_Layer/usart/hal_usart.c: 104: void USART_Read_string(char *buffer, unsigned char l
      +                          en);MCAL_Layer/usart/hal_usart.c: 105: {;MCAL_Layer/usart/hal_usart.c: 106:     char i;;
      +                          MCAL_Layer/usart/hal_usart.c: 107:     unsigned char data;;MCAL_Layer/usart/hal_usart.c:
      +                           109:     for(i=0;i<len;i++)
  6506  002E34  0E00               	movlw	0
  6507  002E36  6E05               	movwf	USART_Read_string@i^0,c
  6508  002E38  EF30  F017         	goto	i2l6287
  6509  002E3C                     i2l1639:
  6510  002E3C  AA9E               	btfss	158,5,c	;volatile
  6511  002E3E  EF23  F017         	goto	i2u535_41
  6512  002E42  EF25  F017         	goto	i2u535_40
  6513  002E46                     i2u535_41:
  6514  002E46  EF1E  F017         	goto	i2l1639
  6515  002E4A                     i2u535_40:
  6516  002E4A                     
  6517                           ;MCAL_Layer/usart/hal_usart.c: 113:         data = RCREG;
  6518  002E4A  CFAE F004          	movff	4014,USART_Read_string@data	;volatile
  6519  002E4E                     
  6520                           ;MCAL_Layer/usart/hal_usart.c: 115:         *buffer = data;
  6521  002E4E  C001  FFD9         	movff	USART_Read_string@buffer,fsr2l
  6522  002E52  C002  FFDA         	movff	USART_Read_string@buffer+1,fsr2h
  6523  002E56  C004  FFDF         	movff	USART_Read_string@data,indf2
  6524  002E5A                     
  6525                           ;MCAL_Layer/usart/hal_usart.c: 116:         buffer++;
  6526  002E5A  4A01               	infsnz	USART_Read_string@buffer^0,f,c
  6527  002E5C  2A02               	incf	(USART_Read_string@buffer+1)^0,f,c
  6528  002E5E                     
  6529                           ;MCAL_Layer/usart/hal_usart.c: 117:     }
  6530  002E5E  2A05               	incf	USART_Read_string@i^0,f,c
  6531  002E60                     i2l6287:
  6532  002E60  5003               	movf	USART_Read_string@len^0,w,c
  6533  002E62  5C05               	subwf	USART_Read_string@i^0,w,c
  6534  002E64  A0D8               	btfss	status,0,c
  6535  002E66  EF37  F017         	goto	i2u536_41
  6536  002E6A  EF39  F017         	goto	i2u536_40
  6537  002E6E                     i2u536_41:
  6538  002E6E  EF1E  F017         	goto	i2l1639
  6539  002E72                     i2u536_40:
  6540  002E72  0012               	return		;funcret
  6541  002E74                     __end_of_USART_Read_string:
  6542                           	callstack 0
  6543                           
  6544 ;; *************** function _EUSART_RX_ISR *****************
  6545 ;; Defined at:
  6546 ;;		line 282 in file "MCAL_Layer/usart/hal_usart.c"
  6547 ;; Parameters:    Size  Location     Type
  6548 ;;		None
  6549 ;; Auto vars:     Size  Location     Type
  6550 ;;		None
  6551 ;; Return value:  Size  Location     Type
  6552 ;;                  1    wreg      void 
  6553 ;; Registers used:
  6554 ;;		wreg, status,2, status,0
  6555 ;; Tracked objects:
  6556 ;;		On entry : 0/0
  6557 ;;		On exit  : 0/0
  6558 ;;		Unchanged: 0/0
  6559 ;; Data sizes:     COMRAM   BANK0   BANK1   BANK2   BANK3   BANK4   BANK5   BANK6   BANK7   BANK8   BANK9  BANK10  BANK1
      +1  BANK12  BANK13  BANK14  BANK15
  6560 ;;      Params:         0       0       0       0       0       0       0       0       0       0       0       0       
      +0       0       0       0       0
  6561 ;;      Locals:         0       0       0       0       0       0       0       0       0       0       0       0       
      +0       0       0       0       0
  6562 ;;      Temps:          0       0       0       0       0       0       0       0       0       0       0       0       
      +0       0       0       0       0
  6563 ;;      Totals:         0       0       0       0       0       0       0       0       0       0       0       0       
      +0       0       0       0       0
  6564 ;;Total ram usage:        0 bytes
  6565 ;; Hardware stack levels used: 1
  6566 ;; This function calls:
  6567 ;;		Nothing
  6568 ;; This function is called by:
  6569 ;;		_InterruptManager
  6570 ;; This function uses a non-reentrant model
  6571 ;;
  6572                           
  6573                           	psect	text39
  6574  003004                     __ptext39:
  6575                           	callstack 0
  6576  003004                     _EUSART_RX_ISR:
  6577                           	callstack 25
  6578  003004  0012               	return		;funcret
  6579  003006                     __end_of_EUSART_RX_ISR:
  6580                           	callstack 0
  6581                           
  6582 ;; *************** function _CCP2_ISR *****************
  6583 ;; Defined at:
  6584 ;;		line 260 in file "MCAL_Layer/CCP/hal_ccp.c"
  6585 ;; Parameters:    Size  Location     Type
  6586 ;;		None
  6587 ;; Auto vars:     Size  Location     Type
  6588 ;;		None
  6589 ;; Return value:  Size  Location     Type
  6590 ;;                  1    wreg      void 
  6591 ;; Registers used:
  6592 ;;		None
  6593 ;; Tracked objects:
  6594 ;;		On entry : 0/0
  6595 ;;		On exit  : 0/0
  6596 ;;		Unchanged: 0/0
  6597 ;; Data sizes:     COMRAM   BANK0   BANK1   BANK2   BANK3   BANK4   BANK5   BANK6   BANK7   BANK8   BANK9  BANK10  BANK1
      +1  BANK12  BANK13  BANK14  BANK15
  6598 ;;      Params:         0       0       0       0       0       0       0       0       0       0       0       0       
      +0       0       0       0       0
  6599 ;;      Locals:         0       0       0       0       0       0       0       0       0       0       0       0       
      +0       0       0       0       0
  6600 ;;      Temps:          0       0       0       0       0       0       0       0       0       0       0       0       
      +0       0       0       0       0
  6601 ;;      Totals:         0       0       0       0       0       0       0       0       0       0       0       0       
      +0       0       0       0       0
  6602 ;;Total ram usage:        0 bytes
  6603 ;; Hardware stack levels used: 1
  6604 ;; This function calls:
  6605 ;;		Nothing
  6606 ;; This function is called by:
  6607 ;;		_InterruptManager
  6608 ;; This function uses a non-reentrant model
  6609 ;;
  6610                           
  6611                           	psect	text40
  6612  002FF6                     __ptext40:
  6613                           	callstack 0
  6614  002FF6                     _CCP2_ISR:
  6615                           	callstack 25
  6616  002FF6                     
  6617                           ;MCAL_Layer/CCP/hal_ccp.c: 261:     (PIR2bits.CCP2IF = 0);
  6618  002FF6  90A1               	bcf	161,0,c	;volatile
  6619  002FF8  0012               	return		;funcret
  6620  002FFA                     __end_of_CCP2_ISR:
  6621                           	callstack 0
  6622                           
  6623 ;; *************** function _CCP1_ISR *****************
  6624 ;; Defined at:
  6625 ;;		line 252 in file "MCAL_Layer/CCP/hal_ccp.c"
  6626 ;; Parameters:    Size  Location     Type
  6627 ;;		None
  6628 ;; Auto vars:     Size  Location     Type
  6629 ;;		None
  6630 ;; Return value:  Size  Location     Type
  6631 ;;                  1    wreg      void 
  6632 ;; Registers used:
  6633 ;;		None
  6634 ;; Tracked objects:
  6635 ;;		On entry : 0/0
  6636 ;;		On exit  : 0/0
  6637 ;;		Unchanged: 0/0
  6638 ;; Data sizes:     COMRAM   BANK0   BANK1   BANK2   BANK3   BANK4   BANK5   BANK6   BANK7   BANK8   BANK9  BANK10  BANK1
      +1  BANK12  BANK13  BANK14  BANK15
  6639 ;;      Params:         0       0       0       0       0       0       0       0       0       0       0       0       
      +0       0       0       0       0
  6640 ;;      Locals:         0       0       0       0       0       0       0       0       0       0       0       0       
      +0       0       0       0       0
  6641 ;;      Temps:          0       0       0       0       0       0       0       0       0       0       0       0       
      +0       0       0       0       0
  6642 ;;      Totals:         0       0       0       0       0       0       0       0       0       0       0       0       
      +0       0       0       0       0
  6643 ;;Total ram usage:        0 bytes
  6644 ;; Hardware stack levels used: 1
  6645 ;; This function calls:
  6646 ;;		Nothing
  6647 ;; This function is called by:
  6648 ;;		_InterruptManager
  6649 ;; This function uses a non-reentrant model
  6650 ;;
  6651                           
  6652                           	psect	text41
  6653  002FFA                     __ptext41:
  6654                           	callstack 0
  6655  002FFA                     _CCP1_ISR:
  6656                           	callstack 25
  6657  002FFA                     
  6658                           ;MCAL_Layer/CCP/hal_ccp.c: 253:     (PIR1bits.CCP1IF = 0);
  6659  002FFA  949E               	bcf	158,2,c	;volatile
  6660  002FFC  0012               	return		;funcret
  6661  002FFE                     __end_of_CCP1_ISR:
  6662                           	callstack 0
  6663                           
  6664 ;; *************** function _ADC_ISR *****************
  6665 ;; Defined at:
  6666 ;;		line 296 in file "MCAL_Layer/ADC/hal_adc.c"
  6667 ;; Parameters:    Size  Location     Type
  6668 ;;		None
  6669 ;; Auto vars:     Size  Location     Type
  6670 ;;		None
  6671 ;; Return value:  Size  Location     Type
  6672 ;;                  1    wreg      void 
  6673 ;; Registers used:
  6674 ;;		None
  6675 ;; Tracked objects:
  6676 ;;		On entry : 0/0
  6677 ;;		On exit  : 0/0
  6678 ;;		Unchanged: 0/0
  6679 ;; Data sizes:     COMRAM   BANK0   BANK1   BANK2   BANK3   BANK4   BANK5   BANK6   BANK7   BANK8   BANK9  BANK10  BANK1
      +1  BANK12  BANK13  BANK14  BANK15
  6680 ;;      Params:         0       0       0       0       0       0       0       0       0       0       0       0       
      +0       0       0       0       0
  6681 ;;      Locals:         0       0       0       0       0       0       0       0       0       0       0       0       
      +0       0       0       0       0
  6682 ;;      Temps:          0       0       0       0       0       0       0       0       0       0       0       0       
      +0       0       0       0       0
  6683 ;;      Totals:         0       0       0       0       0       0       0       0       0       0       0       0       
      +0       0       0       0       0
  6684 ;;Total ram usage:        0 bytes
  6685 ;; Hardware stack levels used: 1
  6686 ;; This function calls:
  6687 ;;		Nothing
  6688 ;; This function is called by:
  6689 ;;		_InterruptManager
  6690 ;; This function uses a non-reentrant model
  6691 ;;
  6692                           
  6693                           	psect	text42
  6694  002FFE                     __ptext42:
  6695                           	callstack 0
  6696  002FFE                     _ADC_ISR:
  6697                           	callstack 25
  6698  002FFE                     
  6699                           ;MCAL_Layer/ADC/hal_adc.c: 297:     (PIR1bits.ADIF = 0);
  6700  002FFE  9C9E               	bcf	158,6,c	;volatile
  6701  003000  0012               	return		;funcret
  6702  003002                     __end_of_ADC_ISR:
  6703                           	callstack 0
  6704                           
  6705                           	psect	text43
  6706  000000                     __ptext43:
  6707                           	callstack 0
  6708  000000                     
  6709                           	psect	rparam
  6710  0000                     
  6711                           	psect	temp
  6712  000072                     btemp:
  6713                           	callstack 0
  6714  000072                     	ds	1
  6715  0000                     int$flags	set	btemp
  6716  0000                     wtemp8	set	btemp+1
  6717  0000                     ttemp5	set	btemp+1
  6718  0000                     ttemp6	set	btemp+4
  6719  0000                     ttemp7	set	btemp+8
  6720                           
  6721                           	psect	idloc
  6722                           
  6723                           ;Config register IDLOC0 @ 0x200000
  6724                           ;	unspecified, using default values
  6725  200000                     	org	2097152
  6726  200000  FF                 	db	255
  6727                           
  6728                           ;Config register IDLOC1 @ 0x200001
  6729                           ;	unspecified, using default values
  6730  200001                     	org	2097153
  6731  200001  FF                 	db	255
  6732                           
  6733                           ;Config register IDLOC2 @ 0x200002
  6734                           ;	unspecified, using default values
  6735  200002                     	org	2097154
  6736  200002  FF                 	db	255
  6737                           
  6738                           ;Config register IDLOC3 @ 0x200003
  6739                           ;	unspecified, using default values
  6740  200003                     	org	2097155
  6741  200003  FF                 	db	255
  6742                           
  6743                           ;Config register IDLOC4 @ 0x200004
  6744                           ;	unspecified, using default values
  6745  200004                     	org	2097156
  6746  200004  FF                 	db	255
  6747                           
  6748                           ;Config register IDLOC5 @ 0x200005
  6749                           ;	unspecified, using default values
  6750  200005                     	org	2097157
  6751  200005  FF                 	db	255
  6752                           
  6753                           ;Config register IDLOC6 @ 0x200006
  6754                           ;	unspecified, using default values
  6755  200006                     	org	2097158
  6756  200006  FF                 	db	255
  6757                           
  6758                           ;Config register IDLOC7 @ 0x200007
  6759                           ;	unspecified, using default values
  6760  200007                     	org	2097159
  6761  200007  FF                 	db	255
  6762                           
  6763                           	psect	config
  6764                           
  6765                           ; Padding undefined space
  6766  300000                     	org	3145728
  6767  300000  FF                 	db	255
  6768                           
  6769                           ;Config register CONFIG1H @ 0x300001
  6770                           ;	Oscillator Selection bits
  6771                           ;	OSC = HS, HS oscillator
  6772                           ;	Fail-Safe Clock Monitor Enable bit
  6773                           ;	FCMEN = OFF, Fail-Safe Clock Monitor disabled
  6774                           ;	Internal/External Oscillator Switchover bit
  6775                           ;	IESO = OFF, Oscillator Switchover mode disabled
  6776  300001                     	org	3145729
  6777  300001  02                 	db	2
  6778                           
  6779                           ;Config register CONFIG2L @ 0x300002
  6780                           ;	Power-up Timer Enable bit
  6781                           ;	PWRT = OFF, PWRT disabled
  6782                           ;	Brown-out Reset Enable bits
  6783                           ;	BOREN = OFF, Brown-out Reset disabled in hardware and software
  6784                           ;	Brown Out Reset Voltage bits
  6785                           ;	BORV = 1, 
  6786  300002                     	org	3145730
  6787  300002  09                 	db	9
  6788                           
  6789                           ;Config register CONFIG2H @ 0x300003
  6790                           ;	Watchdog Timer Enable bit
  6791                           ;	WDT = OFF, WDT disabled (control is placed on the SWDTEN bit)
  6792                           ;	Watchdog Timer Postscale Select bits
  6793                           ;	WDTPS = 512, 1:512
  6794  300003                     	org	3145731
  6795  300003  12                 	db	18
  6796                           
  6797                           ; Padding undefined space
  6798  300004                     	org	3145732
  6799  300004  FF                 	db	255
  6800                           
  6801                           ;Config register CONFIG3H @ 0x300005
  6802                           ;	CCP2 MUX bit
  6803                           ;	CCP2MX = PORTC, CCP2 input/output is multiplexed with RC1
  6804                           ;	PORTB A/D Enable bit
  6805                           ;	PBADEN = OFF, PORTB<4:0> pins are configured as digital I/O on Reset
  6806                           ;	Low-Power Timer1 Oscillator Enable bit
  6807                           ;	LPT1OSC = OFF, Timer1 configured for higher power operation
  6808                           ;	MCLR Pin Enable bit
  6809                           ;	MCLRE = ON, MCLR pin enabled; RE3 input pin disabled
  6810  300005                     	org	3145733
  6811  300005  81                 	db	129
  6812                           
  6813                           ;Config register CONFIG4L @ 0x300006
  6814                           ;	Stack Full/Underflow Reset Enable bit
  6815                           ;	STVREN = ON, Stack full/underflow will cause Reset
  6816                           ;	Single-Supply ICSP Enable bit
  6817                           ;	LVP = OFF, Single-Supply ICSP disabled
  6818                           ;	Extended Instruction Set Enable bit
  6819                           ;	XINST = OFF, Instruction set extension and Indexed Addressing mode disabled (Legacy mo
      +                          de)
  6820                           ;	Background Debugger Enable bit
  6821                           ;	DEBUG = 0x1, unprogrammed default
  6822  300006                     	org	3145734
  6823  300006  81                 	db	129
  6824                           
  6825                           ; Padding undefined space
  6826  300007                     	org	3145735
  6827  300007  FF                 	db	255
  6828                           
  6829                           ;Config register CONFIG5L @ 0x300008
  6830                           ;	Code Protection bit
  6831                           ;	CP0 = OFF, Block 0 (000800-003FFFh) not code-protected
  6832                           ;	Code Protection bit
  6833                           ;	CP1 = OFF, Block 1 (004000-007FFFh) not code-protected
  6834                           ;	Code Protection bit
  6835                           ;	CP2 = OFF, Block 2 (008000-00BFFFh) not code-protected
  6836                           ;	Code Protection bit
  6837                           ;	CP3 = OFF, Block 3 (00C000-00FFFFh) not code-protected
  6838  300008                     	org	3145736
  6839  300008  0F                 	db	15
  6840                           
  6841                           ;Config register CONFIG5H @ 0x300009
  6842                           ;	Boot Block Code Protection bit
  6843                           ;	CPB = OFF, Boot block (000000-0007FFh) not code-protected
  6844                           ;	Data EEPROM Code Protection bit
  6845                           ;	CPD = OFF, Data EEPROM not code-protected
  6846  300009                     	org	3145737
  6847  300009  C0                 	db	192
  6848                           
  6849                           ;Config register CONFIG6L @ 0x30000A
  6850                           ;	Write Protection bit
  6851                           ;	WRT0 = OFF, Block 0 (000800-003FFFh) not write-protected
  6852                           ;	Write Protection bit
  6853                           ;	WRT1 = OFF, Block 1 (004000-007FFFh) not write-protected
  6854                           ;	Write Protection bit
  6855                           ;	WRT2 = OFF, Block 2 (008000-00BFFFh) not write-protected
  6856                           ;	Write Protection bit
  6857                           ;	WRT3 = OFF, Block 3 (00C000-00FFFFh) not write-protected
  6858  30000A                     	org	3145738
  6859  30000A  0F                 	db	15
  6860                           
  6861                           ;Config register CONFIG6H @ 0x30000B
  6862                           ;	Configuration Register Write Protection bit
  6863                           ;	WRTC = OFF, Configuration registers (300000-3000FFh) not write-protected
  6864                           ;	Boot Block Write Protection bit
  6865                           ;	WRTB = OFF, Boot Block (000000-0007FFh) not write-protected
  6866                           ;	Data EEPROM Write Protection bit
  6867                           ;	WRTD = OFF, Data EEPROM not write-protected
  6868  30000B                     	org	3145739
  6869  30000B  E0                 	db	224
  6870                           
  6871                           ;Config register CONFIG7L @ 0x30000C
  6872                           ;	Table Read Protection bit
  6873                           ;	EBTR0 = OFF, Block 0 (000800-003FFFh) not protected from table reads executed in other
      +                           blocks
  6874                           ;	Table Read Protection bit
  6875                           ;	EBTR1 = OFF, Block 1 (004000-007FFFh) not protected from table reads executed in other
      +                           blocks
  6876                           ;	Table Read Protection bit
  6877                           ;	EBTR2 = OFF, Block 2 (008000-00BFFFh) not protected from table reads executed in other
      +                           blocks
  6878                           ;	Table Read Protection bit
  6879                           ;	EBTR3 = OFF, Block 3 (00C000-00FFFFh) not protected from table reads executed in other
      +                           blocks
  6880  30000C                     	org	3145740
  6881  30000C  0F                 	db	15
  6882                           
  6883                           ;Config register CONFIG7H @ 0x30000D
  6884                           ;	Boot Block Table Read Protection bit
  6885                           ;	EBTRB = OFF, Boot Block (000000-0007FFh) not protected from table reads executed in ot
      +                          her blocks
  6886  30000D                     	org	3145741
  6887  30000D  40                 	db	64
  6888                           tosu	equ	0xFFF
  6889                           tosh	equ	0xFFE
  6890                           tosl	equ	0xFFD
  6891                           stkptr	equ	0xFFC
  6892                           pclatu	equ	0xFFB
  6893                           pclath	equ	0xFFA
  6894                           pcl	equ	0xFF9
  6895                           tblptru	equ	0xFF8
  6896                           tblptrh	equ	0xFF7
  6897                           tblptrl	equ	0xFF6
  6898                           tablat	equ	0xFF5
  6899                           prodh	equ	0xFF4
  6900                           prodl	equ	0xFF3
  6901                           indf0	equ	0xFEF
  6902                           postinc0	equ	0xFEE
  6903                           postdec0	equ	0xFED
  6904                           preinc0	equ	0xFEC
  6905                           plusw0	equ	0xFEB
  6906                           fsr0h	equ	0xFEA
  6907                           fsr0l	equ	0xFE9
  6908                           wreg	equ	0xFE8
  6909                           indf1	equ	0xFE7
  6910                           postinc1	equ	0xFE6
  6911                           postdec1	equ	0xFE5
  6912                           preinc1	equ	0xFE4
  6913                           plusw1	equ	0xFE3
  6914                           fsr1h	equ	0xFE2
  6915                           fsr1l	equ	0xFE1
  6916                           bsr	equ	0xFE0
  6917                           indf2	equ	0xFDF
  6918                           postinc2	equ	0xFDE
  6919                           postdec2	equ	0xFDD
  6920                           preinc2	equ	0xFDC
  6921                           plusw2	equ	0xFDB
  6922                           fsr2h	equ	0xFDA
  6923                           fsr2l	equ	0xFD9
  6924                           status	equ	0xFD8

Data Sizes:
    Strings     3
    Constant    16
    Data        67
    BSS         73
    Persistent  1
    Stack       0

Auto Spaces:
    Space          Size  Autos    Used
    COMRAM          126     70     113
    BANK0           128     13     111
    BANK1           256      0       0
    BANK2           256      0       0
    BANK3           256      0       0
    BANK4           256      0       0
    BANK5           256      0       0
    BANK6           256      0       0
    BANK7           256      0       0
    BANK8           256      0       0
    BANK9           256      0       0
    BANK10          256      0       0
    BANK11          256      0       0
    BANK12          256      0       0
    BANK13          256      0       0
    BANK14          256      0       0
    BANK15          128      0       0

Pointer List with Targets:

    vfprintf$2	PTR PTR void  size(2) Largest target is 2
		 -> sprintf@ap(COMRAM[2]), 

    vfprintf$1	PTR const unsigned char  size(2) Largest target is 3
		 -> STR_3(CODE[3]), STR_2(CODE[3]), STR_1(CODE[3]), 

    vfprintf$0	PTR struct _IO_FILE size(2) Largest target is 11
		 -> sprintf@f(COMRAM[11]), 

    S4921$source	PTR const unsigned char  size(2) Largest target is 0

    f...source	PTR const unsigned char  size(2) Largest target is 0

    S4921$buffer	PTR unsigned char  size(2) Largest target is 0

    f...buffer	PTR unsigned char  size(2) Largest target is 0

    usart_1.EUSART_OverrunErrorHandler	PTR FTN()void  size(2) Largest target is 1
		 -> Absolute function(), 

    usart_1.EUSART_FramingErrorHandler	PTR FTN()void  size(2) Largest target is 1
		 -> Absolute function(), 

    usart_1.EUSART_RxDefaultInterruptHandler	PTR FTN()void  size(2) Largest target is 1
		 -> Absolute function(), 

    usart_1.EUSART_TxDefaultInterruptHandler	PTR FTN()void  size(2) Largest target is 1
		 -> usartTxHandeler(), 

    EUSART_OverrunErrorHandler	PTR FTN()void  size(2) Largest target is 1
		 -> Absolute function(), 

    EUSART_FramingErrorHandler	PTR FTN()void  size(2) Largest target is 1
		 -> Absolute function(), 

    EUSART_RxInterruptHandler	PTR FTN()void  size(2) Largest target is 1
		 -> Absolute function(), 

    EUSART_ASYNC_RX_Init@_eusart.EUSART_OverrunErrorHandler	PTR FTN()void  size(2) Largest target is 1
		 -> Absolute function(), 

    EUSART_ASYNC_RX_Init@_eusart.EUSART_FramingErrorHandler	PTR FTN()void  size(2) Largest target is 1
		 -> Absolute function(), 

    EUSART_ASYNC_RX_Init@_eusart.EUSART_RxDefaultInterruptHandler	PTR FTN()void  size(2) Largest target is 1
		 -> Absolute function(), 

    EUSART_ASYNC_RX_Init@_eusart.EUSART_TxDefaultInterruptHandler	PTR FTN()void  size(2) Largest target is 1
		 -> usartTxHandeler(), 

    EUSART_ASYNC_RX_Init@_eusart	PTR const struct . size(2) Largest target is 18
		 -> usart_1(BANK0[18]), 

    EUSART_TxInterruptHandler	PTR FTN()void  size(2) Largest target is 1
		 -> usartTxHandeler(), Absolute function(), 

    EUSART_ASYNC_TX_Init@_eusart.EUSART_OverrunErrorHandler	PTR FTN()void  size(2) Largest target is 1
		 -> Absolute function(), 

    EUSART_ASYNC_TX_Init@_eusart.EUSART_FramingErrorHandler	PTR FTN()void  size(2) Largest target is 1
		 -> Absolute function(), 

    EUSART_ASYNC_TX_Init@_eusart.EUSART_RxDefaultInterruptHandler	PTR FTN()void  size(2) Largest target is 1
		 -> Absolute function(), 

    EUSART_ASYNC_TX_Init@_eusart.EUSART_TxDefaultInterruptHandler	PTR FTN()void  size(2) Largest target is 1
		 -> usartTxHandeler(), 

    EUSART_ASYNC_TX_Init@_eusart	PTR const struct . size(2) Largest target is 18
		 -> usart_1(BANK0[18]), 

    S3908$EUSART_OverrunErrorHandler	PTR FTN()void  size(2) Largest target is 1
		 -> Absolute function(), 

    EUSART_Baud_Rate_Calculation@_eusart.EUSART_OverrunErrorHandler	PTR FTN()void  size(2) Largest target is 1
		 -> Absolute function(), 

    S3908$EUSART_FramingErrorHandler	PTR FTN()void  size(2) Largest target is 1
		 -> Absolute function(), 

    EUSART_Baud_Rate_Calculation@_eusart.EUSART_FramingErrorHandler	PTR FTN()void  size(2) Largest target is 1
		 -> Absolute function(), 

    S3908$EUSART_RxDefaultInterruptHandler	PTR FTN()void  size(2) Largest target is 1
		 -> Absolute function(), 

    EUSART_Baud_Rate_Calculation@_eusart.EUSART_RxDefaultInterruptHandler	PTR FTN()void  size(2) Largest target is 1
		 -> Absolute function(), 

    S3908$EUSART_TxDefaultInterruptHandler	PTR FTN()void  size(2) Largest target is 1
		 -> usartTxHandeler(), 

    EUSART_Baud_Rate_Calculation@_eusart.EUSART_TxDefaultInterruptHandler	PTR FTN()void  size(2) Largest target is 1
		 -> usartTxHandeler(), 

    EUSART_Baud_Rate_Calculation@_eusart	PTR const struct . size(2) Largest target is 18
		 -> usart_1(BANK0[18]), 

    USART_Read_string@buffer	PTR unsigned char  size(2) Largest target is 4
		 -> usartTxHandeler@timeRxArray(COMRAM[4]), 

    EUSART_ASYNC_Init@_eusart	PTR const struct . size(2) Largest target is 18
		 -> usart_1(BANK0[18]), 

    Timer3_Mode_Select@_timer.TMR3_InterruptHandler	PTR FTN()void  size(2) Largest target is 0

    TMR3_InterruptHandler	PTR FTN()void  size(2) Largest target is 1
		 -> Absolute function(), 

    S3714$TMR3_InterruptHandler	PTR FTN()void  size(2) Largest target is 0

    Timer3_Init@_timer.TMR3_InterruptHandler	PTR FTN()void  size(2) Largest target is 0

    TMR2_InterruptHandler	PTR FTN()void  size(2) Largest target is 1
		 -> Absolute function(), 

    S3585$TMR2_InterruptHandler	PTR FTN()void  size(2) Largest target is 0

    Timer2_Init@_timer.TMR2_InterruptHandler	PTR FTN()void  size(2) Largest target is 0

    Timer1_Mode_Select@_timer.TMR1_InterruptHandler	PTR FTN()void  size(2) Largest target is 0

    TMR1_InterruptHandler	PTR FTN()volatile void  size(2) Largest target is 1
		 -> Absolute function(), 

    S3395$TMR1_InterruptHandler	PTR FTN()void  size(2) Largest target is 0

    Timer1_Init@_timer.TMR1_InterruptHandler	PTR FTN()void  size(2) Largest target is 0

    Timer0_Register_Size_Config@_timer.TMR0_InterruptHandler	PTR FTN()void  size(2) Largest target is 0

    Timer0_Mode_Select@_timer.TMR0_InterruptHandler	PTR FTN()void  size(2) Largest target is 0

    Timer0_Prescaler_Config@_timer.TMR0_InterruptHandler	PTR FTN()void  size(2) Largest target is 0

    TMR0_InterruptHandler	PTR FTN()void  size(2) Largest target is 1
		 -> Absolute function(), 

    S3230$TMR0_InterruptHandler	PTR FTN()void  size(2) Largest target is 0

    Timer0_Init@_timer.TMR0_InterruptHandler	PTR FTN()void  size(2) Largest target is 0

    Interrupt_INTx_SetInterruptHandler@int_obj.EXT_InterruptHandler	PTR FTN()void  size(2) Largest target is 0

    Interrupt_INTx_Clear_Flag@int_obj.EXT_InterruptHandler	PTR FTN()void  size(2) Largest target is 0

    Interrupt_INTx_Pin_Init@int_obj.EXT_InterruptHandler	PTR FTN()void  size(2) Largest target is 0

    Interrupt_INTx_Edge_Init@int_obj.EXT_InterruptHandler	PTR FTN()void  size(2) Largest target is 0

    Interrupt_INTx_Disable@int_obj.EXT_InterruptHandler	PTR FTN()void  size(2) Largest target is 0

    S2356$EXT_InterruptHandler	PTR FTN()void  size(2) Largest target is 0

    Interrupt_INTx_Enable@int_obj.EXT_InterruptHandler	PTR FTN()void  size(2) Largest target is 0

    S2472$EXT_InterruptHandler_LOW	PTR FTN()void  size(2) Largest target is 0

    Interrupt_RBx_Init@int_obj.EXT_InterruptHandler_LOW	PTR FTN()void  size(2) Largest target is 0

    S2472$EXT_InterruptHandler_HIGH	PTR FTN()void  size(2) Largest target is 0

    Interrupt_RBx_Init@int_obj.EXT_InterruptHandler_HIGH	PTR FTN()void  size(2) Largest target is 0

    RB7_InterruptHandler_LOW	PTR FTN()void  size(2) Largest target is 1
		 -> Absolute function(), 

    RB7_InterruptHandler_HIGH	PTR FTN()void  size(2) Largest target is 1
		 -> Absolute function(), 

    RB6_InterruptHandler_LOW	PTR FTN()void  size(2) Largest target is 1
		 -> Absolute function(), 

    RB6_InterruptHandler_HIGH	PTR FTN()void  size(2) Largest target is 1
		 -> Absolute function(), 

    RB5_InterruptHandler_LOW	PTR FTN()void  size(2) Largest target is 1
		 -> Absolute function(), 

    RB5_InterruptHandler_HIGH	PTR FTN()void  size(2) Largest target is 1
		 -> Absolute function(), 

    RB4_InterruptHandler_LOW	PTR FTN()void  size(2) Largest target is 1
		 -> Absolute function(), 

    RB4_InterruptHandler_HIGH	PTR FTN()void  size(2) Largest target is 1
		 -> Absolute function(), 

    INT2_InterruptHandler	PTR FTN()void  size(2) Largest target is 1
		 -> Absolute function(), 

    INT1_InterruptHandler	PTR FTN()void  size(2) Largest target is 1
		 -> Absolute function(), 

    INT0_InterruptHandler	PTR FTN()void  size(2) Largest target is 1
		 -> Absolute function(), 

    I2C_Report_Receive_Overflow_InterruptHandle	PTR FTN()void  size(2) Largest target is 1
		 -> Absolute function(), 

    MSSP_I2C_Interrupt_Configurations@i2c_obj.I2C_Report_Receive_Overflow	PTR FTN()void  size(2) Largest target is 0

    MSSP_I2C_Interrupt_Configurations@i2c_obj.I2C_DefaultInterruptHandler	PTR FTN()void  size(2) Largest target is 0

    MSSP_I2C_Interrupt_Configurations@i2c_obj.I2C_Report_Write_Collision	PTR FTN()void  size(2) Largest target is 0

    I2C_Slave_Mode_Configurations@i2c_obj.I2C_Report_Receive_Overflow	PTR FTN()void  size(2) Largest target is 0

    I2C_Slave_Mode_Configurations@i2c_obj.I2C_DefaultInterruptHandler	PTR FTN()void  size(2) Largest target is 0

    I2C_Slave_Mode_Configurations@i2c_obj.I2C_Report_Write_Collision	PTR FTN()void  size(2) Largest target is 0

    I2C_Master_Mode_Clock_Configurations@i2c_obj.I2C_Report_Receive_Overflow	PTR FTN()void  size(2) Largest target is 0

    I2C_Master_Mode_Clock_Configurations@i2c_obj.I2C_DefaultInterruptHandler	PTR FTN()void  size(2) Largest target is 0

    I2C_Master_Mode_Clock_Configurations@i2c_obj.I2C_Report_Write_Collision	PTR FTN()void  size(2) Largest target is 0

    I2C_Report_Write_Collision_InterruptHandler	PTR FTN()void  size(2) Largest target is 1
		 -> Absolute function(), 

    I2C_DefaultInterruptHandle	PTR FTN()void  size(2) Largest target is 1
		 -> Absolute function(), 

    S1835$I2C_Report_Receive_Overflow	PTR FTN()void  size(2) Largest target is 0

    MSSP_I2C_Init@i2c_obj.I2C_Report_Receive_Overflow	PTR FTN()void  size(2) Largest target is 0

    S1835$I2C_DefaultInterruptHandler	PTR FTN()void  size(2) Largest target is 0

    MSSP_I2C_Init@i2c_obj.I2C_DefaultInterruptHandler	PTR FTN()void  size(2) Largest target is 0

    S1835$I2C_Report_Write_Collision	PTR FTN()void  size(2) Largest target is 0

    MSSP_I2C_Init@i2c_obj.I2C_Report_Write_Collision	PTR FTN()void  size(2) Largest target is 0

    gpio_pin_intialize@_pin_config	PTR const struct . size(2) Largest target is 5
		 -> seg.segment_pins(BANK0[4]), seg(BANK0[5]), relay_initialize@pin_obj(COMRAM[1]), led_initialize@pin_obj(COMRAM[1]), 

    gpio_pin_write_logic@_pin_config	PTR const struct . size(2) Largest target is 5
		 -> seg.segment_pins(BANK0[4]), seg(BANK0[5]), relay_turn_off@pin_obj(COMRAM[1]), relay_turn_on@pin_obj(COMRAM[1]), 
		 -> relay_initialize@pin_obj(COMRAM[1]), led_turn_off@pin_obj(COMRAM[1]), led_turn_on@pin_obj(COMRAM[1]), led_initialize@pin_obj(COMRAM[1]), 

    gpio_pin_direction_intialize@_pin_config	PTR const struct . size(2) Largest target is 5
		 -> seg.segment_pins(BANK0[4]), seg(BANK0[5]), MSSP_SPI_Slave_Mode_GPIO_PIN_Configurations@SPI_SS(COMRAM[1]), MSSP_SPI_Slave_Mode_GPIO_PIN_Configurations@SPI_CLK(COMRAM[1]), 
		 -> MSSP_SPI_Slave_Mode_GPIO_PIN_Configurations@SPI_SDI(COMRAM[1]), MSSP_SPI_Slave_Mode_GPIO_PIN_Configurations@SPI_SDO(COMRAM[1]), MSSP_SPI_Msster_Mode_GPIO_PIN_Configurations@SPI_CLK(COMRAM[1]), MSSP_SPI_Msster_Mode_GPIO_PIN_Configurations@SPI_SDI(COMRAM[1]), 
		 -> MSSP_SPI_Msster_Mode_GPIO_PIN_Configurations@SPI_SDO(COMRAM[1]), relay_initialize@pin_obj(COMRAM[1]), led_initialize@pin_obj(COMRAM[1]), 

    port_registers	PTR volatile unsigned char [5] size(2) Largest target is 1
		 -> PORTE(BITBIGSFRlllll[1]), PORTD(BITBIGSFRlllll[1]), PORTC(BITBIGSFRlllll[1]), PORTB(BITBIGSFRlllll[1]), 
		 -> PORTA(BITBIGSFRlllll[1]), 

    lat_registers	PTR volatile unsigned char [5] size(2) Largest target is 1
		 -> LATE(BITBIGSFRllllh[1]), LATD(BITBIGSFRllllh[1]), LATC(BITBIGSFRllllh[1]), LATB(BITBIGSFRllllh[1]), 
		 -> LATA(BITBIGSFRlllll[1]), 

    tris_registers	PTR volatile unsigned char [5] size(2) Largest target is 1
		 -> TRISD(ABS[1]), TRISC(ABS[1]), TRISB(ABS[1]), TRISE(ABS[1]), 
		 -> TRISA(BITBIGSFRlllll[1]), 

    CCP_Compare_Mode_Config@_ccp_obj.CCP2_InterruptHandler	PTR FTN()void  size(2) Largest target is 0

    CCP_Compare_Mode_Config@_ccp_obj.CCP1_InterruptHandler	PTR FTN()void  size(2) Largest target is 0

    CCP_Capture_Mode_Config@_ccp_obj.CCP2_InterruptHandler	PTR FTN()void  size(2) Largest target is 0

    CCP_Capture_Mode_Config@_ccp_obj.CCP1_InterruptHandler	PTR FTN()void  size(2) Largest target is 0

    CCP_Mode_Timer_Select@_ccp_obj.CCP2_InterruptHandler	PTR FTN()void  size(2) Largest target is 0

    CCP_Mode_Timer_Select@_ccp_obj.CCP1_InterruptHandler	PTR FTN()void  size(2) Largest target is 0

    CCP_Interrupt_Config@_ccp_obj.CCP2_InterruptHandler	PTR FTN()void  size(2) Largest target is 0

    CCP_Interrupt_Config@_ccp_obj.CCP1_InterruptHandler	PTR FTN()void  size(2) Largest target is 0

    CCP_PWM_Mode_Config@_ccp_obj.CCP2_InterruptHandler	PTR FTN()void  size(2) Largest target is 0

    CCP_PWM_Mode_Config@_ccp_obj.CCP1_InterruptHandler	PTR FTN()void  size(2) Largest target is 0

    CCP2_InterruptHandler	PTR FTN()void  size(2) Largest target is 1
		 -> Absolute function(), 

    CCP1_InterruptHandler	PTR FTN()void  size(2) Largest target is 1
		 -> Absolute function(), 

    CCP_PWM_Stop@_ccp_obj.CCP2_InterruptHandler	PTR FTN()void  size(2) Largest target is 0

    CCP_PWM_Stop@_ccp_obj.CCP1_InterruptHandler	PTR FTN()void  size(2) Largest target is 0

    CCP_PWM_Start@_ccp_obj.CCP2_InterruptHandler	PTR FTN()void  size(2) Largest target is 0

    CCP_PWM_Start@_ccp_obj.CCP1_InterruptHandler	PTR FTN()void  size(2) Largest target is 0

    CCP_PWM_Set_Duty@_ccp_obj.CCP2_InterruptHandler	PTR FTN()void  size(2) Largest target is 0

    CCP_PWM_Set_Duty@_ccp_obj.CCP1_InterruptHandler	PTR FTN()void  size(2) Largest target is 0

    CCP_DeInit@_ccp_obj.CCP2_InterruptHandler	PTR FTN()void  size(2) Largest target is 0

    CCP_DeInit@_ccp_obj.CCP1_InterruptHandler	PTR FTN()void  size(2) Largest target is 0

    S1124$CCP2_InterruptHandler	PTR FTN()void  size(2) Largest target is 0

    CCP_Init@_ccp_obj.CCP2_InterruptHandler	PTR FTN()void  size(2) Largest target is 0

    S1124$CCP1_InterruptHandler	PTR FTN()void  size(2) Largest target is 0

    CCP_Init@_ccp_obj.CCP1_InterruptHandler	PTR FTN()void  size(2) Largest target is 0

    configure_voltage_reference@_adc.ADC_InterruptHandler	PTR FTN()void  size(2) Largest target is 0

    select_result_format@_adc.ADC_InterruptHandler	PTR FTN()void  size(2) Largest target is 0

    ADC_GetConversionResult@_adc.ADC_InterruptHandler	PTR FTN()void  size(2) Largest target is 0

    ADC_InterruptHandler	PTR FTN()void  size(2) Largest target is 1
		 -> Absolute function(), 

    S706$ADC_InterruptHandler	PTR FTN()void  size(2) Largest target is 0

    ADC_Init@_adc.ADC_InterruptHandler	PTR FTN()void  size(2) Largest target is 0

    sp__memset	PTR void  size(2) Largest target is 0

    seven_segement_write_number@seg	PTR const struct . size(2) Largest target is 5
		 -> seg(BANK0[5]), 

    seven_segement_intialize@seg	PTR const struct . size(2) Largest target is 5
		 -> seg(BANK0[5]), 


Critical Paths under _main in COMRAM

    _seven_segement_intialize->_gpio_pin_intialize
    _gpio_pin_intialize->_gpio_pin_write_logic
    _EUSART_ASYNC_Init->_EUSART_Baud_Rate_Calculation
    _EUSART_Baud_Rate_Calculation->___fladd
    ___fldiv->___xxtofl
    ___fladd->___fldiv
    _SegmentsUpdate->_seven_segement_write_number
    _seven_segement_write_number->_gpio_pin_write_logic

Critical Paths under _InterruptManager in COMRAM

    _EUSART_TX_ISR->_usartTxHandeler
    _usartTxHandeler->_USART_Read_string

Critical Paths under _main in BANK0

    _application_intialize->_EUSART_ASYNC_Init
    _EUSART_ASYNC_Init->_EUSART_Baud_Rate_Calculation

Critical Paths under _InterruptManager in BANK0

    None.

Critical Paths under _main in BANK1

    None.

Critical Paths under _InterruptManager in BANK1

    None.

Critical Paths under _main in BANK2

    None.

Critical Paths under _InterruptManager in BANK2

    None.

Critical Paths under _main in BANK3

    None.

Critical Paths under _InterruptManager in BANK3

    None.

Critical Paths under _main in BANK4

    None.

Critical Paths under _InterruptManager in BANK4

    None.

Critical Paths under _main in BANK5

    None.

Critical Paths under _InterruptManager in BANK5

    None.

Critical Paths under _main in BANK6

    None.

Critical Paths under _InterruptManager in BANK6

    None.

Critical Paths under _main in BANK7

    None.

Critical Paths under _InterruptManager in BANK7

    None.

Critical Paths under _main in BANK8

    None.

Critical Paths under _InterruptManager in BANK8

    None.

Critical Paths under _main in BANK9

    None.

Critical Paths under _InterruptManager in BANK9

    None.

Critical Paths under _main in BANK10

    None.

Critical Paths under _InterruptManager in BANK10

    None.

Critical Paths under _main in BANK11

    None.

Critical Paths under _InterruptManager in BANK11

    None.

Critical Paths under _main in BANK12

    None.

Critical Paths under _InterruptManager in BANK12

    None.

Critical Paths under _main in BANK13

    None.

Critical Paths under _InterruptManager in BANK13

    None.

Critical Paths under _main in BANK14

    None.

Critical Paths under _InterruptManager in BANK14

    None.

Critical Paths under _main in BANK15

    None.

Critical Paths under _InterruptManager in BANK15

    None.

Call Graph Tables:

 ---------------------------------------------------------------------------------
 (Depth) Function   	        Calls       Base Space   Used Autos Params    Refs
 ---------------------------------------------------------------------------------
 (0) _main                                                 0     0      0   28849
                     _SegmentsUpdate
                        _TimesUpdate
              _application_intialize
 ---------------------------------------------------------------------------------
 (1) _application_intialize                                0     0      0   20440
                  _EUSART_ASYNC_Init
      _gpio_port_direction_intialize
           _seven_segement_intialize
 ---------------------------------------------------------------------------------
 (2) _seven_segement_intialize                             3     1      2    8004
                                             27 COMRAM     3     1      2
                 _gpio_pin_intialize
 ---------------------------------------------------------------------------------
 (3) _gpio_pin_intialize                                   4     2      2    7790
                                             23 COMRAM     4     2      2
       _gpio_pin_direction_intialize
               _gpio_pin_write_logic
 ---------------------------------------------------------------------------------
 (4) _gpio_pin_direction_intialize                         9     7      2    1091
                                             13 COMRAM     9     7      2
 ---------------------------------------------------------------------------------
 (2) _gpio_port_direction_intialize                        5     4      1     166
                                             13 COMRAM     5     4      1
 ---------------------------------------------------------------------------------
 (2) _EUSART_ASYNC_Init                                    3     1      2   12270
                                             10 BANK0      3     1      2
               _EUSART_ASYNC_RX_Init
               _EUSART_ASYNC_TX_Init
       _EUSART_Baud_Rate_Calculation
 ---------------------------------------------------------------------------------
 (3) _EUSART_Baud_Rate_Calculation                        12    10      2   11402
                                             68 COMRAM     2     0      2
                                              0 BANK0     10    10      0
                            ___fladd
                            ___fldiv
                            ___fltol
                           ___xxtofl
 ---------------------------------------------------------------------------------
 (4) ___xxtofl                                            14    10      4    1466
                                             13 COMRAM    14    10      4
 ---------------------------------------------------------------------------------
 (4) ___fltol                                             10     6      4     877
                                             13 COMRAM    10     6      4
 ---------------------------------------------------------------------------------
 (4) ___fldiv                                             25    17      8    3983
                                             27 COMRAM    25    17      8
                           ___xxtofl (ARG)
 ---------------------------------------------------------------------------------
 (4) ___fladd                                             16     8      8    4482
                                             52 COMRAM    16     8      8
                            ___fldiv (ARG)
                           ___xxtofl (ARG)
 ---------------------------------------------------------------------------------
 (3) _EUSART_ASYNC_TX_Init                                 2     0      2     276
                                             13 COMRAM     2     0      2
 ---------------------------------------------------------------------------------
 (3) _EUSART_ASYNC_RX_Init                                 2     0      2     338
                                             13 COMRAM     2     0      2
 ---------------------------------------------------------------------------------
 (1) _TimesUpdate                                          0     0      0       0
 ---------------------------------------------------------------------------------
 (1) _SegmentsUpdate                                       1     1      0    8409
                                             27 COMRAM     1     1      0
                            ___awdiv
                            ___awmod
              _gpio_port_write_logic
        _seven_segement_write_number
 ---------------------------------------------------------------------------------
 (2) _seven_segement_write_number                          4     1      3    6355
                                             23 COMRAM     4     1      3
                            ___awdiv (ARG)
                            ___awmod (ARG)
               _gpio_pin_write_logic
 ---------------------------------------------------------------------------------
 (4) _gpio_pin_write_logic                                10     7      3    5195
                                             13 COMRAM    10     7      3
 ---------------------------------------------------------------------------------
 (2) _gpio_port_write_logic                                5     4      1     546
                                             13 COMRAM     5     4      1
 ---------------------------------------------------------------------------------
 (2) ___awmod                                              6     2      4     752
                                             13 COMRAM     6     2      4
 ---------------------------------------------------------------------------------
 (2) ___awdiv                                              8     4      4     756
                                             13 COMRAM     8     4      4
 ---------------------------------------------------------------------------------
 Estimated maximum stack depth 4
 ---------------------------------------------------------------------------------
 (Depth) Function   	        Calls       Base Space   Used Autos Params    Refs
 ---------------------------------------------------------------------------------
 (5) _InterruptManager                                     4     4      0     512
                                              9 COMRAM     4     4      0
                            _ADC_ISR
                           _CCP1_ISR
                           _CCP2_ISR
                      _EUSART_RX_ISR
                      _EUSART_TX_ISR
                           _INT0_ISR
                           _INT1_ISR
                           _INT2_ISR
                    _MSSP_I2C_BC_ISR
                       _MSSP_I2C_ISR
                       _MSSP_SPI_ISR
                            _RB4_ISR
                            _RB5_ISR
                            _RB6_ISR
                            _RB7_ISR
                           _TMR0_ISR
                           _TMR1_ISR
                           _TMR2_ISR
                           _TMR3_ISR
 ---------------------------------------------------------------------------------
 (6) _TMR3_ISR                                             0     0      0       0
 ---------------------------------------------------------------------------------
 (6) _TMR2_ISR                                             0     0      0       0
 ---------------------------------------------------------------------------------
 (6) _TMR1_ISR                                             0     0      0       0
 ---------------------------------------------------------------------------------
 (6) _TMR0_ISR                                             0     0      0       0
 ---------------------------------------------------------------------------------
 (6) _RB7_ISR                                              1     1      0      44
                                              0 COMRAM     1     1      0
 ---------------------------------------------------------------------------------
 (6) _RB6_ISR                                              1     1      0      44
                                              0 COMRAM     1     1      0
 ---------------------------------------------------------------------------------
 (6) _RB5_ISR                                              1     1      0      44
                                              0 COMRAM     1     1      0
 ---------------------------------------------------------------------------------
 (6) _RB4_ISR                                              1     1      0      44
                                              0 COMRAM     1     1      0
 ---------------------------------------------------------------------------------
 (6) _MSSP_SPI_ISR                                         0     0      0       0
 ---------------------------------------------------------------------------------
 (6) _MSSP_I2C_ISR                                         0     0      0       0
 ---------------------------------------------------------------------------------
 (6) _MSSP_I2C_BC_ISR                                      0     0      0       0
 ---------------------------------------------------------------------------------
 (6) _INT2_ISR                                             0     0      0       0
 ---------------------------------------------------------------------------------
 (6) _INT1_ISR                                             0     0      0       0
 ---------------------------------------------------------------------------------
 (6) _INT0_ISR                                             0     0      0       0
 ---------------------------------------------------------------------------------
 (6) _EUSART_TX_ISR                                        0     0      0     336
                   Absolute function *
                    _usartTxHandeler *
 ---------------------------------------------------------------------------------
 (7) _usartTxHandeler                                      4     4      0     336
                                              5 COMRAM     4     4      0
                  _USART_Read_string
 ---------------------------------------------------------------------------------
 (8) _USART_Read_string                                    5     2      3     244
                                              0 COMRAM     5     2      3
 ---------------------------------------------------------------------------------
 (7) Absolute function(Fake)                               0     0      0       0
 ---------------------------------------------------------------------------------
 (6) _EUSART_RX_ISR                                        0     0      0       0
 ---------------------------------------------------------------------------------
 (6) _CCP2_ISR                                             0     0      0       0
 ---------------------------------------------------------------------------------
 (6) _CCP1_ISR                                             0     0      0       0
 ---------------------------------------------------------------------------------
 (6) _ADC_ISR                                              0     0      0       0
 ---------------------------------------------------------------------------------
 Estimated maximum stack depth 8
 ---------------------------------------------------------------------------------

 Call Graph Graphs:

 _main (ROOT)
   _SegmentsUpdate
     ___awdiv
     ___awmod
     _gpio_port_write_logic
     _seven_segement_write_number
       ___awdiv (ARG)
       ___awmod (ARG)
       _gpio_pin_write_logic (ARG)
   _TimesUpdate
   _application_intialize
     _EUSART_ASYNC_Init
       _EUSART_ASYNC_RX_Init
       _EUSART_ASYNC_TX_Init
       _EUSART_Baud_Rate_Calculation
         ___fladd
           ___fldiv (ARG)
             ___xxtofl (ARG)
           ___xxtofl (ARG)
         ___fldiv
         ___fltol
         ___xxtofl
     _gpio_port_direction_intialize
     _seven_segement_intialize
       _gpio_pin_intialize
         _gpio_pin_direction_intialize
         _gpio_pin_write_logic

 _InterruptManager (ROOT)
   _ADC_ISR
   _CCP1_ISR
   _CCP2_ISR
   _EUSART_RX_ISR
   _EUSART_TX_ISR
     Absolute function(Fake) *
     _usartTxHandeler *
       _USART_Read_string
   _INT0_ISR
   _INT1_ISR
   _INT2_ISR
   _MSSP_I2C_BC_ISR
   _MSSP_I2C_ISR
   _MSSP_SPI_ISR
   _RB4_ISR
   _RB5_ISR
   _RB6_ISR
   _RB7_ISR
   _TMR0_ISR
   _TMR1_ISR
   _TMR2_ISR
   _TMR3_ISR

 Address spaces:
Name               Size   Autos  Total    Cost      Usage
BIGRAM             F7F      0       0      49        0.0%
EEDATA             400      0       0       0        0.0%
BITBANK14          100      0       0      33        0.0%
BANK14             100      0       0      34        0.0%
BITBANK13          100      0       0      31        0.0%
BANK13             100      0       0      32        0.0%
BITBANK12          100      0       0      29        0.0%
BANK12             100      0       0      30        0.0%
BITBANK11          100      0       0      27        0.0%
BANK11             100      0       0      28        0.0%
BITBANK10          100      0       0      25        0.0%
BANK10             100      0       0      26        0.0%
BITBANK9           100      0       0      23        0.0%
BANK9              100      0       0      24        0.0%
BITBANK8           100      0       0      21        0.0%
BANK8              100      0       0      22        0.0%
BITBANK7           100      0       0      19        0.0%
BANK7              100      0       0      20        0.0%
BITBANK6           100      0       0      17        0.0%
BANK6              100      0       0      18        0.0%
BITBANK5           100      0       0      15        0.0%
BANK5              100      0       0      16        0.0%
BITBANK4           100      0       0      13        0.0%
BANK4              100      0       0      14        0.0%
BITBANK3           100      0       0      10        0.0%
BANK3              100      0       0      11        0.0%
BITBANK2           100      0       0       8        0.0%
BANK2              100      0       0       9        0.0%
BITBANK1           100      0       0       6        0.0%
BANK1              100      0       0       7        0.0%
BITBANK15           80      0       0      35        0.0%
BANK15              80      0       0      36        0.0%
BITBANK0            80      0       0       4        0.0%
BANK0               80      D      6F       5       86.7%
BITCOMRAM           7E      0       0       0        0.0%
COMRAM              7E     46      71       1       89.7%
BITBIGSFRhlhhlh     18      0       0      38        0.0%
BITBIGSFRhh          D      0       0      37        0.0%
BITBIGSFRlllhh       6      0       0      46        0.0%
BITBIGSFRhlhhll      5      0       0      39        0.0%
BITBIGSFRllhllh      4      0       0      43        0.0%
BITBIGSFRllllh       4      0       0      47        0.0%
BITBIGSFRllhllh      4      0       0      44        0.0%
BITBIGSFRlllll       4      0       0      48        0.0%
BITBIGSFRllhllh      1      0       0      42        0.0%
BITBIGSFRllhlh       1      0       0      41        0.0%
BITBIGSFRllhh        1      0       0      40        0.0%
BITBIGSFRllhlll      1      0       0      45        0.0%
BIGSFR               0      0       0     200        0.0%
BITSFR               0      0       0     200        0.0%
SFR                  0      0       0     200        0.0%
STACK                0      0       0       2        0.0%
NULL                 0      0       0       0        0.0%
ABS                  0      0      E0      12        0.0%
DATA                 0      0      E0       3        0.0%
CODE                 0      0       0       0        0.0%


Microchip Technology PIC18 Macro Assembler V2.36 build 20220127204148 
Symbol Table                                                                                   Sat Feb 04 09:49:41 2023

                               ??_InterruptManager 000A                                                  l9 2D0A  
                                     ___fldiv@aexp 0034                                       ___fldiv@bexp 0033  
                                     ___fldiv@sign 002C                                        _SSPSTATbits 000FC7  
                                               l14 2BDA                                       ___awdiv@sign 0013  
                       usartTxHandeler@timeRxArray 0006                                                l714 2610  
                                              l733 273C                                                l754 2C46  
                                              l759 2DEC                                                l769 2E32  
                                              _PR2 000FCB                          _RB5_InterruptHandler_HIGH 00D3  
                                              _min 0065                                    __end_of_ADC_ISR 3002  
                                              _sec 0064                                                _seg 00B0  
                                              _ret 00EE                                       ___awmod@sign 0013  
                              led_initialize@F3013 0063                                                prod 000FF3  
                            relay_initialize@F3007 005F                                                tosl 000FFD  
                                              wreg 000FE8                                    __end_of_RB4_ISR 2F94  
                                  __end_of_RB5_ISR 2F7A                                    __end_of_RB6_ISR 2F60  
                                  __end_of_RB7_ISR 2F46                                       ___fltol@exp1 0017  
                                             l2000 29E2                                               l2013 2B46  
                                             l1601 2D28                                               l2314 17FE  
                                             l2306 19B4                                               l2066 2842  
                                             l2323 18CE                                               l1603 2D5C  
                                             l2324 18BC                                               l2351 2174  
                                             l2431 2264                                               l2424 21CC  
                                             l2353 1FD4                                               l2362 201A  
                                             l2427 2328                                               l2364 2092  
                                             l2356 1F98                                               l2365 2080  
                                             l1661 14F4                                               l1653 102C  
                                             l1670 2A96                                               l2438 22C0  
                                             l1655 10E0                                               l1656 1194  
                                             l1752 2ED8                                               l1761 2DA6  
                                             l2297 16E4                                               l1657 1248  
                                             l1674 2A96                                               l2298 16D2  
                                             l1658 12FC                                               l1746 2F98  
                                             l1683 291E                                               l2299 1698  
                                             l1659 13AE                                               l1766 24CC  
                                             l1687 291E                                               l3641 2D5E  
                                             l6201 2C44                                               l3651 2D8A  
                                             l3643 2D60                                               l6301 2B48  
                                             l3653 2D8C                                               l3645 2D72  
                                             l6311 2BD8                                               l6303 2B48  
                                             l3655 2D90                                               l3647 2D74  
                                             l6401 2DF0                                               l6305 2B5A  
                                             l3657 2DA2                                               l3649 2D78  
                                             l6403 2DF4                                               l6307 2B6A  
                                             l6501 2AFC                                               l6405 2E04  
                                             l6309 2B72                                               l6511 2B36  
                                             l6503 2B12                                               l6407 2E0C  
                                             l6191 2BDC                                               l6441 2932  
                                             l6513 2B3E                                               l6505 2B1A  
                                             l6409 2E30                                               l5721 2652  
                                             l5713 2612                                               l8201 1602  
                                             l6193 2BDC                                               l6451 2958  
                                             l6443 293A                                               l6507 2B20  
                                             l5723 26B4                                               l5715 2616  
                                             l8211 1616                                               l8203 1606  
                                             l6195 2BEE                                               l6291 2CAA  
                                             l6461 2990                                               l6453 2960  
                                             l6445 293E                                               l6437 2920  
                                             l6509 2B26                                               l5717 2628  
                                             l8301 1868                                               l8221 162A  
                                             l8213 161A                                               l8205 160A  
                                             l5741 24E4                                               l6197 2C10  
                                             l6293 2CBC                                               l6471 29BC  
                                             l6463 2996                                               l6455 2972  
                                             l6447 294C                                               l6439 2924  
                                             l5727 2710                                               l5719 264A  
                                             l8311 1890                                               l8303 186C  
                                             l8231 1664                                               l8223 162E  
                                             l8215 161E                                               l8207 160E  
                                             l8151 1502                                               l6391 2DAE  
                                             l5751 25CC                                               l5743 2506  
                                             l6199 2C18                                               l6295 2CC4  
                                             l6465 29AC                                               l6457 297A  
                                             l6473 29C2                                               l6449 2954  
                                             l6481 2A98                                               l5729 273A  
                                             l8321 18EA                                               l8313 189E  
                                             l8305 187C                                               l8241 16B6  
                                             l8233 1680                                               l8225 1632  
                                             l8217 1622                                               l8209 1612  
                                             l8161 1542                                               l8153 1510  
                                             l8401 1EEE                                               l6393 2DBE  
                                             l5745 250E                                               l5753 260E  
                                             l5737 24CE                                               l6297 2D08  
                                             l6289 2CAA                                               l6475 29D2  
                                             l6467 29B4                                               l6459 2982  
                                             l6491 2AC4                                               l6483 2A9C  
                                             l8331 1954                                               l8323 18F8  
                                             l8315 18B4                                               l8307 187E  
                                             l8251 1702                                               l8243 16C4  
                                             l8235 1690                                               l8219 1626  
                                             l8227 1636                                               l8171 1574  
                                             l8163 1544                                               l8155 1512  
                                             l8411 1F2C                                               l8403 1EFE  
                                             l6395 2DC6                                               l5747 2570  
                                             l5739 24D2                                               l6477 29DA  
                                             l6469 29B6                                               l6493 2ACC  
                                             l6485 2AAA                                               l8341 198E  
                                             l8333 1974                                               l8325 1932  
                                             l8261 1742                                               l8309 188C  
                                             l8245 16C6                                               l8237 16A6  
                                             l8229 163A                                               l8181 159C  
                                             l8173 1576                                               l8157 1522  
                                             l8165 154C                                               l8149 14F6  
                                             l8421 1F74                                               l8413 1F3C  
                                             l8405 1EFE                                               l8501 27A4  
                                             l6397 2DEA                                               l6389 2DAA  
                                             l6495 2ADE                                               l6487 2AB2  
                                             l8343 1994                                               l8335 1978  
                                             l8319 18DE                                               l8327 1934  
                                             l8271 176C                                               l8263 174E  
                                             l8255 1716                                               l8247 16D0  
                                             l8239 16B2                                               l8191 15D6  
                                             l8183 15AC                                               l8175 157C  
                                             l8167 155C                                               l8159 1532  
                                             l8431 1FC2                                               l8423 1F88  
                                             l8415 1F4C                                               l8351 1DDC  
                                             l8511 27CE                                               l8503 27A8  
                                             l6497 2AE6                                               l6489 2AB6  
                                             l6761 232A                                               l8345 19A2  
                                             l8337 1986                                               l8329 1944  
                                             l8281 17DE                                               l8265 1752  
                                             l8257 1726                                               l8249 16F2  
                                             l8273 1772                                               l8193 15E8  
                                             l8185 15BC                                               l8177 158A  
                                             l8169 1562                                               l8441 200A  
                                             l8433 1FD2                                               l8425 1F96  
                                             l8417 1F5C                                               l8409 1F12  
                                             l8361 1E18                                               l8353 1DE8  
                                             l8521 27F6                                               l8513 27D8  
                                             l8505 27B6                                               l8601 13B2  
                                             l6499 2AEE                                               l6771 2370  
                                             l8347 19A4                                               l8339 198C  
                                             l8291 1838                                               l8275 1798  
                                             l8283 17EE                                               l8267 1760  
                                             l8259 1734                                               l8195 15F6  
                                             l8187 15BE                                               l8179 158C  
                                             l8451 204A                                               l8443 2018  
                                             l8435 1FE4                                               l8427 1FA2  
                                             l8419 1F64                                               l8371 1E48  
                                             l8363 1E28                                               l8355 1DF6  
                                             l8523 2802                                               l8515 27E2  
                                             l8603 1404                                               l6781 2402  
                                             l6773 237E                                               l8621 2A2E  
                                             l8293 1842                                               l8285 1814  
                                             l8277 17CC                                               l8269 1762  
                                             l8197 15FA                                               l8189 15C6  
                                             l8461 20BC                                               l8453 2078  
                                             l8437 1FFA                                               l8445 202A  
                                             l8429 1FC0                                               l8381 1E7E  
                                             l8373 1E4E                                               l8365 1E2A  
                                             l8357 1DF8                                               l8525 2812  
                                             l8541 21F2                                               l8533 2178  
                                             l8605 1460                                               l6791 24AC  
                                             l6783 2428                                               l6775 23A4  
                                             l6767 232E                                               l8631 2A76  
                                             l8623 2A3A                                               l8615 29E4  
                                             l8295 1850                                               l8287 1824  
                                             l8279 17CE                                               l8199 15FE  
                                             l8471 2134                                               l8463 20E6  
                                             l8447 2038                                               l8439 2000  
                                             l8391 1EBE                                               l8383 1E8E  
                                             l8375 1E5C                                               l8359 1E08  
                                             l8367 1E32                                               l8527 2822  
                                             l8551 224C                                               l8535 2188  
                                             l8607 14B6                                               l6793 24BA  
                                             l6785 246A                                               l6777 23E6  
                                             l6769 2362                                               l8641 28B6  
                                             l8633 2A90                                               l8625 2A54  
                                             l8617 29FE                                               l8297 1852  
                                             l8481 216A                                               l8473 2150  
                                             l8457 20A2                                               l8465 20EA  
                                             l8449 203C                                               l8393 1ECE  
                                             l8385 1E90                                               l8377 1E5E  
                                             l8369 1E42                                               l8529 2832  
                                             l8561 22B0                                               l8553 224E  
                                             l8545 2206                                               l8537 2196  
                                             l6795 24BC                                               l6787 2478  
                                             l6779 23F4                                               l8651 28FE  
                                             l8643 28C2                                               l8635 2844  
                                             l8627 2A56                                               l8619 2A00  
                                             l8299 1860                                               l8475 2154  
                                             l8467 2104                                               l8459 20AE  
                                             l8395 1ED6                                               l8379 1E6E  
                                             l8387 1E98                                               l8491 2754  
                                             l8571 2308                                               l8563 22CE  
                                             l8555 225A                                               l8547 220E  
                                             l8539 21DC                                               l6789 2486  
                                             l8653 2918                                               l8645 28DC  
                                             l8637 285E                                               l8629 2A70  
                                             l8477 2162                                               l8469 211A  
                                             l8397 1EDA                                               l8389 1EA8  
                                             l8573 2316                                               l8565 22D0  
                                             l8557 2296                                               l8549 221A  
                                             l8581 1032                                               l8661 2D2E  
                                             l8647 28DE                                               l8639 2860  
                                             l8479 2168                                               l8495 2768  
                                             l8575 2318                                               l8567 22D4  
                                             l8559 22A2                                               l8591 11EC  
                                             l8583 1084                                               l8663 2D52  
                                             l8655 2D0C                                               l8903 25F8  
                                             l8671 2EAA                                               l8831 2F9C  
                                             l8649 28F8                                               l8497 2792  
                                             l8489 273E                                               l8569 22F8  
                                             l8905 1480                                               l8593 124E  
                                             l8585 10E6                                               l8665 2D54  
                                             l8657 2D0C                                               l8673 2EC8  
                                             l8907 2724                                               l8499 2794  
                                             l8595 12A0                                               l8587 1138  
                                             l8579 1016                                               l8667 2D5A  
                                             l8659 2D20                                               l8597 1300  
                                             l8589 119A                                               l8829 2F94  
                                             l8599 1352                                               STR_1 1011  
                                             _LATA 000F89                                               _LATB 000F8A  
                                             _LATC 000F8B                                               _LATD 000F8C  
                                             _LATE 000F8D                                               u1550 2D72  
                                             u1551 2D6E                                               u1560 2D8A  
                                             u1561 2D86                                               u1570 2DA2  
                                             u1571 2D9E                                               u4340 2628  
                                             u4420 25E4                                               u4404 252E  
                                             u4341 2624                                               u4421 25DE  
                                             u4405 252A                                               u4350 264A  
                                             u4430 25E6                                               u4414 2590  
                                             u5230 2BEE                                               u4351 2646  
                                             u4415 258C                                               u5231 2BEA  
                                             u5240 2C10                                               u5241 2C0C  
                                             u5500 2990                                               u4364 2672  
                                             u4380 24E4                                               u5501 298C  
                                             u4365 266E                                               u4381 24E0  
                                             u5510 29AC                                               u4374 26D4  
                                             u4390 2506                                               u5511 29A8  
                                             u4375 26D0                                               u4391 2502  
                                             u5520 29D2                                               u8000 18F8  
                                             u5440 2DBE                                               u5521 29CE  
                                             u8001 18F4                                               u5441 2DBA  
                                             u5530 2AAA                                               u5450 2E04  
                                             u8010 1932                                               u5370 2CBC  
                                             u5531 2AA6                                               u5451 2E00  
                                             u8011 192E                                               u5371 2CB8  
                                             u5540 2AC4                                               u5380 2B5A  
                                             u8020 1944                                               u8100 1E5C  
                                             u5541 2AC0                                               u5381 2B56  
                                             u8021 1940                                               u8101 1E58  
                                             u5470 2932                                               u5550 2ADE  
                                             u5390 2B6A                                               u8030 1954  
                                             u8110 1E6E                                               u5471 292E  
                                             u5551 2ADA                                               u5391 2B66  
                                             u8031 1950                                               u8111 1E6A  
                                             u5480 294C                                               u5560 2AFC  
                                             u8040 1974                                               u8200 2018  
                                             u8120 1E7E                                               u5481 2948  
                                             u5561 2AF8                                               u8041 1970  
                                             u8201 2014                                               u8121 1E7A  
                                             u5490 2972                                               u5570 2B12  
                                             u8050 1986                                               u8210 2038  
                                             u8130 1EBE                                               u5491 296E  
                                             u5571 2B0E                                               u8051 1982  
                                             u8211 2034                                               u8131 1EBA  
                                             u5580 2B36                                               u8060 19A2  
                                             u8220 204A                                               u8140 1EFE  
                                             u8300 2754                                               u5581 2B32  
                                             u8061 199E                                               u8221 2046  
                                             u8141 1EFA                                               u8301 2750  
                                             u8230 2078                                               u8150 1F74  
                                             u8070 1DF6                                               u8310 2788  
                                             u8231 2074                                               u8151 1F70  
                                             u8071 1DF2                                               u5760 24CC  
                                             u8240 208E                                               u8160 1F96  
                                             u8080 1E08                                               u8320 27B6  
                                             u8400 2248                                               u5761 24C8  
                                             u8241 208A                                               u8161 1F92  
                                             u8081 1E04                                               u8321 27B2  
                                             u8401 2244                                               u8250 20A2  
                                             u8170 1FC0                                               u8090 1E18  
                                             u8330 27CA                                               u8410 2292  
                                             u8251 209E                                               u8171 1FBC  
                                             u8091 1E14                                               u8331 27C6  
                                             u8315 277E                                               u8411 228E  
                                             u8500 2A70                                               u7700 1532  
                                             u8260 20BC                                               u8180 1FE4  
                                             u8340 27F2                                               u8420 22B0  
                                             u8501 2A6C                                               u7701 152E  
                                             u8261 20B8                                               u8181 1FE0  
                                             u8341 27EE                                               u8421 22AC  
                                             u8510 2A90                                               u7710 1574  
                                             u8270 2104                                               u8190 1FFA  
                                             u8350 2812                                               u8430 22C0  
                                             u8511 2A8C                                               u7711 1570  
                                             u8271 2100                                               u8191 1FF6  
                                             u8351 280E                                               u8431 22BC  
                                             u8520 285E                                               u7800 16A6  
                                             u7720 158A                                               u8280 2134  
                                             u8360 2822                                               u8440 22CE  
                                             u8521 285A                                               u7801 16A2  
                                             u7721 1586                                               u8281 2130  
                                             u8361 281E                                               u8441 22CA  
                                             u8530 28B6                                               u7810 16C4  
                                             u7730 159C                                               u8290 2162  
                                             u8450 2308                                               u8370 2188  
                                             u8531 28B2                                               u7811 16C0  
                                             u7731 1598                                               u8291 215E  
                                             u8451 2304                                               u8371 2184  
                                             u8540 28DC                                               u7900 1814  
                                             u7820 16E4                                               u7740 15AC  
                                             u8460 2316                                               u8380 2196  
                                             u8541 28D8                                               u7901 1810  
                                             u7821 16E0                                               u7741 15A8  
                                             u8461 2312                                               u8381 2192  
                                             u8550 28F8                                               u8470 29FE  
                                             u7910 1824                                               u7830 16F2  
                                             u7750 15E8                                               u8390 21F2  
                                             u8551 28F4                                               u8471 29FA  
                                             u7911 1820                                               u7831 16EE  
                                             u7751 15E4                                               u8391 21EE  
                                             u8560 2918                                               u8480 2A2E  
                                             u7920 1850                                               u7840 1702  
                                             u7760 15F6                                               u7680 1510  
                                             u8561 2914                                               u8481 2A2A  
                                             u7921 184C                                               u7841 16FE  
                                             u7761 15F2                                               u7681 150C  
                                             u8490 2A54                                               u7930 1860  
                                             u7850 1734                                               u7770 1664  
                                             u7690 1522                                               u8570 2D20  
                                             u8491 2A50                                               u7931 185C  
                                             u7851 1730                                               u7771 1660  
                                             u7691 151E                                               u8571 2D1C  
                                             u7940 187C                                               u7860 1742  
                                             u7780 167C                                               u7941 1878  
                                             u7861 173E                                               u7781 1676  
                                             u7950 188C                                               u7870 1760  
                                             u7790 167E                                               u7951 1888  
                                             u7871 175C                                               u7960 189E  
                                             u7880 1798                                               u7961 189A  
                                             u7881 1794                                               u7970 18B4  
                                             u7890 17DE                                               u8907 24B2  
                                             u7971 18B0                                               u7891 17DA  
                                             u7980 18CA                                               u7981 18C6  
                                             u7990 18DE                                               u7991 18DA  
                                             u8857 2368                                               u8867 23AA  
                                             u8877 23EC                                               u8887 242E  
                                             u8897 2470                                               _TMR2 000FCC  
                          ??_application_intialize 0047                           _RB4_InterruptHandler_LOW 00D5  
                                             _main 2F94                                   __end_of_CCP1_ISR 2FFE  
                                             _hour 0066                                   __end_of_CCP2_ISR 2FFA  
                         _RB7_InterruptHandler_LOW 00C9                                               fsr2h 000FDA  
                                             indf2 000FDF                                               fsr1l 000FE1  
                                             fsr2l 000FD9                                               btemp 0072  
                                  ?_SegmentsUpdate 0001                                               prodl 000FF3  
                                             start 000E                                    ___fldiv@new_exp 002D  
                                     ___param_bank 000000                              _gpio_port_write_logic 2DEE  
                             _gpio_pin_write_logic 2612                                   __end_of_INT0_ISR 2FF6  
                                 __end_of_INT1_ISR 2FF2                                   __end_of_INT2_ISR 2FEE  
                                    _EUSART_RX_ISR 3004                                      ___fltol@sign1 0016  
                                    _EUSART_TX_ISR 2EDA                                    __end_of___fladd 19B6  
                                            ?_main 0001                                    __end_of___fldiv 2176  
                                  __end_of___awdiv 29E4                                              _EEADR 000FA9  
                                  __end_of___awmod 2B48                                    __end_of___fltol 2844  
                                  ___awdiv@divisor 0010                                              i2l473 3000  
                                            i2l574 2FF8                                              i2l569 2FFC  
                                            i2l923 2FE8                                              i2l919 2FE4  
                                  ___awdiv@counter 0012                                              i2l992 2FF0  
                                            i2l987 2FF4                                              i2l997 2FEC  
                                            _RCREG 000FAE                                relay_turn_off@F3017 005D  
                                            _TMR0H 000FD7                                              _TMR1H 000FCF  
                                            _TMR0L 000FD6                                              _TMR1L 000FCE  
                                            _TMR3H 000FB3                                              _TMR3L 000FB2  
                                            _SPBRG 000FAF                                              _PORTA 000F80  
                                            _PORTB 000F81                                              _PORTC 000F82  
                                            _PORTD 000F83                                              _PORTE 000F84  
                                            _TRISA 000F92                                              _TRISB 000F93  
                                            _TRISC 000F94                                              _TRISD 000F95  
                                            _TRISE 000F96                                              _TXREG 000FAD  
                                 __end_of_TMR0_ISR 2FDA                                   __end_of_TMR1_ISR 2FCE  
                                 __end_of_TMR2_ISR 2FE2                                   __end_of_TMR3_ISR 2FC2  
                                            pclath 000FFA                                              pclatu 000FFB  
                                            tablat 000FF5                                              ttemp5 0073  
                                            ttemp6 0076                                              ttemp7 007A  
                                            status 000FD8                                              wtemp8 0073  
           gpio_port_direction_intialize@direction 000E                                    __initialization 2C48  
                                     __end_of_main 2FA8                              ?_gpio_pin_write_logic 000E  
                                        ??_ADC_ISR 0001                                     ?_EUSART_RX_ISR 0001  
                                   ?_EUSART_TX_ISR 0001                                      _lat_registers 008A  
                                           ??_main 0047                                      __activetblptr 000003  
                            _TMR3_InterruptHandler 00C1                                   led_turn_on@F3018 0062  
                   ?_gpio_port_direction_intialize 000E                                          ??_RB4_ISR 0001  
                                        ??_RB5_ISR 0001                                          ??_RB6_ISR 0001  
                                        ??_RB7_ISR 0001                   __end_of_seven_segement_intialize 2D0C  
                       _EUSART_OverrunErrorHandler 00BB                                             _ADRESH 000FC4  
                                           _EEADRH 000FAA                                             _ADRESL 000FC3  
                                           _EEDATA 000FA8                                             _CCPR1L 000FBE  
                                           _CCPR2L 000FBB                                             _EECON2 000FA7  
                                 ___awdiv@dividend 000E                                  _EUSART_ASYNC_Init 2D0C  
                                           i2l1030 2F5E                                             i2l1008 2F92  
                                           i2l1041 2F44                                             i2l1019 2F78  
                                           i2l1220 1A28                                             i2l1230 1B7C  
                                           i2l1222 1A6C                                             i2l1240 1C88  
                                           i2l1232 1BC0                                             i2l1224 1AB0  
                                           i2l1216 19E8                                             i2l1321 3002  
                                           i2l1250 1D28                                             i2l1242 1CA8  
                                           i2l1234 1C04                                             i2l1226 1AF4  
                                           i2l1218 1A08                                             i2l1252 1D48  
                                           i2l1244 1CC8                                             i2l1236 1C48  
                                           i2l1228 1B38                                             i2l1261 1DC8  
                                           i2l1254 1D68                                             i2l1246 1CE8  
                                           i2l1238 1C68                                             i2l1256 1D88  
                                           i2l1248 1D08                                             i2l1258 1DA8  
                                           i2l1507 2FE0                                             i2l1701 3004  
                                           i2l1551 2FC0                                             i2l1456 2FCC  
                                           i2l1641 2E4A                                             i2l1643 2E72  
                                           i2l1387 2FD8                                             i2l3405 2FF6  
                                           i2l1639 2E3C                                             i2l3423 2FE2  
                                           i2l1755 2F2A                                             i2l3427 2FE6  
                                           i2l1692 2F06                                             i2l3395 2FFE  
                                           i2l3399 2FFA                                             i2l6431 2F18  
                                           i2l6281 2E4E                                             i2l6433 2F1E  
                                           i2l6601 2FEE                                             i2l6283 2E5A  
                                           i2l6435 2F24                                             i2l6285 2E5E  
                                           i2l6429 2F08                                             i2l6621 2F92  
                                           i2l6613 2F7C                                             i2l6287 2E60  
                                           i2l6279 2E34                                             i2l6607 2FEA  
                                           i2l6615 2F7E                                             i2l6711 2FCE  
                                           i2l6641 2F48                                             i2l6713 2FD0  
                                           i2l6721 2FC4                                             i2l6635 2F78  
                                           i2l6627 2F62                                             i2l6643 2F4A  
                                           i2l6715 2FD4                                             i2l6723 2FC8  
                                           i2l6731 2FB6                                             i2l6741 2EDC  
                                           i2l6629 2F64                                             i2l6733 2FB8  
                                           i2l7701 1A24                                             i2l6743 2EEE  
                                           i2l6663 2F44                                             i2l6655 2F2E  
                                           i2l6719 2FC2                                             i2l6727 2FDA  
                                           i2l6735 2FBC                                             i2l7711 1A66  
                                           i2l7703 1A36                                             i2l6745 3004  
                                           i2l6649 2F5E                                             i2l6657 2F30  
                                           i2l7801 1CE4                                             i2l7721 1AAA  
                                           i2l7713 1A7A                                             i2l7705 1A44  
                                           i2l6739 2EDA                                             i2l6595 2FF2  
                                           i2l7811 1D36                                             i2l7803 1CF6  
                                           i2l7731 1AEE                                             i2l7723 1ABE  
                                           i2l7715 1A88                                             i2l7707 1A52  
                                           i2l7821 1D84                                             i2l7813 1D44  
                                           i2l7805 1D04                                             i2l7741 1B32  
                                           i2l7733 1B02                                             i2l7725 1ACC  
                                           i2l7717 1A96                                             i2l7709 1A62  
                                           i2l7823 1D96                                             i2l7815 1D56  
                                           i2l7807 1D16                                             i2l7751 1B76  
                                           i2l7743 1B46                                             i2l7735 1B10  
                                           i2l7727 1ADA                                             i2l7719 1AA6  
                                           i2l7825 1DA4                                             i2l7817 1D64  
                                           i2l7809 1D24                                             i2l7761 1BBA  
                                           i2l7753 1B8A                                             i2l7745 1B54  
                                           i2l7737 1B1E                                             i2l7729 1AEA  
                                           i2l7827 1DB6                                             i2l7819 1D76  
                                           i2l7771 1BFE                                             i2l7763 1BCE  
                                           i2l7755 1B98                                             i2l7747 1B62  
                                           i2l7739 1B2E                                             i2l7691 19D6  
                                           i2l7829 1DC4                                             i2l7781 1C42  
                                           i2l7773 1C12                                             i2l7765 1BDC  
                                           i2l7757 1BA6                                             i2l7749 1B72  
                                           i2l7693 19E4                                             i2l7791 1C96  
                                           i2l7783 1C56                                             i2l7775 1C20  
                                           i2l7767 1BEA                                             i2l7759 1BB6  
                                           i2l7695 19F6                                             i2l7793 1CA4  
                                           i2l7785 1C64                                             i2l7777 1C2E  
                                           i2l7769 1BFA                                             i2l7697 1A04  
                                           i2l7689 19C8                                             i2l7795 1CB6  
                                           i2l7787 1C76                                             i2l7779 1C3E  
                                           i2l7699 1A16                                             i2l7797 1CC4  
                                           i2l7789 1C84                                             i2l7799 1CD6  
                                           _SPBRGH 000FB0                                 ?_EUSART_ASYNC_Init 00EB  
                                           _SSPADD 000FC8                                             _SSPBUF 000FC9  
                                 __end_of___xxtofl 232A                          gpio_port_write_logic@port 0012  
                           ?_gpio_port_write_logic 000E                                ??_EUSART_ASYNC_Init 0047  
                      seven_segement_intialize@seg 001C                        seven_segement_intialize@ret 001E  
                                        ??___fladd 003D                                          ??___fldiv 0024  
                                        ??___awdiv 0012                                          ??___awmod 0012  
                                        ??___fltol 0012                                             clear_0 2C8E  
                                           clear_1 2C9A                                   ___awdiv@quotient 0014  
                                  ___awmod@divisor 0010                                             isa$std 000001  
                                  ___awmod@counter 0012                                      ??_TimesUpdate 000E  
          gpio_pin_direction_intialize@_pin_config 000E        _I2C_Report_Receive_Overflow_InterruptHandle 00DF  
                                        ?_CCP1_ISR 0001                                       __pdataCOMRAM 0064  
                                        ?_CCP2_ISR 0001                                       __mediumconst 0000  
                                           tblptrh 000FF7                                             tblptrl 000FF6  
                                           tblptru 000FF8                          __end_of_EUSART_ASYNC_Init 2D5E  
                     __end_of_EUSART_ASYNC_RX_Init 2920                       __end_of_EUSART_ASYNC_TX_Init 2A98  
                                     ___xxtofl@arg 0018                                       ___xxtofl@exp 0017  
                                     ___xxtofl@val 000E                                         __accesstop 0080  
                          __end_of__initialization 2CA0                                          ?_INT0_ISR 0001  
                                        ?_INT1_ISR 0001                                          ?_INT2_ISR 0001  
                                    ___rparam_used 000001                                         ___fltol@f1 000E  
                                RB5_ISR@RB5_Source 0001                             ??_gpio_pin_write_logic 0011  
                                   __pcstackCOMRAM 0001                         _I2C_DefaultInterruptHandle 004F  
                                     __pidataBANK0 2E74                                          ?_TMR0_ISR 0001  
                                  ??_EUSART_RX_ISR 0001                                          ?_TMR1_ISR 0001  
                                        ?_TMR2_ISR 0001                                          ?_TMR3_ISR 0001  
                                  ??_EUSART_TX_ISR 000A                                         ??_CCP1_ISR 0001  
                                       ??_CCP2_ISR 0001                            USART_Read_string@buffer 0001  
                         gpio_port_write_logic@ret 0011                                 fp__usartTxHandeler 0000  
                              __end_of_TimesUpdate 2DA8                                   ??_SegmentsUpdate 001C  
                                       __pbssBANK0 00B5                              _INT0_InterruptHandler 00DD  
                                       ??_INT0_ISR 0001                                         ??_INT1_ISR 0001  
                                       ??_INT2_ISR 0001                      __end_of_application_intialize 2EDA  
                                       ??_TMR0_ISR 0001                                         ??_TMR1_ISR 0001  
                                       ??_TMR2_ISR 0001                                         ??_TMR3_ISR 0001  
                        ?_seven_segement_intialize 001C                                  led_turn_off@F3023 0061  
                                          _ADC_ISR 2FFE                        EUSART_ASYNC_TX_Init@_eusart 000E  
                                RB7_ISR@RB7_Source 0001                                            _RB4_ISR 2F7A  
                                          _RB5_ISR 2F60                                            _RB6_ISR 2F46  
                                          _RB7_ISR 2F2C                                          ?___xxtofl 000E  
                        _RB6_InterruptHandler_HIGH 00CF                                      ?_MSSP_I2C_ISR 0001  
                             led_turn_toggle@F3028 0060                                         _btn_values 1001  
                                   _tris_registers 0094                           _RB6_InterruptHandler_LOW 00CD  
                                    ?_MSSP_SPI_ISR 0001                                  ??_MSSP_I2C_BC_ISR 0001  
                             _ADC_InterruptHandler 0057                                            __Hparam 0000  
                                          __Lparam 0000                       ?_seven_segement_write_number 0018  
                                          ___fladd 14F6                                            ___fldiv 1DDC  
                                          ___awdiv 2920                                            ___awmod 2A98  
                                          ___fltol 273E                  _EUSART_Baud_Rate_Calculation$5451 00E7  
                             EUSART_ASYNC_Init@ret 00ED                                       __psmallconst 1000  
                             _EUSART_ASYNC_RX_Init 2844                               _EUSART_ASYNC_TX_Init 29E4  
                       __end_of_gpio_pin_intialize 2C48                                            __pcinit 2C48  
                                          __ramtop 1000                                            __ptext0 2F94  
                                          __ptext1 2EAA                                            __ptext2 2CAA  
                                          __ptext3 2BDC                                            __ptext4 24CE  
                                          __ptext5 2DA8                                            __ptext6 2D0C  
                                          __ptext7 1016                                            __ptext8 2176  
                                          __ptext9 273E                                         _keypad_val 005A  
                                        _T0CONbits 000FD5                                          _T1CONbits 000FCD  
                                          _counter 005B                                        _TimesUpdate 2D5E  
                                   ??_MSSP_I2C_ISR 0001                                          _T2CONbits 000FCA  
                                       ??___xxtofl 0012                                          _T3CONbits 000FB1  
                                 ___awmod@dividend 000E         EUSART_Baud_Rate_Calculation@Baud_Rate_Temp 00E3  
                                          _usart_1 009E                                     __pintcode_body 19B6  
                             end_of_initialization 2CA0                                            int_func 19B6  
                                   ??_MSSP_SPI_ISR 0001                    ??_gpio_port_direction_intialize 000F  
                                ??_usartTxHandeler 0006                            ??_gpio_port_write_logic 000F  
                            gpio_pin_intialize@ret 001B                                          _RCSTAbits 000FAB  
                                          postdec1 000FE5                                            postdec2 000FDD  
                                          postinc0 000FEE                                            postinc2 000FDE  
                    ??_seven_segement_write_number 001B                              ?_EUSART_ASYNC_RX_Init 000E  
                            ?_EUSART_ASYNC_TX_Init 000E                              _INT1_InterruptHandler 00DB  
                                        _PORTBbits 000F81                                   _InterruptManager 0008  
                    gpio_pin_intialize@_pin_config 0018                                        ___fladd@grs 0044  
             __end_of_gpio_pin_direction_intialize 2612                       _gpio_pin_direction_intialize 24CE  
                                    ___xxtofl@sign 0016                                          _TRISCbits 000F94  
                                      ___fldiv@grs 002F                                        ___fldiv@rem 0028  
                                      _CCP1CONbits 000FBD                                        _CCP2CONbits 000FBA  
                                        _TXSTAbits 000FAC                                 relay_turn_on@F3012 005E  
                         EUSART_ASYNC_Init@_eusart 00EB                      convert_uint16_to_string@F3163 00B5  
                                      _BAUDCONbits 000FB8                                      __pidataCOMRAM 2FA8  
                                   _timer0_preload 004D                                     _timer1_preload 004B  
                                   _timer2_preload 005C                                start_initialization 2C48  
                                   _timer3_preload 0049                EUSART_Baud_Rate_Calculation@_eusart 0045  
 MSSP_SPI_Slave_Mode_GPIO_PIN_Configurations@F3070 0067  MSSP_SPI_Msster_Mode_GPIO_PIN_Configurations@F3055 006D  
 MSSP_SPI_Slave_Mode_GPIO_PIN_Configurations@F3064 006A  MSSP_SPI_Msster_Mode_GPIO_PIN_Configurations@F3057 006C  
 MSSP_SPI_Slave_Mode_GPIO_PIN_Configurations@F3066 0069  MSSP_SPI_Msster_Mode_GPIO_PIN_Configurations@F3059 006B  
 MSSP_SPI_Slave_Mode_GPIO_PIN_Configurations@F3068 0068                      ?_gpio_pin_direction_intialize 000E  
             __end_of_EUSART_Baud_Rate_Calculation 14F6                       _EUSART_Baud_Rate_Calculation 1016  
                                _USART_Read_string 2E34                          _EUSART_RxInterruptHandler 00BF  
                               ?_USART_Read_string 0001                               __end_of_MSSP_I2C_ISR 2FE6  
            __end_of_gpio_port_direction_intialize 2DEE                      _gpio_port_direction_intialize 2DA8  
                       _EUSART_FramingErrorHandler 00BD                             ??_EUSART_ASYNC_RX_Init 0010  
                           ??_EUSART_ASYNC_TX_Init 0010                                ??_USART_Read_string 0004  
                                      __pdataBANK0 0080                  gpio_port_direction_intialize@port 0012  
                                         ?_ADC_ISR 0001                              __end_of_EUSART_RX_ISR 3006  
                            __end_of_EUSART_TX_ISR 2F08                                          ___fladd@a 0039  
                                        ___fladd@b 0035                               __end_of_MSSP_SPI_ISR 3004  
                                        ___fldiv@a 0020                                          ___fldiv@b 001C  
                                         ?_RB4_ISR 0001                                           ?_RB5_ISR 0001  
                                         ?_RB6_ISR 0001                                           ?_RB7_ISR 0001  
                                      __pbssCOMRAM 0047        _I2C_Report_Write_Collision_InterruptHandler 0051  
                                    __pcstackBANK0 00E1                                    _MSSP_I2C_BC_ISR 2FE6  
                        __end_of_USART_Read_string 2E74                              _INT2_InterruptHandler 00D9  
                  gpio_pin_direction_intialize@ret 0016                      ?_EUSART_Baud_Rate_Calculation 0045  
                            _TMR0_InterruptHandler 00C7                                          __pnvBANK0 00EE  
                            _application_intialize 2EAA                     seven_segement_write_number@seg 0018  
                   seven_segement_write_number@ret 001B                                          __pintcode 0008  
                                         ?___fladd 0035                    gpio_pin_write_logic@_pin_config 000E  
                                         ?___fldiv 001C                                           ?___awdiv 000E  
                                         ?___awmod 000E                                           ?___fltol 000E  
                        gpio_pin_write_logic@logic 0010                                       ?_TimesUpdate 0001  
                                      __smallconst 1000                          _RB4_InterruptHandler_HIGH 00D7  
                                         _CCP1_ISR 2FFA                                           _CCP2_ISR 2FF6  
                        _RB7_InterruptHandler_HIGH 00CB                                    _usartTxHandeler 2F08  
                               _gpio_pin_intialize 2BDC                     ??_gpio_pin_direction_intialize 0010  
                         _RB5_InterruptHandler_LOW 00D1                                           _INT0_ISR 2FF2  
                                         _INT1_ISR 2FEE                                           _INT2_ISR 2FEA  
                                         _RB4_Flag 0071                                           _RB5_Flag 0070  
                                         _RB6_Flag 006F                                           _RB7_Flag 006E  
                                RB4_ISR@RB4_Source 0001                                ?_gpio_pin_intialize 0018  
                         __end_of_InterruptManager 1DDC                                           _PIE1bits 000F9D  
                                         _PIE2bits 000FA0                           _seven_segement_intialize 2CAA  
                                   _keypad_pressed 0059                      __end_of_gpio_port_write_logic 2E34  
                                         _PIR1bits 000F9E                                           _PIR2bits 000FA1  
                                         i2u700_40 1B46                                           i2u700_41 1B42  
                                         i2u701_40 1B54                                           i2u701_41 1B50  
                                         i2u710_40 1BEA                                           i2u702_40 1B62  
                                         i2u710_41 1BE6                                           i2u702_41 1B5E  
                                         i2u535_40 2E4A                                           i2u711_40 1BFA  
                                         i2u703_40 1B72                                           i2u535_41 2E46  
                                         i2u711_41 1BF6                                           i2u703_41 1B6E  
                                         i2u536_40 2E72                                           i2u720_40 1C96  
                                         i2u712_40 1C12                                           i2u704_40 1B8A  
                                         i2u536_41 2E6E                                           i2u720_41 1C92  
                                         i2u712_41 1C0E                                           i2u704_41 1B86  
                                         i2u721_40 1CA4                                           i2u713_40 1C20  
                                         i2u705_40 1B98                                           i2u721_41 1CA0  
                                         i2u713_41 1C1C                                           i2u705_41 1B94  
                                         i2u570_40 2F40                                           i2u730_40 1D36  
                                         i2u722_40 1CB6                                           i2u714_40 1C2E  
                                         i2u706_40 1BA6                                           i2u570_41 2F3C  
                                         i2u730_41 1D32                                           i2u722_41 1CB2  
                                         i2u714_41 1C2A                                           i2u706_41 1BA2  
                                         i2u731_40 1D44                                           i2u723_40 1CC4  
                                         i2u715_40 1C3E                                           i2u707_40 1BB6  
                                         i2u731_41 1D40                                           i2u723_41 1CC0  
                                         i2u715_41 1C3A                                           i2u707_41 1BB2  
                                         i2u732_40 1D56                                           i2u724_40 1CD6  
                                         i2u716_40 1C56                                           i2u708_40 1BCE  
                                         i2u732_41 1D52                                           i2u724_41 1CD2  
                                         i2u716_41 1C52                                           i2u708_41 1BCA  
                                         i2u733_40 1D64                                           i2u725_40 1CE4  
                                         i2u717_40 1C64                                           i2u709_40 1BDC  
                                         i2u733_41 1D60                                           i2u725_41 1CE0  
                                         i2u717_41 1C60                                           i2u709_41 1BD8  
                                         i2u574_40 2EEE                                           i2u734_40 1D76  
                                         i2u726_40 1CF6                                           i2u718_40 1C76  
                                         i2u574_41 2EEA                                           i2u734_41 1D72  
                                         i2u726_41 1CF2                                           i2u718_41 1C72  
                                         i2u567_40 2F8E                                           i2u735_40 1D84  
                                         i2u727_40 1D04                                           i2u719_40 1C84  
                                         i2u567_41 2F8A                                           i2u735_41 1D80  
                                         i2u727_41 1D00                                           i2u719_41 1C80  
                                         i2u575_48 2EF4                                           i2u568_40 2F74  
                                         i2u736_40 1D96                                           i2u728_40 1D16  
                                         i2u680_40 19F6                                           i2u575_49 2F06  
                                         i2u568_41 2F70                                           i2u736_41 1D92  
                                         i2u728_41 1D12                                           i2u680_41 19F2  
                                         i2u569_40 2F5A                                           i2u737_40 1DA4  
                                         i2u729_40 1D24                                           i2u681_40 1A04  
                                         i2u569_41 2F56                                           i2u737_41 1DA0  
                                         i2u729_41 1D20                                           i2u681_41 1A00  
                                         i2u738_40 1DB6                                           i2u690_40 1A96  
                                         i2u682_40 1A16                                           i2u738_41 1DB2  
                                         i2u690_41 1A92                                           i2u682_41 1A12  
                                         i2u739_40 1DC4                                           i2u691_40 1AA6  
                                         i2u683_40 1A24                                           i2u739_41 1DC0  
                                         i2u691_41 1AA2                                           i2u683_41 1A20  
                                         i2u692_40 1ABE                                           i2u684_40 1A36  
                                         i2u692_41 1ABA                                           i2u684_41 1A32  
                                         i2u693_40 1ACC                                           i2u685_40 1A44  
                                         i2u693_41 1AC8                                           i2u685_41 1A40  
                                         i2u694_40 1ADA                                           i2u686_40 1A52  
                                         i2u678_40 19D6                                           i2u694_41 1AD6  
                                         i2u686_41 1A4E                                           i2u678_41 19D2  
                                         i2u695_40 1AEA                                           i2u687_40 1A62  
                                         i2u679_40 19E4                                           i2u695_41 1AE6  
                                         i2u687_41 1A5E                                           i2u679_41 19E0  
                                         i2u696_40 1B02                                           i2u688_40 1A7A  
                                         i2u696_41 1AFE                                           i2u688_41 1A76  
                                         i2u697_40 1B10                                           i2u689_40 1A88  
                                         i2u697_41 1B0C                                           i2u689_41 1A84  
                                         i2u698_40 1B1E                                           i2u698_41 1B1A  
                                         i2u699_40 1B2E                                           i2u699_41 1B2A  
                                         _TMR0_ISR 2FCE                                           _TMR1_ISR 2FC2  
                                         _TMR2_ISR 2FDA                                           _TMR3_ISR 2FB6  
                                       _ADCON0bits 000FC2                                         _ADCON1bits 000FC1  
                                       _ADCON2bits 000FC0                            __end_of_MSSP_I2C_BC_ISR 2FEA  
                             ??_gpio_pin_intialize 001A                            gpio_pin_write_logic@ret 0017  
                                      _INTCON2bits 000FF1                                        _INTCON3bits 000FF0  
                                        copy_data0 2C5C                                          copy_data1 2C7C  
                                       _EECON1bits 000FA6                             ?_application_intialize 0001  
                                         __Hrparam 0000                                           __Lrparam 0000  
                   ??_EUSART_Baud_Rate_Calculation 00E1                        EUSART_ASYNC_RX_Init@_eusart 000E  
                 gpio_port_direction_intialize@ret 0011                                  RB6_ISR@RB6_Source 0001  
                            _CCP1_InterruptHandler 0055                            __end_of_usartTxHandeler 2F2C  
                               __end_of_btn_values 1011                              USART_Read_string@data 0004  
                            _TMR1_InterruptHandler 00C5                                           ___xxtofl 2176  
                                     _MSSP_I2C_ISR 2FE2                                           __ptext10 1DDC  
                                         __ptext11 14F6                                           __ptext20 2920  
                                         __ptext12 29E4                                           __ptext13 2844  
                                         __ptext30 3002                                           __ptext22 2FB6  
                                         __ptext14 2D5E                                           __ptext31 2FE2  
                                         __ptext23 2FDA                                           __ptext15 232A  
                                         __ptext40 2FF6                                           __ptext32 2FE6  
                                         __ptext24 2FC2                                           __ptext16 2B48  
                                         __ptext41 2FFA                                           __ptext33 2FEA  
                                         __ptext25 2FCE                                           __ptext17 2612  
                                         __ptext42 2FFE                                           __ptext34 2FEE  
                                         __ptext26 2F2C                                           __ptext18 2DEE  
                                         __ptext43 0000                                           __ptext35 2FF2  
                                         __ptext27 2F46                                           __ptext19 2A98  
                                         __ptext36 2EDA                                           __ptext28 2F60  
                                         __ptext37 2F08                                           __ptext29 2F7A  
                                         __ptext38 2E34                                           __ptext39 3004  
                                     _MSSP_SPI_ISR 3002                __end_of_seven_segement_write_number 2BDC  
                      _seven_segement_write_number 2B48                                           isa$xinst 000000  
                                         int$flags 0072                                   ?_MSSP_I2C_BC_ISR 0001  
                                       _INTCONbits 000FF2                       __end_of_gpio_pin_write_logic 273E  
                                         intlevel2 0000                               USART_Read_string@len 0003  
                seven_segement_write_number@number 001A                          _EUSART_TxInterruptHandler 0047  
                                   _SegmentsUpdate 232A                                   ?_usartTxHandeler 0001  
                                   _port_registers 0080                                        _SSPCON1bits 000FC6  
                                      _SSPCON2bits 000FC5                         gpio_port_write_logic@logic 000E  
                                    ___fladd@signs 0041                         ??_seven_segement_intialize 001E  
                               USART_Read_string@i 0005                              _CCP2_InterruptHandler 0053  
                                     ___fladd@aexp 0042                                       ___fladd@bexp 0043  
                           __end_of_SegmentsUpdate 24CE                              _TMR2_InterruptHandler 00C3  
                                ?_InterruptManager 0001  
