

Microchip MPLAB XC8 Assembler V2.36 build 20220127204148 
                                                                                               Sat Feb 04 09:52:01 2023

Microchip MPLAB XC8 C Compiler v2.36 (Free license) build 20220127204148 Og1 
     1                           	processor	18F4620
     2                           	fnconf	rparam,??,?,0
     3                           	pagewidth 120
     4                           	opt	flic
     5                           	psect	idataCOMRAM,global,class=CODE,delta=1,noexec
     6                           	psect	idataBANK0,global,class=CODE,delta=1,noexec
     7                           	psect	smallconst,global,reloc=2,class=SMALLCONST,delta=1,noexec
     8                           	psect	nvCOMRAM,global,class=COMRAM,space=1,delta=1,lowdata,noexec
     9                           	psect	cinit,global,reloc=2,class=CODE,delta=1
    10                           	psect	bssCOMRAM,global,class=COMRAM,space=1,delta=1,lowdata,noexec
    11                           	psect	dataCOMRAM,global,class=COMRAM,space=1,delta=1,lowdata,noexec
    12                           	psect	bssBANK0,global,class=BANK0,space=1,delta=1,lowdata,noexec
    13                           	psect	dataBANK0,global,class=BANK0,space=1,delta=1,lowdata,noexec
    14                           	psect	cstackBANK0,global,class=BANK0,space=1,delta=1,lowdata,noexec
    15                           	psect	cstackCOMRAM,global,class=COMRAM,space=1,delta=1,lowdata,noexec
    16                           	psect	text0,global,reloc=2,class=CODE,delta=1
    17                           	psect	text1,global,reloc=2,class=CODE,delta=1
    18                           	psect	text2,global,reloc=2,class=CODE,delta=1
    19                           	psect	text3,global,reloc=2,class=CODE,delta=1
    20                           	psect	text4,global,reloc=2,class=CODE,delta=1
    21                           	psect	text5,global,reloc=2,class=CODE,delta=1
    22                           	psect	text6,global,reloc=2,class=CODE,delta=1
    23                           	psect	text7,global,reloc=2,class=CODE,delta=1
    24                           	psect	text8,global,reloc=2,class=CODE,delta=1
    25                           	psect	text9,global,reloc=2,class=CODE,delta=1
    26                           	psect	text10,global,reloc=2,class=CODE,delta=1
    27                           	psect	text11,global,reloc=2,class=CODE,delta=1
    28                           	psect	text12,global,reloc=2,class=CODE,delta=1
    29                           	psect	text13,global,reloc=2,class=CODE,delta=1
    30                           	psect	text14,global,reloc=2,class=CODE,delta=1
    31                           	psect	text15,global,reloc=2,class=CODE,delta=1,group=1
    32                           	psect	text16,global,reloc=2,class=CODE,delta=1,group=1
    33                           	psect	text17,global,reloc=2,class=CODE,delta=1,group=1
    34                           	psect	text18,global,reloc=2,class=CODE,delta=1,group=1
    35                           	psect	text19,global,reloc=2,class=CODE,delta=1
    36                           	psect	text20,global,reloc=2,class=CODE,delta=1
    37                           	psect	text21,global,reloc=2,class=CODE,delta=1
    38                           	psect	text22,global,reloc=2,class=CODE,delta=1
    39                           	psect	text23,global,reloc=2,class=CODE,delta=1
    40                           	psect	text24,global,reloc=2,class=CODE,delta=1
    41                           	psect	text25,global,reloc=2,class=CODE,delta=1
    42                           	psect	text26,global,reloc=2,class=CODE,delta=1
    43                           	psect	text27,global,reloc=2,class=CODE,delta=1
    44                           	psect	text28,global,reloc=2,class=CODE,delta=1
    45                           	psect	text29,global,reloc=2,class=CODE,delta=1
    46                           	psect	text30,global,reloc=2,class=CODE,delta=1
    47                           	psect	text31,global,reloc=2,class=CODE,delta=1
    48                           	psect	text32,global,reloc=2,class=CODE,delta=1
    49                           	psect	intcode,global,reloc=2,class=CODE,delta=1
    50                           	psect	intcode_body,global,reloc=2,class=CODE,delta=1
    51                           	psect	text34,global,reloc=2,class=CODE,delta=1
    52                           	psect	text35,global,reloc=2,class=CODE,delta=1
    53                           	psect	text36,global,reloc=2,class=CODE,delta=1
    54                           	psect	text37,global,reloc=2,class=CODE,delta=1
    55                           	psect	text38,global,reloc=2,class=CODE,delta=1
    56                           	psect	text39,global,reloc=2,class=CODE,delta=1
    57                           	psect	text40,global,reloc=2,class=CODE,delta=1
    58                           	psect	text41,global,reloc=2,class=CODE,delta=1
    59                           	psect	text42,global,reloc=2,class=CODE,delta=1
    60                           	psect	text43,global,reloc=2,class=CODE,delta=1
    61                           	psect	text44,global,reloc=2,class=CODE,delta=1
    62                           	psect	text45,global,reloc=2,class=CODE,delta=1
    63                           	psect	text46,global,reloc=2,class=CODE,delta=1
    64                           	psect	text47,global,reloc=2,class=CODE,delta=1
    65                           	psect	text48,global,reloc=2,class=CODE,delta=1
    66                           	psect	text49,global,reloc=2,class=CODE,delta=1
    67                           	psect	text50,global,reloc=2,class=CODE,delta=1
    68                           	psect	text51,global,reloc=2,class=CODE,delta=1
    69                           	psect	text52,global,reloc=2,class=CODE,delta=1
    70                           	psect	intsave_regs,global,class=BIGRAM,space=1,delta=1,noexec
    71                           	psect	rparam,global,class=COMRAM,space=1,delta=1,noexec
    72                           	psect	temp,global,ovrld,common,class=COMRAM,space=1,delta=1
    73                           	psect	idloc,global,abs,ovrld,class=IDLOC,space=5,delta=1,noexec
    74                           	psect	config,global,abs,ovrld,class=CONFIG,space=4,delta=1,noexec
    75  0000                     
    76                           ; Version 2.20
    77                           ; Generated 12/02/2020 GMT
    78                           ; 
    79                           ; Copyright © 2020, Microchip Technology Inc. and its subsidiaries ("Microchip")
    80                           ; All rights reserved.
    81                           ; 
    82                           ; This software is developed by Microchip Technology Inc. and its subsidiaries ("Microch
      +                          ip").
    83                           ; 
    84                           ; Redistribution and use in source and binary forms, with or without modification, are
    85                           ; permitted provided that the following conditions are met:
    86                           ; 
    87                           ;     1. Redistributions of source code must retain the above copyright notice, this lis
      +                          t of
    88                           ;        conditions and the following disclaimer.
    89                           ; 
    90                           ;     2. Redistributions in binary form must reproduce the above copyright notice, this 
      +                          list
    91                           ;        of conditions and the following disclaimer in the documentation and/or other
    92                           ;        materials provided with the distribution.
    93                           ; 
    94                           ;     3. Microchip's name may not be used to endorse or promote products derived from th
      +                          is
    95                           ;        software without specific prior written permission.
    96                           ; 
    97                           ; THIS SOFTWARE IS PROVIDED BY MICROCHIP "AS IS" AND ANY EXPRESS OR IMPLIED WARRANTIES,
    98                           ; INCLUDING, BUT NOT LIMITED TO, THE IMPLIED WARRANTIES OF MERCHANTABILITY AND FITNESS F
      +                          OR
    99                           ; PURPOSE ARE DISCLAIMED.  IN NO EVENT SHALL MICROCHIP BE LIABLE FOR ANY DIRECT, INDIREC
      +                          T,
   100                           ; INCIDENTAL, SPECIAL, EXEMPLARY, OR CONSEQUENTIAL DAMAGES (INCLUDING BUT NOT LIMITED TO
   101                           ; PROCUREMENT OF SUBSTITUTE GOODS OR SERVICES; LOSS OF USE, DATA OR PROFITS; OR BUSINESS
   102                           ; INTERRUPTION) HOWSOEVER CAUSED AND ON ANY THEORY OF LIABILITY, WHETHER IN CONTRACT, ST
      +                          RICT
   103                           ; LIABILITY, OR TORT (INCLUDING NEGLIGENCE OR OTHERWISE) ARISING IN ANY WAY OUT OF THE U
      +                          SE OF
   104                           ; THIS SOFTWARE, EVEN IF ADVISED OF THE POSSIBILITY OF SUCH DAMAGE.
   105                           ; 
   106                           ; 
   107                           ; Code-generator required, PIC18F4620 Definitions
   108                           ; 
   109                           ; SFR Addresses
   110  0000                     
   111                           	psect	idataCOMRAM
   112  0036EC                     __pidataCOMRAM:
   113                           	callstack 0
   114                           
   115                           ;initializer for _sec
   116  0036EC  2F                 	db	47
   117                           
   118                           ;initializer for _min
   119  0036ED  2F                 	db	47
   120                           
   121                           ;initializer for _hour
   122  0036EE  2F                 	db	47
   123                           
   124                           ;initializer for MSSP_SPI_Slave_Mode_GPIO_PIN_Configurations@F3070
   125  0036EF  68                 	db	104
   126                           
   127                           ;initializer for MSSP_SPI_Slave_Mode_GPIO_PIN_Configurations@F3068
   128  0036F0  5A                 	db	90
   129                           
   130                           ;initializer for MSSP_SPI_Slave_Mode_GPIO_PIN_Configurations@F3066
   131  0036F1  62                 	db	98
   132                           
   133                           ;initializer for MSSP_SPI_Slave_Mode_GPIO_PIN_Configurations@F3064
   134  0036F2  2A                 	db	42
   135                           
   136                           ;initializer for MSSP_SPI_Msster_Mode_GPIO_PIN_Configurations@F3059
   137  0036F3  1A                 	db	26
   138                           
   139                           ;initializer for MSSP_SPI_Msster_Mode_GPIO_PIN_Configurations@F3057
   140  0036F4  62                 	db	98
   141                           
   142                           ;initializer for MSSP_SPI_Msster_Mode_GPIO_PIN_Configurations@F3055
   143  0036F5  2A                 	db	42
   144                           
   145                           ;initializer for _RB7_Flag
   146  0036F6  01                 	db	1
   147                           
   148                           ;initializer for _RB6_Flag
   149  0036F7  01                 	db	1
   150                           
   151                           ;initializer for _RB5_Flag
   152  0036F8  01                 	db	1
   153                           
   154                           ;initializer for _RB4_Flag
   155  0036F9  01                 	db	1
   156                           
   157                           ;initializer for _lcd_1
   158  0036FA  03                 	db	3
   159  0036FB  0B                 	db	11
   160  0036FC  13                 	db	19
   161  0036FD  1B                 	db	27
   162  0036FE  23                 	db	35
   163  0036FF  2B                 	db	43
   164                           
   165                           ;initializer for _KeypadPressed
   166  003700  2F                 	db	47
   167                           
   168                           	psect	idataBANK0
   169  00357A                     __pidataBANK0:
   170                           	callstack 0
   171                           
   172                           ;initializer for _port_registers
   173  00357A  80                 	db	128
   174  00357B  0F                 	db	15
   175  00357C  81                 	db	129
   176  00357D  0F                 	db	15
   177  00357E  82                 	db	130
   178  00357F  0F                 	db	15
   179  003580  83                 	db	131
   180  003581  0F                 	db	15
   181  003582  84                 	db	132
   182  003583  0F                 	db	15
   183                           
   184                           ;initializer for _lat_registers
   185  003584  89                 	db	137
   186  003585  0F                 	db	15
   187  003586  8A                 	db	138
   188  003587  0F                 	db	15
   189  003588  8B                 	db	139
   190  003589  0F                 	db	15
   191  00358A  8C                 	db	140
   192  00358B  0F                 	db	15
   193  00358C  8D                 	db	141
   194  00358D  0F                 	db	15
   195                           
   196                           ;initializer for _tris_registers
   197  00358E  92                 	db	146
   198  00358F  0F                 	db	15
   199  003590  93                 	db	147
   200  003591  0F                 	db	15
   201  003592  94                 	db	148
   202  003593  0F                 	db	15
   203  003594  95                 	db	149
   204  003595  0F                 	db	15
   205  003596  96                 	db	150
   206  003597  0F                 	db	15
   207                           
   208                           ;initializer for _time
   209  003598  2F                 	db	47
   210  003599  2F                 	db	47
   211  00359A  2F                 	db	47
   212  00359B  2F                 	db	47
   213  00359C  2F                 	db	47
   214  00359D  2F                 	db	47
   215                           
   216                           ;initializer for _usart_1
   217  00359E  2580               	dw	9600
   218  0035A0  0000               	dw	0
   219  0035A2  00                 	db	0
   220  0035A3  00                 	db	0
   221  0035A4  03                 	db	3
   222  0035A5  00                 	db	0
   223  0035A6  03                 	db	3
   224  0035A7  00                 	db	0
   225  0035A8  00                 	db	0
   226  0035A9  00                 	db	0
   227  0035AA  00                 	db	0
   228  0035AB  00                 	db	0
   229  0035AC  00                 	db	0
   230  0035AD  00                 	db	0
   231  0035AE  00                 	db	0
   232  0035AF  00                 	db	0
   233                           
   234                           ;initializer for _keypad_1
   235  0035B0  01                 	db	1
   236  0035B1  09                 	db	9
   237  0035B2  11                 	db	17
   238  0035B3  19                 	db	25
   239  0035B4  61                 	db	97
   240  0035B5  69                 	db	105
   241  0035B6  71                 	db	113
   242  0035B7  79                 	db	121
   243                           
   244                           	psect	smallconst
   245  001000                     __psmallconst:
   246                           	callstack 0
   247  001000  00                 	db	0
   248  001001                     _btn_values:
   249                           	callstack 0
   250  001001  37                 	db	55
   251  001002  38                 	db	56
   252  001003  39                 	db	57
   253  001004  2F                 	db	47
   254  001005  34                 	db	52
   255  001006  35                 	db	53
   256  001007  36                 	db	54
   257  001008  2A                 	db	42
   258  001009  31                 	db	49
   259  00100A  32                 	db	50
   260  00100B  33                 	db	51
   261  00100C  2D                 	db	45
   262  00100D  23                 	db	35
   263  00100E  30                 	db	48
   264  00100F  3D                 	db	61
   265  001010  2B                 	db	43
   266  001011                     __end_of_btn_values:
   267                           	callstack 0
   268  0000                     _SPBRGH	set	4016
   269  0000                     _SPBRG	set	4015
   270  0000                     _TXREG	set	4013
   271  0000                     _TXSTAbits	set	4012
   272  0000                     _RCREG	set	4014
   273  0000                     _RCSTAbits	set	4011
   274  0000                     _TMR3L	set	4018
   275  0000                     _TMR3H	set	4019
   276  0000                     _TMR2	set	4044
   277  0000                     _T2CONbits	set	4042
   278  0000                     _TMR1L	set	4046
   279  0000                     _TMR1H	set	4047
   280  0000                     _T1CONbits	set	4045
   281  0000                     _TMR0L	set	4054
   282  0000                     _TMR0H	set	4055
   283  0000                     _T0CONbits	set	4053
   284  0000                     _INTCON2bits	set	4081
   285  0000                     _INTCON3bits	set	4080
   286  0000                     _SSPBUF	set	4041
   287  0000                     _SSPSTATbits	set	4039
   288  0000                     _SSPADD	set	4040
   289  0000                     _SSPCON2bits	set	4037
   290  0000                     _SSPCON1bits	set	4038
   291  0000                     _EECON2	set	4007
   292  0000                     _ADCON1bits	set	4033
   293  0000                     _ADRESL	set	4035
   294  0000                     _ADRESH	set	4036
   295  0000                     _INTCONbits	set	4082
   296  0000                     _TRISD	set	3989
   297  0000                     _TRISC	set	3988
   298  0000                     _PR2	set	4043
   299  0000                     _TRISB	set	3987
   300  0000                     _TRISE	set	3990
   301  001011                     STR_4:
   302  001011  50                 	db	80	;'P'
   303  001012  72                 	db	114	;'r'
   304  001013  65                 	db	101	;'e'
   305  001014  73                 	db	115	;'s'
   306  001015  73                 	db	115	;'s'
   307  001016  20                 	db	32
   308  001017  31                 	db	49	;'1'
   309  001018  20                 	db	32
   310  001019  54                 	db	84	;'T'
   311  00101A  6F                 	db	111	;'o'
   312  00101B  20                 	db	32
   313  00101C  53                 	db	83	;'S'
   314  00101D  65                 	db	101	;'e'
   315  00101E  74                 	db	116	;'t'
   316  00101F  20                 	db	32
   317  001020  74                 	db	116	;'t'
   318  001021  68                 	db	104	;'h'
   319  001022  65                 	db	101	;'e'
   320  001023  20                 	db	32
   321  001024  20                 	db	32
   322  001025  54                 	db	84	;'T'
   323  001026  69                 	db	105	;'i'
   324  001027  6D                 	db	109	;'m'
   325  001028  65                 	db	101	;'e'
   326  001029  20                 	db	32
   327  00102A  3A                 	db	58	;':'
   328  00102B  20                 	db	32
   329  00102C  00                 	db	0
   330  00102D                     STR_5:
   331  00102D  57                 	db	87	;'W'
   332  00102E  72                 	db	114	;'r'
   333  00102F  6F                 	db	111	;'o'
   334  001030  6E                 	db	110	;'n'
   335  001031  67                 	db	103	;'g'
   336  001032  20                 	db	32
   337  001033  43                 	db	67	;'C'
   338  001034  68                 	db	104	;'h'
   339  001035  6F                 	db	111	;'o'
   340  001036  69                 	db	105	;'i'
   341  001037  63                 	db	99	;'c'
   342  001038  65                 	db	101	;'e'
   343  001039  20                 	db	32
   344  00103A  21                 	db	33
   345  00103B  00                 	db	0
   346  00103C                     STR_6:
   347  00103C  57                 	db	87	;'W'
   348  00103D  72                 	db	114	;'r'
   349  00103E  6F                 	db	111	;'o'
   350  00103F  6E                 	db	110	;'n'
   351  001040  67                 	db	103	;'g'
   352  001041  20                 	db	32
   353  001042  54                 	db	84	;'T'
   354  001043  69                 	db	105	;'i'
   355  001044  6D                 	db	109	;'m'
   356  001045  69                 	db	105	;'i'
   357  001046  6E                 	db	110	;'n'
   358  001047  67                 	db	103	;'g'
   359  001048  20                 	db	32
   360  001049  21                 	db	33
   361  00104A  00                 	db	0
   362  00104B                     STR_10:
   363  00104B  53                 	db	83	;'S'
   364  00104C  65                 	db	101	;'e'
   365  00104D  63                 	db	99	;'c'
   366  00104E  6F                 	db	111	;'o'
   367  00104F  6E                 	db	110	;'n'
   368  001050  64                 	db	100	;'d'
   369  001051  73                 	db	115	;'s'
   370  001052  20                 	db	32
   371  001053  3A                 	db	58	;':'
   372  001054  20                 	db	32
   373  001055  00                 	db	0
   374  001056                     STR_9:
   375  001056  4D                 	db	77	;'M'
   376  001057  69                 	db	105	;'i'
   377  001058  6E                 	db	110	;'n'
   378  001059  75                 	db	117	;'u'
   379  00105A  74                 	db	116	;'t'
   380  00105B  65                 	db	101	;'e'
   381  00105C  73                 	db	115	;'s'
   382  00105D  20                 	db	32
   383  00105E  3A                 	db	58	;':'
   384  00105F  20                 	db	32
   385  001060  00                 	db	0
   386  001061                     STR_8:
   387  001061  48                 	db	72	;'H'
   388  001062  6F                 	db	111	;'o'
   389  001063  75                 	db	117	;'u'
   390  001064  72                 	db	114	;'r'
   391  001065  65                 	db	101	;'e'
   392  001066  73                 	db	115	;'s'
   393  001067  20                 	db	32
   394  001068  3A                 	db	58	;':'
   395  001069  20                 	db	32
   396  00106A  00                 	db	0
   397  00106B                     STR_11:
   398  00106B  57                 	db	87	;'W'
   399  00106C  65                 	db	101	;'e'
   400  00106D  6C                 	db	108	;'l'
   401  00106E  63                 	db	99	;'c'
   402  00106F  6F                 	db	111	;'o'
   403  001070  6D                 	db	109	;'m'
   404  001071  65                 	db	101	;'e'
   405  001072  2E                 	db	46
   406  001073  00                 	db	0
   407  001074                     STR_7:
   408  001074  44                 	db	68	;'D'
   409  001075  6F                 	db	111	;'o'
   410  001076  6E                 	db	110	;'n'
   411  001077  65                 	db	101	;'e'
   412  001078  2E                 	db	46
   413  001079  00                 	db	0
   414  00107A                     STR_1:
   415  00107A  25                 	db	37
   416  00107B  69                 	db	105	;'i'
   417  00107C  00                 	db	0
   418  00107D  00                 	db	0	; dummy byte at the end
   419  0000                     
   420                           	psect	nvCOMRAM
   421  00007C                     __pnvCOMRAM:
   422                           	callstack 0
   423  00007C                     _ret:
   424                           	callstack 0
   425  00007C                     	ds	1
   426  0000                     _PORTBbits	set	3969
   427  0000                     _TRISCbits	set	3988
   428  0000                     _PIE1bits	set	3997
   429  0000                     _ADCON2bits	set	4032
   430  0000                     _ADCON0bits	set	4034
   431  0000                     _PORTE	set	3972
   432  0000                     _PORTD	set	3971
   433  0000                     _PORTC	set	3970
   434  0000                     _PORTB	set	3969
   435  0000                     _PORTA	set	3968
   436  0000                     _LATA	set	3977
   437  0000                     _TRISA	set	3986
   438  0000                     _PIE2bits	set	4000
   439  0000                     _CCP2CONbits	set	4026
   440  0000                     _CCP1CONbits	set	4029
   441  0000                     _PIR1bits	set	3998
   442  0000                     _CCPR1L	set	4030
   443  0000                     _CCPR2L	set	4027
   444  0000                     _EECON1bits	set	4006
   445  0000                     _EEDATA	set	4008
   446  0000                     _EEADR	set	4009
   447  0000                     _EEADRH	set	4010
   448  0000                     _T3CONbits	set	4017
   449  0000                     _PIR2bits	set	4001
   450  0000                     _LATE	set	3981
   451  0000                     _LATD	set	3980
   452  0000                     _LATC	set	3979
   453  0000                     _LATB	set	3978
   454  0000                     _BAUDCONbits	set	4024
   455                           
   456                           ; #config settings
   457                           
   458                           	psect	cinit
   459  0033F2                     __pcinit:
   460                           	callstack 0
   461  0033F2                     start_initialization:
   462                           	callstack 0
   463  0033F2                     __initialization:
   464                           	callstack 0
   465                           
   466                           ; Initialize objects allocated to BANK0 (62 bytes)
   467                           ; load TBLPTR registers with __pidataBANK0
   468  0033F2  0E7A               	movlw	low __pidataBANK0
   469  0033F4  6EF6               	movwf	tblptrl,c
   470  0033F6  0E35               	movlw	high __pidataBANK0
   471  0033F8  6EF7               	movwf	tblptrh,c
   472  0033FA  0E00               	movlw	low (__pidataBANK0 shr (0+16))
   473  0033FC  6EF8               	movwf	tblptru,c
   474  0033FE  EE00  F080         	lfsr	0,__pdataBANK0
   475  003402  EE10 F03E          	lfsr	1,62
   476  003406                     copy_data0:
   477  003406  0009               	tblrd		*+
   478  003408  CFF5 FFEE          	movff	tablat,postinc0
   479  00340C  50E5               	movf	postdec1,w,c
   480  00340E  50E1               	movf	fsr1l,w,c
   481  003410  E1FA               	bnz	copy_data0
   482                           
   483                           ; Initialize objects allocated to COMRAM (21 bytes)
   484                           ; load TBLPTR registers with __pidataCOMRAM
   485  003412  0EEC               	movlw	low __pidataCOMRAM
   486  003414  6EF6               	movwf	tblptrl,c
   487  003416  0E36               	movlw	high __pidataCOMRAM
   488  003418  6EF7               	movwf	tblptrh,c
   489  00341A  0E00               	movlw	low (__pidataCOMRAM shr (0+16))
   490  00341C  6EF8               	movwf	tblptru,c
   491  00341E  EE00  F067         	lfsr	0,__pdataCOMRAM
   492  003422  EE10 F015          	lfsr	1,21
   493  003426                     copy_data1:
   494  003426  0009               	tblrd		*+
   495  003428  CFF5 FFEE          	movff	tablat,postinc0
   496  00342C  50E5               	movf	postdec1,w,c
   497  00342E  50E1               	movf	fsr1l,w,c
   498  003430  E1FA               	bnz	copy_data1
   499                           
   500                           ; Clear objects allocated to BANK0 (40 bytes)
   501  003432  EE00  F0BE         	lfsr	0,__pbssBANK0
   502  003436  0E28               	movlw	40
   503  003438                     clear_0:
   504  003438  6AEE               	clrf	postinc0,c
   505  00343A  06E8               	decf	wreg,f,c
   506  00343C  E1FD               	bnz	clear_0
   507                           
   508                           ; Clear objects allocated to COMRAM (31 bytes)
   509  00343E  EE00  F048         	lfsr	0,__pbssCOMRAM
   510  003442  0E1F               	movlw	31
   511  003444                     clear_1:
   512  003444  6AEE               	clrf	postinc0,c
   513  003446  06E8               	decf	wreg,f,c
   514  003448  E1FD               	bnz	clear_1
   515  00344A                     end_of_initialization:
   516                           	callstack 0
   517  00344A                     __end_of__initialization:
   518                           	callstack 0
   519  00344A  907D               	bcf	int$flags,0,c	;clear compiler interrupt flag (level 1)
   520  00344C  927D               	bcf	int$flags,1,c	;clear compiler interrupt flag (level 2)
   521  00344E  0100               	movlb	0
   522  003450  EF5A  F012         	goto	_main	;jump to C main() function
   523                           
   524                           	psect	bssCOMRAM
   525  000048                     __pbssCOMRAM:
   526                           	callstack 0
   527  000048                     _timer3_preload:
   528                           	callstack 0
   529  000048                     	ds	2
   530  00004A                     _timer1_preload:
   531                           	callstack 0
   532  00004A                     	ds	2
   533  00004C                     _timer0_preload:
   534                           	callstack 0
   535  00004C                     	ds	2
   536  00004E                     _INT2_InterruptHandler:
   537                           	callstack 0
   538  00004E                     	ds	2
   539  000050                     _INT1_InterruptHandler:
   540                           	callstack 0
   541  000050                     	ds	2
   542  000052                     _INT0_InterruptHandler:
   543                           	callstack 0
   544  000052                     	ds	2
   545  000054                     _I2C_DefaultInterruptHandle:
   546                           	callstack 0
   547  000054                     	ds	2
   548  000056                     _I2C_Report_Write_Collision_InterruptHandler:
   549                           	callstack 0
   550  000056                     	ds	2
   551  000058                     _CCP2_InterruptHandler:
   552                           	callstack 0
   553  000058                     	ds	2
   554  00005A                     _CCP1_InterruptHandler:
   555                           	callstack 0
   556  00005A                     	ds	2
   557  00005C                     _ADC_InterruptHandler:
   558                           	callstack 0
   559  00005C                     	ds	2
   560  00005E                     _pressFlag:
   561                           	callstack 0
   562  00005E                     	ds	1
   563  00005F                     _timer2_preload:
   564                           	callstack 0
   565  00005F                     	ds	1
   566  000060                     relay_turn_off@F3017:
   567                           	callstack 0
   568  000060                     	ds	1
   569  000061                     relay_turn_on@F3012:
   570                           	callstack 0
   571  000061                     	ds	1
   572  000062                     relay_initialize@F3007:
   573                           	callstack 0
   574  000062                     	ds	1
   575  000063                     led_turn_toggle@F3028:
   576                           	callstack 0
   577  000063                     	ds	1
   578  000064                     led_turn_off@F3023:
   579                           	callstack 0
   580  000064                     	ds	1
   581  000065                     led_turn_on@F3018:
   582                           	callstack 0
   583  000065                     	ds	1
   584  000066                     led_initialize@F3013:
   585                           	callstack 0
   586  000066                     	ds	1
   587                           
   588                           	psect	dataCOMRAM
   589  000067                     __pdataCOMRAM:
   590                           	callstack 0
   591  000067                     _sec:
   592                           	callstack 0
   593  000067                     	ds	1
   594  000068                     _min:
   595                           	callstack 0
   596  000068                     	ds	1
   597  000069                     _hour:
   598                           	callstack 0
   599  000069                     	ds	1
   600  00006A                     MSSP_SPI_Slave_Mode_GPIO_PIN_Configurations@F3070:
   601                           	callstack 0
   602  00006A                     	ds	1
   603  00006B                     MSSP_SPI_Slave_Mode_GPIO_PIN_Configurations@F3068:
   604                           	callstack 0
   605  00006B                     	ds	1
   606  00006C                     MSSP_SPI_Slave_Mode_GPIO_PIN_Configurations@F3066:
   607                           	callstack 0
   608  00006C                     	ds	1
   609  00006D                     MSSP_SPI_Slave_Mode_GPIO_PIN_Configurations@F3064:
   610                           	callstack 0
   611  00006D                     	ds	1
   612  00006E                     MSSP_SPI_Msster_Mode_GPIO_PIN_Configurations@F3059:
   613                           	callstack 0
   614  00006E                     	ds	1
   615  00006F                     MSSP_SPI_Msster_Mode_GPIO_PIN_Configurations@F3057:
   616                           	callstack 0
   617  00006F                     	ds	1
   618  000070                     MSSP_SPI_Msster_Mode_GPIO_PIN_Configurations@F3055:
   619                           	callstack 0
   620  000070                     	ds	1
   621  000071                     _RB7_Flag:
   622                           	callstack 0
   623  000071                     	ds	1
   624  000072                     _RB6_Flag:
   625                           	callstack 0
   626  000072                     	ds	1
   627  000073                     _RB5_Flag:
   628                           	callstack 0
   629  000073                     	ds	1
   630  000074                     _RB4_Flag:
   631                           	callstack 0
   632  000074                     	ds	1
   633  000075                     _lcd_1:
   634                           	callstack 0
   635  000075                     	ds	6
   636  00007B                     _KeypadPressed:
   637                           	callstack 0
   638  00007B                     	ds	1
   639                           
   640                           	psect	bssBANK0
   641  0000BE                     __pbssBANK0:
   642                           	callstack 0
   643  0000BE                     	ds	6
   644  0000C4                     _EUSART_OverrunErrorHandler:
   645                           	callstack 0
   646  0000C4                     	ds	2
   647  0000C6                     _EUSART_FramingErrorHandler:
   648                           	callstack 0
   649  0000C6                     	ds	2
   650  0000C8                     _EUSART_RxInterruptHandler:
   651                           	callstack 0
   652  0000C8                     	ds	2
   653  0000CA                     _EUSART_TxInterruptHandler:
   654                           	callstack 0
   655  0000CA                     	ds	2
   656  0000CC                     _TMR3_InterruptHandler:
   657                           	callstack 0
   658  0000CC                     	ds	2
   659  0000CE                     _TMR2_InterruptHandler:
   660                           	callstack 0
   661  0000CE                     	ds	2
   662  0000D0                     _TMR1_InterruptHandler:
   663                           	callstack 0
   664  0000D0                     	ds	2
   665  0000D2                     _TMR0_InterruptHandler:
   666                           	callstack 0
   667  0000D2                     	ds	2
   668  0000D4                     _RB7_InterruptHandler_LOW:
   669                           	callstack 0
   670  0000D4                     	ds	2
   671  0000D6                     _RB7_InterruptHandler_HIGH:
   672                           	callstack 0
   673  0000D6                     	ds	2
   674  0000D8                     _RB6_InterruptHandler_LOW:
   675                           	callstack 0
   676  0000D8                     	ds	2
   677  0000DA                     _RB6_InterruptHandler_HIGH:
   678                           	callstack 0
   679  0000DA                     	ds	2
   680  0000DC                     _RB5_InterruptHandler_LOW:
   681                           	callstack 0
   682  0000DC                     	ds	2
   683  0000DE                     _RB5_InterruptHandler_HIGH:
   684                           	callstack 0
   685  0000DE                     	ds	2
   686  0000E0                     _RB4_InterruptHandler_LOW:
   687                           	callstack 0
   688  0000E0                     	ds	2
   689  0000E2                     _RB4_InterruptHandler_HIGH:
   690                           	callstack 0
   691  0000E2                     	ds	2
   692  0000E4                     _I2C_Report_Receive_Overflow_InterruptHandle:
   693                           	callstack 0
   694  0000E4                     	ds	2
   695                           
   696                           	psect	dataBANK0
   697  000080                     __pdataBANK0:
   698                           	callstack 0
   699  000080                     _port_registers:
   700                           	callstack 0
   701  000080                     	ds	10
   702  00008A                     _lat_registers:
   703                           	callstack 0
   704  00008A                     	ds	10
   705  000094                     _tris_registers:
   706                           	callstack 0
   707  000094                     	ds	10
   708  00009E                     _time:
   709                           	callstack 0
   710  00009E                     	ds	6
   711  0000A4                     _usart_1:
   712                           	callstack 0
   713  0000A4                     	ds	18
   714  0000B6                     _keypad_1:
   715                           	callstack 0
   716  0000B6                     	ds	8
   717                           
   718                           	psect	cstackBANK0
   719  0000E6                     __pcstackBANK0:
   720                           	callstack 0
   721  0000E6                     ??_main:
   722                           
   723                           ; 1 bytes @ 0x0
   724  0000E6                     	ds	2
   725                           
   726                           	psect	cstackCOMRAM
   727  000001                     __pcstackCOMRAM:
   728                           	callstack 0
   729  000001                     RB4_ISR@RB4_Source:
   730                           	callstack 0
   731  000001                     RB5_ISR@RB5_Source:
   732                           	callstack 0
   733  000001                     RB6_ISR@RB6_Source:
   734                           	callstack 0
   735  000001                     RB7_ISR@RB7_Source:
   736                           	callstack 0
   737                           
   738                           ; 1 bytes @ 0x0
   739  000001                     	ds	1
   740  000002                     ?___fltol:
   741                           	callstack 0
   742  000002                     ?___xxtofl:
   743                           	callstack 0
   744  000002                     EUSART_ASYNC_WriteByteBlocking@_data:
   745                           	callstack 0
   746  000002                     gpio_pin_direction_intialize@_pin_config:
   747                           	callstack 0
   748  000002                     gpio_pin_write_logic@_pin_config:
   749                           	callstack 0
   750  000002                     gpio_pin_read_logic@_pin_config:
   751                           	callstack 0
   752  000002                     EUSART_ASYNC_TX_Init@_eusart:
   753                           	callstack 0
   754  000002                     EUSART_ASYNC_RX_Init@_eusart:
   755                           	callstack 0
   756  000002                     ___fltol@f1:
   757                           	callstack 0
   758  000002                     ___xxtofl@val:
   759                           	callstack 0
   760                           
   761                           ; 4 bytes @ 0x1
   762  000002                     	ds	1
   763  000003                     EUSART_ASYNC_WriteStringBlocking@_data:
   764                           	callstack 0
   765                           
   766                           ; 2 bytes @ 0x2
   767  000003                     	ds	1
   768  000004                     ??_gpio_pin_direction_intialize:
   769  000004                     gpio_pin_write_logic@logic:
   770                           	callstack 0
   771  000004                     gpio_pin_read_logic@logic:
   772                           	callstack 0
   773                           
   774                           ; 2 bytes @ 0x3
   775  000004                     	ds	1
   776  000005                     ??_gpio_pin_write_logic:
   777  000005                     EUSART_ASYNC_WriteStringBlocking@str_len:
   778                           	callstack 0
   779                           
   780                           ; 2 bytes @ 0x4
   781  000005                     	ds	1
   782  000006                     ??_gpio_pin_read_logic:
   783  000006                     ??___fltol:
   784  000006                     ??___xxtofl:
   785                           
   786                           ; 1 bytes @ 0x5
   787  000006                     	ds	1
   788  000007                     EUSART_ASYNC_WriteStringBlocking@ret:
   789                           	callstack 0
   790                           
   791                           ; 1 bytes @ 0x6
   792  000007                     	ds	1
   793  000008                     EUSART_ASYNC_WriteStringBlocking@char_counter:
   794                           	callstack 0
   795                           
   796                           ; 2 bytes @ 0x7
   797  000008                     	ds	2
   798  00000A                     gpio_pin_direction_intialize@ret:
   799                           	callstack 0
   800  00000A                     ___fltol@sign1:
   801                           	callstack 0
   802  00000A                     ___xxtofl@sign:
   803                           	callstack 0
   804  00000A                     usartSend@arrayTime:
   805                           	callstack 0
   806                           
   807                           ; 4 bytes @ 0x9
   808  00000A                     	ds	1
   809  00000B                     gpio_pin_write_logic@ret:
   810                           	callstack 0
   811  00000B                     gpio_pin_read_logic@ret:
   812                           	callstack 0
   813  00000B                     ___fltol@exp1:
   814                           	callstack 0
   815  00000B                     ___xxtofl@exp:
   816                           	callstack 0
   817                           
   818                           ; 1 bytes @ 0xA
   819  00000B                     	ds	1
   820  00000C                     lcd_send_4bits@lcd:
   821                           	callstack 0
   822  00000C                     lcd_4bit_send_enable_signal@lcd:
   823                           	callstack 0
   824  00000C                     keypad_get_value@_keypad_obj:
   825                           	callstack 0
   826  00000C                     gpio_pin_intialize@_pin_config:
   827                           	callstack 0
   828  00000C                     ___xxtofl@arg:
   829                           	callstack 0
   830                           
   831                           ; 4 bytes @ 0xB
   832  00000C                     	ds	2
   833  00000E                     ??_gpio_pin_intialize:
   834  00000E                     lcd_send_4bits@_data_command:
   835                           	callstack 0
   836  00000E                     lcd_4bit_send_enable_signal@ret:
   837                           	callstack 0
   838  00000E                     keypad_get_value@value:
   839                           	callstack 0
   840                           
   841                           ; 2 bytes @ 0xD
   842  00000E                     	ds	1
   843  00000F                     lcd_send_4bits@ret:
   844                           	callstack 0
   845  00000F                     gpio_pin_intialize@ret:
   846                           	callstack 0
   847                           
   848                           ; 1 bytes @ 0xE
   849  00000F                     	ds	1
   850  000010                     ??_keypad_get_value:
   851  000010                     ?___fldiv:
   852                           	callstack 0
   853  000010                     lcd_4bit_send_command@lcd:
   854                           	callstack 0
   855  000010                     lcd_4bit_send_char_data@lcd:
   856                           	callstack 0
   857  000010                     keypad_initialize@_keypad_obj:
   858                           	callstack 0
   859  000010                     ___fldiv@b:
   860                           	callstack 0
   861                           
   862                           ; 4 bytes @ 0xF
   863  000010                     	ds	2
   864  000012                     ??_keypad_initialize:
   865  000012                     lcd_4bit_send_command@command:
   866                           	callstack 0
   867  000012                     lcd_4bit_send_char_data@data:
   868                           	callstack 0
   869  000012                     keypad_get_value@ret:
   870                           	callstack 0
   871                           
   872                           ; 1 bytes @ 0x11
   873  000012                     	ds	1
   874  000013                     lcd_4bit_send_command@ret:
   875                           	callstack 0
   876  000013                     lcd_4bit_send_char_data@ret:
   877                           	callstack 0
   878  000013                     keypad_get_value@column_logic:
   879                           	callstack 0
   880                           
   881                           ; 1 bytes @ 0x12
   882  000013                     	ds	1
   883  000014                     keypad_initialize@ret:
   884                           	callstack 0
   885  000014                     keypad_get_value@l_counter:
   886                           	callstack 0
   887  000014                     lcd_4bit_intialize@lcd:
   888                           	callstack 0
   889  000014                     lcd_4bit_set_cursor@lcd:
   890                           	callstack 0
   891  000014                     ___fldiv@a:
   892                           	callstack 0
   893                           
   894                           ; 4 bytes @ 0x13
   895  000014                     	ds	1
   896  000015                     keypad_initialize@rows_counter:
   897                           	callstack 0
   898  000015                     keypad_get_value@l_rows_counter:
   899                           	callstack 0
   900                           
   901                           ; 1 bytes @ 0x14
   902  000015                     	ds	1
   903  000016                     ??_lcd_4bit_intialize:
   904  000016                     lcd_4bit_set_cursor@row:
   905                           	callstack 0
   906  000016                     keypad_initialize@columns_counter:
   907                           	callstack 0
   908  000016                     keypad_get_value@l_columns_counter:
   909                           	callstack 0
   910                           
   911                           ; 1 bytes @ 0x15
   912  000016                     	ds	1
   913  000017                     lcd_4bit_set_cursor@coulmn:
   914                           	callstack 0
   915                           
   916                           ; 1 bytes @ 0x16
   917  000017                     	ds	1
   918  000018                     ??_lcd_4bit_set_cursor:
   919  000018                     ??___fldiv:
   920  000018                     lcd_4bit_intialize@l_data_pins_counter:
   921                           	callstack 0
   922                           
   923                           ; 1 bytes @ 0x17
   924  000018                     	ds	1
   925  000019                     lcd_4bit_intialize@ret:
   926                           	callstack 0
   927                           
   928                           ; 1 bytes @ 0x18
   929  000019                     	ds	1
   930  00001A                     lcd_4bit_set_cursor@ret:
   931                           	callstack 0
   932                           
   933                           ; 1 bytes @ 0x19
   934  00001A                     	ds	1
   935  00001B                     lcd_4bit_send_char_data_pos@lcd:
   936                           	callstack 0
   937  00001B                     lcd_4bit_send_string_pos@lcd:
   938                           	callstack 0
   939                           
   940                           ; 2 bytes @ 0x1A
   941  00001B                     	ds	1
   942  00001C                     ___fldiv@rem:
   943                           	callstack 0
   944                           
   945                           ; 4 bytes @ 0x1B
   946  00001C                     	ds	1
   947  00001D                     lcd_4bit_send_char_data_pos@row:
   948                           	callstack 0
   949  00001D                     lcd_4bit_send_string_pos@row:
   950                           	callstack 0
   951                           
   952                           ; 1 bytes @ 0x1C
   953  00001D                     	ds	1
   954  00001E                     lcd_4bit_send_char_data_pos@column:
   955                           	callstack 0
   956  00001E                     lcd_4bit_send_string_pos@column:
   957                           	callstack 0
   958                           
   959                           ; 1 bytes @ 0x1D
   960  00001E                     	ds	1
   961  00001F                     lcd_4bit_send_char_data_pos@data:
   962                           	callstack 0
   963  00001F                     lcd_4bit_send_string_pos@str:
   964                           	callstack 0
   965                           
   966                           ; 2 bytes @ 0x1E
   967  00001F                     	ds	1
   968  000020                     lcd_4bit_send_char_data_pos@ret:
   969                           	callstack 0
   970  000020                     ___fldiv@sign:
   971                           	callstack 0
   972                           
   973                           ; 1 bytes @ 0x1F
   974  000020                     	ds	1
   975  000021                     lcd_4bit_send_string_pos@ret:
   976                           	callstack 0
   977  000021                     ___fldiv@new_exp:
   978                           	callstack 0
   979                           
   980                           ; 2 bytes @ 0x20
   981  000021                     	ds	1
   982  000022                     ??_WelcomingMessage:
   983  000022                     ??_getHoures:
   984  000022                     ??_getMinutes:
   985  000022                     ??_getSeconds:
   986  000022                     ??_TimeValidation:
   987                           
   988                           ; 1 bytes @ 0x21
   989  000022                     	ds	1
   990  000023                     ___fldiv@grs:
   991                           	callstack 0
   992                           
   993                           ; 4 bytes @ 0x22
   994  000023                     	ds	4
   995  000027                     ___fldiv@bexp:
   996                           	callstack 0
   997                           
   998                           ; 1 bytes @ 0x26
   999  000027                     	ds	1
  1000  000028                     ___fldiv@aexp:
  1001                           	callstack 0
  1002                           
  1003                           ; 1 bytes @ 0x27
  1004  000028                     	ds	1
  1005  000029                     ?___fladd:
  1006                           	callstack 0
  1007  000029                     ___fladd@b:
  1008                           	callstack 0
  1009                           
  1010                           ; 4 bytes @ 0x28
  1011  000029                     	ds	4
  1012  00002D                     ___fladd@a:
  1013                           	callstack 0
  1014                           
  1015                           ; 4 bytes @ 0x2C
  1016  00002D                     	ds	4
  1017  000031                     ??___fladd:
  1018                           
  1019                           ; 1 bytes @ 0x30
  1020  000031                     	ds	4
  1021  000035                     ___fladd@signs:
  1022                           	callstack 0
  1023                           
  1024                           ; 1 bytes @ 0x34
  1025  000035                     	ds	1
  1026  000036                     ___fladd@aexp:
  1027                           	callstack 0
  1028                           
  1029                           ; 1 bytes @ 0x35
  1030  000036                     	ds	1
  1031  000037                     ___fladd@bexp:
  1032                           	callstack 0
  1033                           
  1034                           ; 1 bytes @ 0x36
  1035  000037                     	ds	1
  1036  000038                     ___fladd@grs:
  1037                           	callstack 0
  1038                           
  1039                           ; 1 bytes @ 0x37
  1040  000038                     	ds	1
  1041  000039                     EUSART_Baud_Rate_Calculation@_eusart:
  1042                           	callstack 0
  1043                           
  1044                           ; 2 bytes @ 0x38
  1045  000039                     	ds	2
  1046  00003B                     ??_EUSART_Baud_Rate_Calculation:
  1047                           
  1048                           ; 1 bytes @ 0x3A
  1049  00003B                     	ds	2
  1050  00003D                     EUSART_Baud_Rate_Calculation@Baud_Rate_Temp:
  1051                           	callstack 0
  1052                           
  1053                           ; 4 bytes @ 0x3C
  1054  00003D                     	ds	4
  1055  000041                     _EUSART_Baud_Rate_Calculation$5494:
  1056                           	callstack 0
  1057                           
  1058                           ; 4 bytes @ 0x40
  1059  000041                     	ds	4
  1060  000045                     EUSART_ASYNC_Init@_eusart:
  1061                           	callstack 0
  1062                           
  1063                           ; 2 bytes @ 0x44
  1064  000045                     	ds	2
  1065  000047                     EUSART_ASYNC_Init@ret:
  1066                           	callstack 0
  1067                           
  1068                           ; 1 bytes @ 0x46
  1069  000047                     	ds	1
  1070  000048                     
  1071                           ; 1 bytes @ 0x47
  1072 ;;
  1073 ;;Main: autosize = 0, tempsize = 2, incstack = 0, save=0
  1074 ;;
  1075 ;; *************** function _main *****************
  1076 ;; Defined at:
  1077 ;;		line 126 in file "application.c"
  1078 ;; Parameters:    Size  Location     Type
  1079 ;;		None
  1080 ;; Auto vars:     Size  Location     Type
  1081 ;;		None
  1082 ;; Return value:  Size  Location     Type
  1083 ;;                  2  1759[None  ] int 
  1084 ;; Registers used:
  1085 ;;		wreg, fsr2l, fsr2h, status,2, status,0, tblptrl, tblptrh, tblptru, prodl, prodh, cstack
  1086 ;; Tracked objects:
  1087 ;;		On entry : 0/0
  1088 ;;		On exit  : 0/0
  1089 ;;		Unchanged: 0/0
  1090 ;; Data sizes:     COMRAM   BANK0   BANK1   BANK2   BANK3   BANK4   BANK5   BANK6   BANK7   BANK8   BANK9  BANK10  BANK1
      +1  BANK12  BANK13  BANK14  BANK15
  1091 ;;      Params:         0       0       0       0       0       0       0       0       0       0       0       0       
      +0       0       0       0       0
  1092 ;;      Locals:         0       0       0       0       0       0       0       0       0       0       0       0       
      +0       0       0       0       0
  1093 ;;      Temps:          0       2       0       0       0       0       0       0       0       0       0       0       
      +0       0       0       0       0
  1094 ;;      Totals:         0       2       0       0       0       0       0       0       0       0       0       0       
      +0       0       0       0       0
  1095 ;;Total ram usage:        2 bytes
  1096 ;; Hardware stack levels required when called: 8
  1097 ;; This function calls:
  1098 ;;		_TimeValidation
  1099 ;;		_WelcomingMessage
  1100 ;;		_application_intialize
  1101 ;;		_calcTime
  1102 ;;		_getHoures
  1103 ;;		_getMinutes
  1104 ;;		_getSeconds
  1105 ;;		_keypad_get_value
  1106 ;;		_lcd_4bit_send_char_data_pos
  1107 ;;		_lcd_4bit_send_command
  1108 ;;		_lcd_4bit_send_string_pos
  1109 ;; This function is called by:
  1110 ;;		Startup code after reset
  1111 ;; This function uses a non-reentrant model
  1112 ;;
  1113                           
  1114                           	psect	text0
  1115  0024B4                     __ptext0:
  1116                           	callstack 0
  1117  0024B4                     _main:
  1118                           	callstack 23
  1119  0024B4                     
  1120                           ;application.c: 128:     application_intialize();
  1121  0024B4  EC0E  F01B         	call	_application_intialize	;wreg free
  1122  0024B8                     
  1123                           ;application.c: 129:     WelcomingMessage();
  1124  0024B8  EC76  F01A         	call	_WelcomingMessage	;wreg free
  1125  0024BC                     l8228:
  1126                           
  1127                           ;application.c: 131:     {;application.c: 132:         ret = lcd_4bit_send_string_pos(&l
      +                          cd_1, 1, 1, "Press 1 To Set the  Time : ");
  1128  0024BC  0E75               	movlw	low _lcd_1
  1129  0024BE  6E1B               	movwf	lcd_4bit_send_string_pos@lcd^0,c
  1130  0024C0  0E00               	movlw	high _lcd_1
  1131  0024C2  6E1C               	movwf	(lcd_4bit_send_string_pos@lcd+1)^0,c
  1132  0024C4  0E01               	movlw	1
  1133  0024C6  6E1D               	movwf	lcd_4bit_send_string_pos@row^0,c
  1134  0024C8  0E01               	movlw	1
  1135  0024CA  6E1E               	movwf	lcd_4bit_send_string_pos@column^0,c
  1136  0024CC  0E11               	movlw	low STR_4
  1137  0024CE  6E1F               	movwf	lcd_4bit_send_string_pos@str^0,c
  1138  0024D0  0E10               	movlw	high STR_4
  1139  0024D2  6E20               	movwf	(lcd_4bit_send_string_pos@str+1)^0,c
  1140  0024D4  ECE1  F018         	call	_lcd_4bit_send_string_pos	;wreg free
  1141  0024D8  6E7C               	movwf	_ret^0,c
  1142  0024DA                     
  1143                           ;application.c: 133:         ret = keypad_get_value(&keypad_1, &KeypadPressed);
  1144  0024DA  0EB6               	movlw	low _keypad_1
  1145  0024DC  6E0C               	movwf	keypad_get_value@_keypad_obj^0,c
  1146  0024DE  0E00               	movlw	high _keypad_1
  1147  0024E0  6E0D               	movwf	(keypad_get_value@_keypad_obj+1)^0,c
  1148  0024E2  0E7B               	movlw	low _KeypadPressed
  1149  0024E4  6E0E               	movwf	keypad_get_value@value^0,c
  1150  0024E6  0E00               	movlw	high _KeypadPressed
  1151  0024E8  6E0F               	movwf	(keypad_get_value@value+1)^0,c
  1152  0024EA  EC1A  F014         	call	_keypad_get_value	;wreg free
  1153  0024EE  6E7C               	movwf	_ret^0,c
  1154  0024F0                     
  1155                           ;application.c: 134:         if(KeypadPressed != 47)
  1156  0024F0  0E2F               	movlw	47
  1157  0024F2  187B               	xorwf	_KeypadPressed^0,w,c
  1158  0024F4  B4D8               	btfsc	status,2,c
  1159  0024F6  EF7F  F012         	goto	u7571
  1160  0024FA  EF81  F012         	goto	u7570
  1161  0024FE                     u7571:
  1162  0024FE  EF5E  F012         	goto	l8228
  1163  002502                     u7570:
  1164  002502                     
  1165                           ;application.c: 135:         {;application.c: 136:             ret = lcd_4bit_send_char_
      +                          data_pos(&lcd_1, 3, 8, KeypadPressed);
  1166  002502  0E75               	movlw	low _lcd_1
  1167  002504  6E1B               	movwf	lcd_4bit_send_char_data_pos@lcd^0,c
  1168  002506  0E00               	movlw	high _lcd_1
  1169  002508  6E1C               	movwf	(lcd_4bit_send_char_data_pos@lcd+1)^0,c
  1170  00250A  0E03               	movlw	3
  1171  00250C  6E1D               	movwf	lcd_4bit_send_char_data_pos@row^0,c
  1172  00250E  0E08               	movlw	8
  1173  002510  6E1E               	movwf	lcd_4bit_send_char_data_pos@column^0,c
  1174  002512  C07B  F01F         	movff	_KeypadPressed,lcd_4bit_send_char_data_pos@data
  1175  002516  EC9A  F01A         	call	_lcd_4bit_send_char_data_pos	;wreg free
  1176  00251A  6E7C               	movwf	_ret^0,c
  1177  00251C                     
  1178                           ;application.c: 137:             _delay((unsigned long)((500)*(8000000UL/4000.0)));
  1179  00251C  0E06               	movlw	6
  1180  00251E  0100               	movlb	0	; () banked
  1181  002520  6FE7               	movwf	(??_main+1)& (0+255),b
  1182  002522  0E13               	movlw	19
  1183  002524  6FE6               	movwf	??_main& (0+255),b
  1184  002526  0EAD               	movlw	173
  1185  002528                     u7607:
  1186  002528  2EE8               	decfsz	wreg,f,c
  1187  00252A  D7FE               	bra	u7607
  1188  00252C  2FE6               	decfsz	??_main& (0+255),f,b
  1189  00252E  D7FC               	bra	u7607
  1190  002530  2FE7               	decfsz	(??_main+1)& (0+255),f,b
  1191  002532  D7FA               	bra	u7607
  1192  002534  D000               	nop2	
  1193  002536                     
  1194                           ;application.c: 138:             ret = lcd_4bit_send_command(&lcd_1, 0X01);
  1195  002536  0E75               	movlw	low _lcd_1
  1196  002538  6E10               	movwf	lcd_4bit_send_command@lcd^0,c
  1197  00253A  0E00               	movlw	high _lcd_1
  1198  00253C  6E11               	movwf	(lcd_4bit_send_command@lcd+1)^0,c
  1199  00253E  0E01               	movlw	1
  1200  002540  6E12               	movwf	lcd_4bit_send_command@command^0,c
  1201  002542  EC1D  F019         	call	_lcd_4bit_send_command	;wreg free
  1202  002546  6E7C               	movwf	_ret^0,c
  1203  002548                     
  1204                           ;application.c: 140:             if(KeypadPressed == '1')
  1205  002548  0E31               	movlw	49
  1206  00254A  187B               	xorwf	_KeypadPressed^0,w,c
  1207  00254C  A4D8               	btfss	status,2,c
  1208  00254E  EFAB  F012         	goto	u7581
  1209  002552  EFAD  F012         	goto	u7580
  1210  002556                     u7581:
  1211  002556  EFB7  F012         	goto	l8250
  1212  00255A                     u7580:
  1213  00255A                     
  1214                           ;application.c: 141:             {;application.c: 142:                 pressFlag = 1;
  1215  00255A  0E01               	movlw	1
  1216  00255C  6E5E               	movwf	_pressFlag^0,c
  1217  00255E                     
  1218                           ;application.c: 143:                 getHoures();
  1219  00255E  ECC4  F015         	call	_getHoures	;wreg free
  1220  002562                     
  1221                           ;application.c: 144:                 getMinutes();
  1222  002562  EC38  F015         	call	_getMinutes	;wreg free
  1223  002566                     
  1224                           ;application.c: 145:                 getSeconds();
  1225  002566  ECAC  F014         	call	_getSeconds	;wreg free
  1226                           
  1227                           ;application.c: 146:             }
  1228  00256A  EFDC  F012         	goto	l8256
  1229  00256E                     l8250:
  1230                           
  1231                           ;application.c: 148:             {;application.c: 149:                 ret = lcd_4bit_se
      +                          nd_string_pos(&lcd_1, 2, 2, "Wrong Choice !");
  1232  00256E  0E75               	movlw	low _lcd_1
  1233  002570  6E1B               	movwf	lcd_4bit_send_string_pos@lcd^0,c
  1234  002572  0E00               	movlw	high _lcd_1
  1235  002574  6E1C               	movwf	(lcd_4bit_send_string_pos@lcd+1)^0,c
  1236  002576  0E02               	movlw	2
  1237  002578  6E1D               	movwf	lcd_4bit_send_string_pos@row^0,c
  1238  00257A  0E02               	movlw	2
  1239  00257C  6E1E               	movwf	lcd_4bit_send_string_pos@column^0,c
  1240  00257E  0E2D               	movlw	low STR_5
  1241  002580  6E1F               	movwf	lcd_4bit_send_string_pos@str^0,c
  1242  002582  0E10               	movlw	high STR_5
  1243  002584  6E20               	movwf	(lcd_4bit_send_string_pos@str+1)^0,c
  1244  002586  ECE1  F018         	call	_lcd_4bit_send_string_pos	;wreg free
  1245  00258A  6E7C               	movwf	_ret^0,c
  1246  00258C                     
  1247                           ;application.c: 150:                 _delay((unsigned long)((500)*(8000000UL/4000.0)));
  1248  00258C  0E06               	movlw	6
  1249  00258E  0100               	movlb	0	; () banked
  1250  002590  6FE7               	movwf	(??_main+1)& (0+255),b
  1251  002592  0E13               	movlw	19
  1252  002594  6FE6               	movwf	??_main& (0+255),b
  1253  002596  0EAD               	movlw	173
  1254  002598                     u7617:
  1255  002598  2EE8               	decfsz	wreg,f,c
  1256  00259A  D7FE               	bra	u7617
  1257  00259C  2FE6               	decfsz	??_main& (0+255),f,b
  1258  00259E  D7FC               	bra	u7617
  1259  0025A0  2FE7               	decfsz	(??_main+1)& (0+255),f,b
  1260  0025A2  D7FA               	bra	u7617
  1261  0025A4  D000               	nop2	
  1262  0025A6                     
  1263                           ;application.c: 151:                 ret = lcd_4bit_send_command(&lcd_1, 0X01);
  1264  0025A6  0E75               	movlw	low _lcd_1
  1265  0025A8  6E10               	movwf	lcd_4bit_send_command@lcd^0,c
  1266  0025AA  0E00               	movlw	high _lcd_1
  1267  0025AC  6E11               	movwf	(lcd_4bit_send_command@lcd+1)^0,c
  1268  0025AE  0E01               	movlw	1
  1269  0025B0  6E12               	movwf	lcd_4bit_send_command@command^0,c
  1270  0025B2  EC1D  F019         	call	_lcd_4bit_send_command	;wreg free
  1271  0025B6  6E7C               	movwf	_ret^0,c
  1272  0025B8                     l8256:
  1273                           
  1274                           ;application.c: 153:             if(pressFlag == 1)
  1275  0025B8  045E               	decf	_pressFlag^0,w,c
  1276  0025BA  A4D8               	btfss	status,2,c
  1277  0025BC  EFE2  F012         	goto	u7591
  1278  0025C0  EFE4  F012         	goto	u7590
  1279  0025C4                     u7591:
  1280  0025C4  EFEA  F012         	goto	l8264
  1281  0025C8                     u7590:
  1282  0025C8                     
  1283                           ;application.c: 154:             {;application.c: 155:                 calcTime();
  1284  0025C8  EC24  F01B         	call	_calcTime	;wreg free
  1285  0025CC                     
  1286                           ;application.c: 156:                 TimeValidation();
  1287  0025CC  ECF7  F017         	call	_TimeValidation	;wreg free
  1288  0025D0                     
  1289                           ;application.c: 157:                 pressFlag = 0;
  1290  0025D0  0E00               	movlw	0
  1291  0025D2  6E5E               	movwf	_pressFlag^0,c
  1292  0025D4                     l8264:
  1293                           
  1294                           ;application.c: 159:             KeypadPressed = 47;
  1295  0025D4  0E2F               	movlw	47
  1296  0025D6  6E7B               	movwf	_KeypadPressed^0,c
  1297  0025D8  EF5E  F012         	goto	l8228
  1298  0025DC  EF07  F000         	goto	start
  1299  0025E0                     __end_of_main:
  1300                           	callstack 0
  1301                           
  1302 ;; *************** function _getSeconds *****************
  1303 ;; Defined at:
  1304 ;;		line 248 in file "application.c"
  1305 ;; Parameters:    Size  Location     Type
  1306 ;;		None
  1307 ;; Auto vars:     Size  Location     Type
  1308 ;;		None
  1309 ;; Return value:  Size  Location     Type
  1310 ;;                  1    wreg      void 
  1311 ;; Registers used:
  1312 ;;		wreg, fsr2l, fsr2h, status,2, status,0, tblptrl, tblptrh, tblptru, prodl, prodh, cstack
  1313 ;; Tracked objects:
  1314 ;;		On entry : 0/0
  1315 ;;		On exit  : 0/0
  1316 ;;		Unchanged: 0/0
  1317 ;; Data sizes:     COMRAM   BANK0   BANK1   BANK2   BANK3   BANK4   BANK5   BANK6   BANK7   BANK8   BANK9  BANK10  BANK1
      +1  BANK12  BANK13  BANK14  BANK15
  1318 ;;      Params:         0       0       0       0       0       0       0       0       0       0       0       0       
      +0       0       0       0       0
  1319 ;;      Locals:         0       0       0       0       0       0       0       0       0       0       0       0       
      +0       0       0       0       0
  1320 ;;      Temps:          2       0       0       0       0       0       0       0       0       0       0       0       
      +0       0       0       0       0
  1321 ;;      Totals:         2       0       0       0       0       0       0       0       0       0       0       0       
      +0       0       0       0       0
  1322 ;;Total ram usage:        2 bytes
  1323 ;; Hardware stack levels used: 1
  1324 ;; Hardware stack levels required when called: 7
  1325 ;; This function calls:
  1326 ;;		_keypad_get_value
  1327 ;;		_lcd_4bit_send_char_data_pos
  1328 ;;		_lcd_4bit_send_command
  1329 ;;		_lcd_4bit_send_string_pos
  1330 ;; This function is called by:
  1331 ;;		_main
  1332 ;; This function uses a non-reentrant model
  1333 ;;
  1334                           
  1335                           	psect	text1
  1336  002958                     __ptext1:
  1337                           	callstack 0
  1338  002958                     _getSeconds:
  1339                           	callstack 23
  1340  002958                     
  1341                           ;application.c: 250:     KeypadPressed = 47;
  1342  002958  0E2F               	movlw	47
  1343  00295A  6E7B               	movwf	_KeypadPressed^0,c
  1344  00295C                     
  1345                           ;application.c: 251:     ret = lcd_4bit_send_string_pos(&lcd_1, 1, 1, "Seconds : ");
  1346  00295C  0E75               	movlw	low _lcd_1
  1347  00295E  6E1B               	movwf	lcd_4bit_send_string_pos@lcd^0,c
  1348  002960  0E00               	movlw	high _lcd_1
  1349  002962  6E1C               	movwf	(lcd_4bit_send_string_pos@lcd+1)^0,c
  1350  002964  0E01               	movlw	1
  1351  002966  6E1D               	movwf	lcd_4bit_send_string_pos@row^0,c
  1352  002968  0E01               	movlw	1
  1353  00296A  6E1E               	movwf	lcd_4bit_send_string_pos@column^0,c
  1354  00296C  0E4B               	movlw	low STR_10
  1355  00296E  6E1F               	movwf	lcd_4bit_send_string_pos@str^0,c
  1356  002970  0E10               	movlw	high STR_10
  1357  002972  6E20               	movwf	(lcd_4bit_send_string_pos@str+1)^0,c
  1358  002974  ECE1  F018         	call	_lcd_4bit_send_string_pos	;wreg free
  1359  002978  6E7C               	movwf	_ret^0,c
  1360  00297A                     l6920:
  1361                           
  1362                           ;application.c: 253:     {;application.c: 254:         ret = keypad_get_value(&keypad_1,
      +                           &KeypadPressed);
  1363  00297A  0EB6               	movlw	low _keypad_1
  1364  00297C  6E0C               	movwf	keypad_get_value@_keypad_obj^0,c
  1365  00297E  0E00               	movlw	high _keypad_1
  1366  002980  6E0D               	movwf	(keypad_get_value@_keypad_obj+1)^0,c
  1367  002982  0E7B               	movlw	low _KeypadPressed
  1368  002984  6E0E               	movwf	keypad_get_value@value^0,c
  1369  002986  0E00               	movlw	high _KeypadPressed
  1370  002988  6E0F               	movwf	(keypad_get_value@value+1)^0,c
  1371  00298A  EC1A  F014         	call	_keypad_get_value	;wreg free
  1372  00298E  6E7C               	movwf	_ret^0,c
  1373  002990                     
  1374                           ;application.c: 255:         _delay((unsigned long)((200)*(8000000UL/4000.0)));
  1375  002990  0E03               	movlw	3
  1376  002992  6E23               	movwf	(??_getSeconds+1)^0,c
  1377  002994  0E08               	movlw	8
  1378  002996  6E22               	movwf	??_getSeconds^0,c
  1379  002998  0E77               	movlw	119
  1380  00299A                     u7627:
  1381  00299A  2EE8               	decfsz	wreg,f,c
  1382  00299C  D7FE               	bra	u7627
  1383  00299E  2E22               	decfsz	??_getSeconds^0,f,c
  1384  0029A0  D7FC               	bra	u7627
  1385  0029A2  2E23               	decfsz	(??_getSeconds+1)^0,f,c
  1386  0029A4  D7FA               	bra	u7627
  1387  0029A6  F000               	nop	
  1388  0029A8                     
  1389                           ;application.c: 256:     }
  1390  0029A8  0E2F               	movlw	47
  1391  0029AA  187B               	xorwf	_KeypadPressed^0,w,c
  1392  0029AC  B4D8               	btfsc	status,2,c
  1393  0029AE  EFDB  F014         	goto	u5701
  1394  0029B2  EFDD  F014         	goto	u5700
  1395  0029B6                     u5701:
  1396  0029B6  EFBD  F014         	goto	l6920
  1397  0029BA                     u5700:
  1398  0029BA                     
  1399                           ;application.c: 258:     ret = lcd_4bit_send_char_data_pos(&lcd_1, 1, 12, KeypadPressed)
      +                          ;
  1400  0029BA  0E75               	movlw	low _lcd_1
  1401  0029BC  6E1B               	movwf	lcd_4bit_send_char_data_pos@lcd^0,c
  1402  0029BE  0E00               	movlw	high _lcd_1
  1403  0029C0  6E1C               	movwf	(lcd_4bit_send_char_data_pos@lcd+1)^0,c
  1404  0029C2  0E01               	movlw	1
  1405  0029C4  6E1D               	movwf	lcd_4bit_send_char_data_pos@row^0,c
  1406  0029C6  0E0C               	movlw	12
  1407  0029C8  6E1E               	movwf	lcd_4bit_send_char_data_pos@column^0,c
  1408  0029CA  C07B  F01F         	movff	_KeypadPressed,lcd_4bit_send_char_data_pos@data
  1409  0029CE  EC9A  F01A         	call	_lcd_4bit_send_char_data_pos	;wreg free
  1410  0029D2  6E7C               	movwf	_ret^0,c
  1411  0029D4                     
  1412                           ;application.c: 259:     time[4] = KeypadPressed-48;
  1413  0029D4  507B               	movf	_KeypadPressed^0,w,c
  1414  0029D6  0FD0               	addlw	208
  1415  0029D8  0100               	movlb	0	; () banked
  1416  0029DA  6FA2               	movwf	(_time+4)& (0+255),b
  1417  0029DC                     
  1418                           ; BSR set to: 0
  1419                           ;application.c: 260:     KeypadPressed = 47;
  1420  0029DC  0E2F               	movlw	47
  1421  0029DE  6E7B               	movwf	_KeypadPressed^0,c
  1422  0029E0                     l6932:
  1423                           
  1424                           ;application.c: 262:     {;application.c: 263:         ret = keypad_get_value(&keypad_1,
      +                           &KeypadPressed);
  1425  0029E0  0EB6               	movlw	low _keypad_1
  1426  0029E2  6E0C               	movwf	keypad_get_value@_keypad_obj^0,c
  1427  0029E4  0E00               	movlw	high _keypad_1
  1428  0029E6  6E0D               	movwf	(keypad_get_value@_keypad_obj+1)^0,c
  1429  0029E8  0E7B               	movlw	low _KeypadPressed
  1430  0029EA  6E0E               	movwf	keypad_get_value@value^0,c
  1431  0029EC  0E00               	movlw	high _KeypadPressed
  1432  0029EE  6E0F               	movwf	(keypad_get_value@value+1)^0,c
  1433  0029F0  EC1A  F014         	call	_keypad_get_value	;wreg free
  1434  0029F4  6E7C               	movwf	_ret^0,c
  1435  0029F6                     
  1436                           ;application.c: 264:         _delay((unsigned long)((200)*(8000000UL/4000.0)));
  1437  0029F6  0E03               	movlw	3
  1438  0029F8  6E23               	movwf	(??_getSeconds+1)^0,c
  1439  0029FA  0E08               	movlw	8
  1440  0029FC  6E22               	movwf	??_getSeconds^0,c
  1441  0029FE  0E77               	movlw	119
  1442  002A00                     u7637:
  1443  002A00  2EE8               	decfsz	wreg,f,c
  1444  002A02  D7FE               	bra	u7637
  1445  002A04  2E22               	decfsz	??_getSeconds^0,f,c
  1446  002A06  D7FC               	bra	u7637
  1447  002A08  2E23               	decfsz	(??_getSeconds+1)^0,f,c
  1448  002A0A  D7FA               	bra	u7637
  1449  002A0C  F000               	nop	
  1450  002A0E                     
  1451                           ;application.c: 265:     }
  1452  002A0E  0E2F               	movlw	47
  1453  002A10  187B               	xorwf	_KeypadPressed^0,w,c
  1454  002A12  B4D8               	btfsc	status,2,c
  1455  002A14  EF0E  F015         	goto	u5711
  1456  002A18  EF10  F015         	goto	u5710
  1457  002A1C                     u5711:
  1458  002A1C  EFF0  F014         	goto	l6932
  1459  002A20                     u5710:
  1460  002A20                     
  1461                           ;application.c: 267:     ret = lcd_4bit_send_char_data_pos(&lcd_1, 1, 13, KeypadPressed)
      +                          ;
  1462  002A20  0E75               	movlw	low _lcd_1
  1463  002A22  6E1B               	movwf	lcd_4bit_send_char_data_pos@lcd^0,c
  1464  002A24  0E00               	movlw	high _lcd_1
  1465  002A26  6E1C               	movwf	(lcd_4bit_send_char_data_pos@lcd+1)^0,c
  1466  002A28  0E01               	movlw	1
  1467  002A2A  6E1D               	movwf	lcd_4bit_send_char_data_pos@row^0,c
  1468  002A2C  0E0D               	movlw	13
  1469  002A2E  6E1E               	movwf	lcd_4bit_send_char_data_pos@column^0,c
  1470  002A30  C07B  F01F         	movff	_KeypadPressed,lcd_4bit_send_char_data_pos@data
  1471  002A34  EC9A  F01A         	call	_lcd_4bit_send_char_data_pos	;wreg free
  1472  002A38  6E7C               	movwf	_ret^0,c
  1473  002A3A                     
  1474                           ;application.c: 268:     _delay((unsigned long)((300)*(8000000UL/4000.0)));
  1475  002A3A  0E04               	movlw	4
  1476  002A3C  6E23               	movwf	(??_getSeconds+1)^0,c
  1477  002A3E  0E0C               	movlw	12
  1478  002A40  6E22               	movwf	??_getSeconds^0,c
  1479  002A42  0E34               	movlw	52
  1480  002A44                     u7647:
  1481  002A44  2EE8               	decfsz	wreg,f,c
  1482  002A46  D7FE               	bra	u7647
  1483  002A48  2E22               	decfsz	??_getSeconds^0,f,c
  1484  002A4A  D7FC               	bra	u7647
  1485  002A4C  2E23               	decfsz	(??_getSeconds+1)^0,f,c
  1486  002A4E  D7FA               	bra	u7647
  1487  002A50                     
  1488                           ;application.c: 269:     time[5] = KeypadPressed-48;
  1489  002A50  507B               	movf	_KeypadPressed^0,w,c
  1490  002A52  0FD0               	addlw	208
  1491  002A54  0100               	movlb	0	; () banked
  1492  002A56  6FA3               	movwf	(_time+5)& (0+255),b
  1493  002A58                     
  1494                           ; BSR set to: 0
  1495                           ;application.c: 270:     KeypadPressed = 47;
  1496  002A58  0E2F               	movlw	47
  1497  002A5A  6E7B               	movwf	_KeypadPressed^0,c
  1498  002A5C                     
  1499                           ; BSR set to: 0
  1500                           ;application.c: 271:     ret = lcd_4bit_send_command(&lcd_1, 0X01);
  1501  002A5C  0E75               	movlw	low _lcd_1
  1502  002A5E  6E10               	movwf	lcd_4bit_send_command@lcd^0,c
  1503  002A60  0E00               	movlw	high _lcd_1
  1504  002A62  6E11               	movwf	(lcd_4bit_send_command@lcd+1)^0,c
  1505  002A64  0E01               	movlw	1
  1506  002A66  6E12               	movwf	lcd_4bit_send_command@command^0,c
  1507  002A68  EC1D  F019         	call	_lcd_4bit_send_command	;wreg free
  1508  002A6C  6E7C               	movwf	_ret^0,c
  1509  002A6E  0012               	return		;funcret
  1510  002A70                     __end_of_getSeconds:
  1511                           	callstack 0
  1512                           
  1513 ;; *************** function _getMinutes *****************
  1514 ;; Defined at:
  1515 ;;		line 221 in file "application.c"
  1516 ;; Parameters:    Size  Location     Type
  1517 ;;		None
  1518 ;; Auto vars:     Size  Location     Type
  1519 ;;		None
  1520 ;; Return value:  Size  Location     Type
  1521 ;;                  1    wreg      void 
  1522 ;; Registers used:
  1523 ;;		wreg, fsr2l, fsr2h, status,2, status,0, tblptrl, tblptrh, tblptru, prodl, prodh, cstack
  1524 ;; Tracked objects:
  1525 ;;		On entry : 0/0
  1526 ;;		On exit  : 0/0
  1527 ;;		Unchanged: 0/0
  1528 ;; Data sizes:     COMRAM   BANK0   BANK1   BANK2   BANK3   BANK4   BANK5   BANK6   BANK7   BANK8   BANK9  BANK10  BANK1
      +1  BANK12  BANK13  BANK14  BANK15
  1529 ;;      Params:         0       0       0       0       0       0       0       0       0       0       0       0       
      +0       0       0       0       0
  1530 ;;      Locals:         0       0       0       0       0       0       0       0       0       0       0       0       
      +0       0       0       0       0
  1531 ;;      Temps:          2       0       0       0       0       0       0       0       0       0       0       0       
      +0       0       0       0       0
  1532 ;;      Totals:         2       0       0       0       0       0       0       0       0       0       0       0       
      +0       0       0       0       0
  1533 ;;Total ram usage:        2 bytes
  1534 ;; Hardware stack levels used: 1
  1535 ;; Hardware stack levels required when called: 7
  1536 ;; This function calls:
  1537 ;;		_keypad_get_value
  1538 ;;		_lcd_4bit_send_char_data_pos
  1539 ;;		_lcd_4bit_send_command
  1540 ;;		_lcd_4bit_send_string_pos
  1541 ;; This function is called by:
  1542 ;;		_main
  1543 ;; This function uses a non-reentrant model
  1544 ;;
  1545                           
  1546                           	psect	text2
  1547  002A70                     __ptext2:
  1548                           	callstack 0
  1549  002A70                     _getMinutes:
  1550                           	callstack 23
  1551  002A70                     
  1552                           ;application.c: 223:     KeypadPressed = 47;
  1553  002A70  0E2F               	movlw	47
  1554  002A72  6E7B               	movwf	_KeypadPressed^0,c
  1555  002A74                     
  1556                           ;application.c: 224:     ret = lcd_4bit_send_string_pos(&lcd_1, 1, 1, "Minutes : ");
  1557  002A74  0E75               	movlw	low _lcd_1
  1558  002A76  6E1B               	movwf	lcd_4bit_send_string_pos@lcd^0,c
  1559  002A78  0E00               	movlw	high _lcd_1
  1560  002A7A  6E1C               	movwf	(lcd_4bit_send_string_pos@lcd+1)^0,c
  1561  002A7C  0E01               	movlw	1
  1562  002A7E  6E1D               	movwf	lcd_4bit_send_string_pos@row^0,c
  1563  002A80  0E01               	movlw	1
  1564  002A82  6E1E               	movwf	lcd_4bit_send_string_pos@column^0,c
  1565  002A84  0E56               	movlw	low STR_9
  1566  002A86  6E1F               	movwf	lcd_4bit_send_string_pos@str^0,c
  1567  002A88  0E10               	movlw	high STR_9
  1568  002A8A  6E20               	movwf	(lcd_4bit_send_string_pos@str+1)^0,c
  1569  002A8C  ECE1  F018         	call	_lcd_4bit_send_string_pos	;wreg free
  1570  002A90  6E7C               	movwf	_ret^0,c
  1571  002A92                     l6888:
  1572                           
  1573                           ;application.c: 226:     {;application.c: 227:         ret = keypad_get_value(&keypad_1,
      +                           &KeypadPressed);
  1574  002A92  0EB6               	movlw	low _keypad_1
  1575  002A94  6E0C               	movwf	keypad_get_value@_keypad_obj^0,c
  1576  002A96  0E00               	movlw	high _keypad_1
  1577  002A98  6E0D               	movwf	(keypad_get_value@_keypad_obj+1)^0,c
  1578  002A9A  0E7B               	movlw	low _KeypadPressed
  1579  002A9C  6E0E               	movwf	keypad_get_value@value^0,c
  1580  002A9E  0E00               	movlw	high _KeypadPressed
  1581  002AA0  6E0F               	movwf	(keypad_get_value@value+1)^0,c
  1582  002AA2  EC1A  F014         	call	_keypad_get_value	;wreg free
  1583  002AA6  6E7C               	movwf	_ret^0,c
  1584  002AA8                     
  1585                           ;application.c: 228:         _delay((unsigned long)((200)*(8000000UL/4000.0)));
  1586  002AA8  0E03               	movlw	3
  1587  002AAA  6E23               	movwf	(??_getMinutes+1)^0,c
  1588  002AAC  0E08               	movlw	8
  1589  002AAE  6E22               	movwf	??_getMinutes^0,c
  1590  002AB0  0E77               	movlw	119
  1591  002AB2                     u7657:
  1592  002AB2  2EE8               	decfsz	wreg,f,c
  1593  002AB4  D7FE               	bra	u7657
  1594  002AB6  2E22               	decfsz	??_getMinutes^0,f,c
  1595  002AB8  D7FC               	bra	u7657
  1596  002ABA  2E23               	decfsz	(??_getMinutes+1)^0,f,c
  1597  002ABC  D7FA               	bra	u7657
  1598  002ABE  F000               	nop	
  1599  002AC0                     
  1600                           ;application.c: 229:     }
  1601  002AC0  0E2F               	movlw	47
  1602  002AC2  187B               	xorwf	_KeypadPressed^0,w,c
  1603  002AC4  B4D8               	btfsc	status,2,c
  1604  002AC6  EF67  F015         	goto	u5681
  1605  002ACA  EF69  F015         	goto	u5680
  1606  002ACE                     u5681:
  1607  002ACE  EF49  F015         	goto	l6888
  1608  002AD2                     u5680:
  1609  002AD2                     
  1610                           ;application.c: 231:     ret = lcd_4bit_send_char_data_pos(&lcd_1, 1, 12, KeypadPressed)
      +                          ;
  1611  002AD2  0E75               	movlw	low _lcd_1
  1612  002AD4  6E1B               	movwf	lcd_4bit_send_char_data_pos@lcd^0,c
  1613  002AD6  0E00               	movlw	high _lcd_1
  1614  002AD8  6E1C               	movwf	(lcd_4bit_send_char_data_pos@lcd+1)^0,c
  1615  002ADA  0E01               	movlw	1
  1616  002ADC  6E1D               	movwf	lcd_4bit_send_char_data_pos@row^0,c
  1617  002ADE  0E0C               	movlw	12
  1618  002AE0  6E1E               	movwf	lcd_4bit_send_char_data_pos@column^0,c
  1619  002AE2  C07B  F01F         	movff	_KeypadPressed,lcd_4bit_send_char_data_pos@data
  1620  002AE6  EC9A  F01A         	call	_lcd_4bit_send_char_data_pos	;wreg free
  1621  002AEA  6E7C               	movwf	_ret^0,c
  1622  002AEC                     
  1623                           ;application.c: 232:     time[2] = KeypadPressed-48;
  1624  002AEC  507B               	movf	_KeypadPressed^0,w,c
  1625  002AEE  0FD0               	addlw	208
  1626  002AF0  0100               	movlb	0	; () banked
  1627  002AF2  6FA0               	movwf	(_time+2)& (0+255),b
  1628  002AF4                     
  1629                           ; BSR set to: 0
  1630                           ;application.c: 233:     KeypadPressed = 47;
  1631  002AF4  0E2F               	movlw	47
  1632  002AF6  6E7B               	movwf	_KeypadPressed^0,c
  1633  002AF8                     l6900:
  1634                           
  1635                           ;application.c: 235:     {;application.c: 236:         ret = keypad_get_value(&keypad_1,
      +                           &KeypadPressed);
  1636  002AF8  0EB6               	movlw	low _keypad_1
  1637  002AFA  6E0C               	movwf	keypad_get_value@_keypad_obj^0,c
  1638  002AFC  0E00               	movlw	high _keypad_1
  1639  002AFE  6E0D               	movwf	(keypad_get_value@_keypad_obj+1)^0,c
  1640  002B00  0E7B               	movlw	low _KeypadPressed
  1641  002B02  6E0E               	movwf	keypad_get_value@value^0,c
  1642  002B04  0E00               	movlw	high _KeypadPressed
  1643  002B06  6E0F               	movwf	(keypad_get_value@value+1)^0,c
  1644  002B08  EC1A  F014         	call	_keypad_get_value	;wreg free
  1645  002B0C  6E7C               	movwf	_ret^0,c
  1646  002B0E                     
  1647                           ;application.c: 237:         _delay((unsigned long)((200)*(8000000UL/4000.0)));
  1648  002B0E  0E03               	movlw	3
  1649  002B10  6E23               	movwf	(??_getMinutes+1)^0,c
  1650  002B12  0E08               	movlw	8
  1651  002B14  6E22               	movwf	??_getMinutes^0,c
  1652  002B16  0E77               	movlw	119
  1653  002B18                     u7667:
  1654  002B18  2EE8               	decfsz	wreg,f,c
  1655  002B1A  D7FE               	bra	u7667
  1656  002B1C  2E22               	decfsz	??_getMinutes^0,f,c
  1657  002B1E  D7FC               	bra	u7667
  1658  002B20  2E23               	decfsz	(??_getMinutes+1)^0,f,c
  1659  002B22  D7FA               	bra	u7667
  1660  002B24  F000               	nop	
  1661  002B26                     
  1662                           ;application.c: 238:     }
  1663  002B26  0E2F               	movlw	47
  1664  002B28  187B               	xorwf	_KeypadPressed^0,w,c
  1665  002B2A  B4D8               	btfsc	status,2,c
  1666  002B2C  EF9A  F015         	goto	u5691
  1667  002B30  EF9C  F015         	goto	u5690
  1668  002B34                     u5691:
  1669  002B34  EF7C  F015         	goto	l6900
  1670  002B38                     u5690:
  1671  002B38                     
  1672                           ;application.c: 240:     ret = lcd_4bit_send_char_data_pos(&lcd_1, 1, 13, KeypadPressed)
      +                          ;
  1673  002B38  0E75               	movlw	low _lcd_1
  1674  002B3A  6E1B               	movwf	lcd_4bit_send_char_data_pos@lcd^0,c
  1675  002B3C  0E00               	movlw	high _lcd_1
  1676  002B3E  6E1C               	movwf	(lcd_4bit_send_char_data_pos@lcd+1)^0,c
  1677  002B40  0E01               	movlw	1
  1678  002B42  6E1D               	movwf	lcd_4bit_send_char_data_pos@row^0,c
  1679  002B44  0E0D               	movlw	13
  1680  002B46  6E1E               	movwf	lcd_4bit_send_char_data_pos@column^0,c
  1681  002B48  C07B  F01F         	movff	_KeypadPressed,lcd_4bit_send_char_data_pos@data
  1682  002B4C  EC9A  F01A         	call	_lcd_4bit_send_char_data_pos	;wreg free
  1683  002B50  6E7C               	movwf	_ret^0,c
  1684  002B52                     
  1685                           ;application.c: 241:     _delay((unsigned long)((300)*(8000000UL/4000.0)));
  1686  002B52  0E04               	movlw	4
  1687  002B54  6E23               	movwf	(??_getMinutes+1)^0,c
  1688  002B56  0E0C               	movlw	12
  1689  002B58  6E22               	movwf	??_getMinutes^0,c
  1690  002B5A  0E34               	movlw	52
  1691  002B5C                     u7677:
  1692  002B5C  2EE8               	decfsz	wreg,f,c
  1693  002B5E  D7FE               	bra	u7677
  1694  002B60  2E22               	decfsz	??_getMinutes^0,f,c
  1695  002B62  D7FC               	bra	u7677
  1696  002B64  2E23               	decfsz	(??_getMinutes+1)^0,f,c
  1697  002B66  D7FA               	bra	u7677
  1698  002B68                     
  1699                           ;application.c: 242:     time[3] = KeypadPressed-48;
  1700  002B68  507B               	movf	_KeypadPressed^0,w,c
  1701  002B6A  0FD0               	addlw	208
  1702  002B6C  0100               	movlb	0	; () banked
  1703  002B6E  6FA1               	movwf	(_time+3)& (0+255),b
  1704  002B70                     
  1705                           ; BSR set to: 0
  1706                           ;application.c: 243:     KeypadPressed = 47;
  1707  002B70  0E2F               	movlw	47
  1708  002B72  6E7B               	movwf	_KeypadPressed^0,c
  1709  002B74                     
  1710                           ; BSR set to: 0
  1711                           ;application.c: 244:     ret = lcd_4bit_send_command(&lcd_1, 0X01);
  1712  002B74  0E75               	movlw	low _lcd_1
  1713  002B76  6E10               	movwf	lcd_4bit_send_command@lcd^0,c
  1714  002B78  0E00               	movlw	high _lcd_1
  1715  002B7A  6E11               	movwf	(lcd_4bit_send_command@lcd+1)^0,c
  1716  002B7C  0E01               	movlw	1
  1717  002B7E  6E12               	movwf	lcd_4bit_send_command@command^0,c
  1718  002B80  EC1D  F019         	call	_lcd_4bit_send_command	;wreg free
  1719  002B84  6E7C               	movwf	_ret^0,c
  1720  002B86  0012               	return		;funcret
  1721  002B88                     __end_of_getMinutes:
  1722                           	callstack 0
  1723                           
  1724 ;; *************** function _getHoures *****************
  1725 ;; Defined at:
  1726 ;;		line 194 in file "application.c"
  1727 ;; Parameters:    Size  Location     Type
  1728 ;;		None
  1729 ;; Auto vars:     Size  Location     Type
  1730 ;;		None
  1731 ;; Return value:  Size  Location     Type
  1732 ;;                  1    wreg      void 
  1733 ;; Registers used:
  1734 ;;		wreg, fsr2l, fsr2h, status,2, status,0, tblptrl, tblptrh, tblptru, prodl, prodh, cstack
  1735 ;; Tracked objects:
  1736 ;;		On entry : 0/0
  1737 ;;		On exit  : 0/0
  1738 ;;		Unchanged: 0/0
  1739 ;; Data sizes:     COMRAM   BANK0   BANK1   BANK2   BANK3   BANK4   BANK5   BANK6   BANK7   BANK8   BANK9  BANK10  BANK1
      +1  BANK12  BANK13  BANK14  BANK15
  1740 ;;      Params:         0       0       0       0       0       0       0       0       0       0       0       0       
      +0       0       0       0       0
  1741 ;;      Locals:         0       0       0       0       0       0       0       0       0       0       0       0       
      +0       0       0       0       0
  1742 ;;      Temps:          2       0       0       0       0       0       0       0       0       0       0       0       
      +0       0       0       0       0
  1743 ;;      Totals:         2       0       0       0       0       0       0       0       0       0       0       0       
      +0       0       0       0       0
  1744 ;;Total ram usage:        2 bytes
  1745 ;; Hardware stack levels used: 1
  1746 ;; Hardware stack levels required when called: 7
  1747 ;; This function calls:
  1748 ;;		_keypad_get_value
  1749 ;;		_lcd_4bit_send_char_data_pos
  1750 ;;		_lcd_4bit_send_command
  1751 ;;		_lcd_4bit_send_string_pos
  1752 ;; This function is called by:
  1753 ;;		_main
  1754 ;; This function uses a non-reentrant model
  1755 ;;
  1756                           
  1757                           	psect	text3
  1758  002B88                     __ptext3:
  1759                           	callstack 0
  1760  002B88                     _getHoures:
  1761                           	callstack 23
  1762  002B88                     
  1763                           ;application.c: 196:     KeypadPressed = 47;
  1764  002B88  0E2F               	movlw	47
  1765  002B8A  6E7B               	movwf	_KeypadPressed^0,c
  1766  002B8C                     
  1767                           ;application.c: 197:     ret = lcd_4bit_send_string_pos(&lcd_1, 1, 1, "Houres : ");
  1768  002B8C  0E75               	movlw	low _lcd_1
  1769  002B8E  6E1B               	movwf	lcd_4bit_send_string_pos@lcd^0,c
  1770  002B90  0E00               	movlw	high _lcd_1
  1771  002B92  6E1C               	movwf	(lcd_4bit_send_string_pos@lcd+1)^0,c
  1772  002B94  0E01               	movlw	1
  1773  002B96  6E1D               	movwf	lcd_4bit_send_string_pos@row^0,c
  1774  002B98  0E01               	movlw	1
  1775  002B9A  6E1E               	movwf	lcd_4bit_send_string_pos@column^0,c
  1776  002B9C  0E61               	movlw	low STR_8
  1777  002B9E  6E1F               	movwf	lcd_4bit_send_string_pos@str^0,c
  1778  002BA0  0E10               	movlw	high STR_8
  1779  002BA2  6E20               	movwf	(lcd_4bit_send_string_pos@str+1)^0,c
  1780  002BA4  ECE1  F018         	call	_lcd_4bit_send_string_pos	;wreg free
  1781  002BA8  6E7C               	movwf	_ret^0,c
  1782  002BAA                     l6856:
  1783                           
  1784                           ;application.c: 199:     {;application.c: 200:         ret = keypad_get_value(&keypad_1,
      +                           &KeypadPressed);
  1785  002BAA  0EB6               	movlw	low _keypad_1
  1786  002BAC  6E0C               	movwf	keypad_get_value@_keypad_obj^0,c
  1787  002BAE  0E00               	movlw	high _keypad_1
  1788  002BB0  6E0D               	movwf	(keypad_get_value@_keypad_obj+1)^0,c
  1789  002BB2  0E7B               	movlw	low _KeypadPressed
  1790  002BB4  6E0E               	movwf	keypad_get_value@value^0,c
  1791  002BB6  0E00               	movlw	high _KeypadPressed
  1792  002BB8  6E0F               	movwf	(keypad_get_value@value+1)^0,c
  1793  002BBA  EC1A  F014         	call	_keypad_get_value	;wreg free
  1794  002BBE  6E7C               	movwf	_ret^0,c
  1795  002BC0                     
  1796                           ;application.c: 201:         _delay((unsigned long)((200)*(8000000UL/4000.0)));
  1797  002BC0  0E03               	movlw	3
  1798  002BC2  6E23               	movwf	(??_getHoures+1)^0,c
  1799  002BC4  0E08               	movlw	8
  1800  002BC6  6E22               	movwf	??_getHoures^0,c
  1801  002BC8  0E77               	movlw	119
  1802  002BCA                     u7687:
  1803  002BCA  2EE8               	decfsz	wreg,f,c
  1804  002BCC  D7FE               	bra	u7687
  1805  002BCE  2E22               	decfsz	??_getHoures^0,f,c
  1806  002BD0  D7FC               	bra	u7687
  1807  002BD2  2E23               	decfsz	(??_getHoures+1)^0,f,c
  1808  002BD4  D7FA               	bra	u7687
  1809  002BD6  F000               	nop	
  1810  002BD8                     
  1811                           ;application.c: 202:     }
  1812  002BD8  0E2F               	movlw	47
  1813  002BDA  187B               	xorwf	_KeypadPressed^0,w,c
  1814  002BDC  B4D8               	btfsc	status,2,c
  1815  002BDE  EFF3  F015         	goto	u5661
  1816  002BE2  EFF5  F015         	goto	u5660
  1817  002BE6                     u5661:
  1818  002BE6  EFD5  F015         	goto	l6856
  1819  002BEA                     u5660:
  1820  002BEA                     
  1821                           ;application.c: 204:     ret = lcd_4bit_send_char_data_pos(&lcd_1, 1, 11, KeypadPressed)
      +                          ;
  1822  002BEA  0E75               	movlw	low _lcd_1
  1823  002BEC  6E1B               	movwf	lcd_4bit_send_char_data_pos@lcd^0,c
  1824  002BEE  0E00               	movlw	high _lcd_1
  1825  002BF0  6E1C               	movwf	(lcd_4bit_send_char_data_pos@lcd+1)^0,c
  1826  002BF2  0E01               	movlw	1
  1827  002BF4  6E1D               	movwf	lcd_4bit_send_char_data_pos@row^0,c
  1828  002BF6  0E0B               	movlw	11
  1829  002BF8  6E1E               	movwf	lcd_4bit_send_char_data_pos@column^0,c
  1830  002BFA  C07B  F01F         	movff	_KeypadPressed,lcd_4bit_send_char_data_pos@data
  1831  002BFE  EC9A  F01A         	call	_lcd_4bit_send_char_data_pos	;wreg free
  1832  002C02  6E7C               	movwf	_ret^0,c
  1833  002C04                     
  1834                           ;application.c: 205:     time[0] = KeypadPressed-48;
  1835  002C04  507B               	movf	_KeypadPressed^0,w,c
  1836  002C06  0FD0               	addlw	208
  1837  002C08  0100               	movlb	0	; () banked
  1838  002C0A  6F9E               	movwf	_time& (0+255),b
  1839  002C0C                     
  1840                           ; BSR set to: 0
  1841                           ;application.c: 206:     KeypadPressed = 47;
  1842  002C0C  0E2F               	movlw	47
  1843  002C0E  6E7B               	movwf	_KeypadPressed^0,c
  1844  002C10                     l6868:
  1845                           
  1846                           ;application.c: 208:     {;application.c: 209:         ret = keypad_get_value(&keypad_1,
      +                           &KeypadPressed);
  1847  002C10  0EB6               	movlw	low _keypad_1
  1848  002C12  6E0C               	movwf	keypad_get_value@_keypad_obj^0,c
  1849  002C14  0E00               	movlw	high _keypad_1
  1850  002C16  6E0D               	movwf	(keypad_get_value@_keypad_obj+1)^0,c
  1851  002C18  0E7B               	movlw	low _KeypadPressed
  1852  002C1A  6E0E               	movwf	keypad_get_value@value^0,c
  1853  002C1C  0E00               	movlw	high _KeypadPressed
  1854  002C1E  6E0F               	movwf	(keypad_get_value@value+1)^0,c
  1855  002C20  EC1A  F014         	call	_keypad_get_value	;wreg free
  1856  002C24  6E7C               	movwf	_ret^0,c
  1857  002C26                     
  1858                           ;application.c: 210:         _delay((unsigned long)((200)*(8000000UL/4000.0)));
  1859  002C26  0E03               	movlw	3
  1860  002C28  6E23               	movwf	(??_getHoures+1)^0,c
  1861  002C2A  0E08               	movlw	8
  1862  002C2C  6E22               	movwf	??_getHoures^0,c
  1863  002C2E  0E77               	movlw	119
  1864  002C30                     u7697:
  1865  002C30  2EE8               	decfsz	wreg,f,c
  1866  002C32  D7FE               	bra	u7697
  1867  002C34  2E22               	decfsz	??_getHoures^0,f,c
  1868  002C36  D7FC               	bra	u7697
  1869  002C38  2E23               	decfsz	(??_getHoures+1)^0,f,c
  1870  002C3A  D7FA               	bra	u7697
  1871  002C3C  F000               	nop	
  1872  002C3E                     
  1873                           ;application.c: 211:     }
  1874  002C3E  0E2F               	movlw	47
  1875  002C40  187B               	xorwf	_KeypadPressed^0,w,c
  1876  002C42  B4D8               	btfsc	status,2,c
  1877  002C44  EF26  F016         	goto	u5671
  1878  002C48  EF28  F016         	goto	u5670
  1879  002C4C                     u5671:
  1880  002C4C  EF08  F016         	goto	l6868
  1881  002C50                     u5670:
  1882  002C50                     
  1883                           ;application.c: 213:     ret = lcd_4bit_send_char_data_pos(&lcd_1, 1, 12, KeypadPressed)
      +                          ;
  1884  002C50  0E75               	movlw	low _lcd_1
  1885  002C52  6E1B               	movwf	lcd_4bit_send_char_data_pos@lcd^0,c
  1886  002C54  0E00               	movlw	high _lcd_1
  1887  002C56  6E1C               	movwf	(lcd_4bit_send_char_data_pos@lcd+1)^0,c
  1888  002C58  0E01               	movlw	1
  1889  002C5A  6E1D               	movwf	lcd_4bit_send_char_data_pos@row^0,c
  1890  002C5C  0E0C               	movlw	12
  1891  002C5E  6E1E               	movwf	lcd_4bit_send_char_data_pos@column^0,c
  1892  002C60  C07B  F01F         	movff	_KeypadPressed,lcd_4bit_send_char_data_pos@data
  1893  002C64  EC9A  F01A         	call	_lcd_4bit_send_char_data_pos	;wreg free
  1894  002C68  6E7C               	movwf	_ret^0,c
  1895  002C6A                     
  1896                           ;application.c: 214:     _delay((unsigned long)((300)*(8000000UL/4000.0)));
  1897  002C6A  0E04               	movlw	4
  1898  002C6C  6E23               	movwf	(??_getHoures+1)^0,c
  1899  002C6E  0E0C               	movlw	12
  1900  002C70  6E22               	movwf	??_getHoures^0,c
  1901  002C72  0E34               	movlw	52
  1902  002C74                     u7707:
  1903  002C74  2EE8               	decfsz	wreg,f,c
  1904  002C76  D7FE               	bra	u7707
  1905  002C78  2E22               	decfsz	??_getHoures^0,f,c
  1906  002C7A  D7FC               	bra	u7707
  1907  002C7C  2E23               	decfsz	(??_getHoures+1)^0,f,c
  1908  002C7E  D7FA               	bra	u7707
  1909  002C80                     
  1910                           ;application.c: 215:     time[1] = KeypadPressed-48;
  1911  002C80  507B               	movf	_KeypadPressed^0,w,c
  1912  002C82  0FD0               	addlw	208
  1913  002C84  0100               	movlb	0	; () banked
  1914  002C86  6F9F               	movwf	(_time+1)& (0+255),b
  1915  002C88                     
  1916                           ; BSR set to: 0
  1917                           ;application.c: 216:     KeypadPressed = 47;
  1918  002C88  0E2F               	movlw	47
  1919  002C8A  6E7B               	movwf	_KeypadPressed^0,c
  1920  002C8C                     
  1921                           ; BSR set to: 0
  1922                           ;application.c: 217:     ret = lcd_4bit_send_command(&lcd_1, 0X01);
  1923  002C8C  0E75               	movlw	low _lcd_1
  1924  002C8E  6E10               	movwf	lcd_4bit_send_command@lcd^0,c
  1925  002C90  0E00               	movlw	high _lcd_1
  1926  002C92  6E11               	movwf	(lcd_4bit_send_command@lcd+1)^0,c
  1927  002C94  0E01               	movlw	1
  1928  002C96  6E12               	movwf	lcd_4bit_send_command@command^0,c
  1929  002C98  EC1D  F019         	call	_lcd_4bit_send_command	;wreg free
  1930  002C9C  6E7C               	movwf	_ret^0,c
  1931  002C9E  0012               	return		;funcret
  1932  002CA0                     __end_of_getHoures:
  1933                           	callstack 0
  1934                           
  1935 ;; *************** function _lcd_4bit_send_char_data_pos *****************
  1936 ;; Defined at:
  1937 ;;		line 120 in file "ECU_Layer/Chr_LCD/ecu_chr_lcd.c"
  1938 ;; Parameters:    Size  Location     Type
  1939 ;;  lcd             2   26[COMRAM] PTR const struct .
  1940 ;;		 -> lcd_1(6), 
  1941 ;;  row             1   28[COMRAM] unsigned char 
  1942 ;;  column          1   29[COMRAM] unsigned char 
  1943 ;;  data            1   30[COMRAM] unsigned char 
  1944 ;; Auto vars:     Size  Location     Type
  1945 ;;  ret             1   31[COMRAM] unsigned char 
  1946 ;; Return value:  Size  Location     Type
  1947 ;;                  1    wreg      unsigned char 
  1948 ;; Registers used:
  1949 ;;		wreg, fsr2l, fsr2h, status,2, status,0, prodl, prodh, cstack
  1950 ;; Tracked objects:
  1951 ;;		On entry : 0/0
  1952 ;;		On exit  : 0/0
  1953 ;;		Unchanged: 0/0
  1954 ;; Data sizes:     COMRAM   BANK0   BANK1   BANK2   BANK3   BANK4   BANK5   BANK6   BANK7   BANK8   BANK9  BANK10  BANK1
      +1  BANK12  BANK13  BANK14  BANK15
  1955 ;;      Params:         5       0       0       0       0       0       0       0       0       0       0       0       
      +0       0       0       0       0
  1956 ;;      Locals:         1       0       0       0       0       0       0       0       0       0       0       0       
      +0       0       0       0       0
  1957 ;;      Temps:          0       0       0       0       0       0       0       0       0       0       0       0       
      +0       0       0       0       0
  1958 ;;      Totals:         6       0       0       0       0       0       0       0       0       0       0       0       
      +0       0       0       0       0
  1959 ;;Total ram usage:        6 bytes
  1960 ;; Hardware stack levels used: 1
  1961 ;; Hardware stack levels required when called: 6
  1962 ;; This function calls:
  1963 ;;		_lcd_4bit_send_char_data
  1964 ;;		_lcd_4bit_set_cursor
  1965 ;; This function is called by:
  1966 ;;		_main
  1967 ;;		_getHoures
  1968 ;;		_getMinutes
  1969 ;;		_getSeconds
  1970 ;;		_lcd_4bit_send_custom_char
  1971 ;; This function uses a non-reentrant model
  1972 ;;
  1973                           
  1974                           	psect	text4
  1975  003534                     __ptext4:
  1976                           	callstack 0
  1977  003534                     _lcd_4bit_send_char_data_pos:
  1978                           	callstack 24
  1979  003534                     
  1980                           ;ECU_Layer/Chr_LCD/ecu_chr_lcd.c: 122:     if(((void*)0) == lcd){
  1981  003534  501B               	movf	lcd_4bit_send_char_data_pos@lcd^0,w,c
  1982  003536  101C               	iorwf	(lcd_4bit_send_char_data_pos@lcd+1)^0,w,c
  1983  003538  A4D8               	btfss	status,2,c
  1984  00353A  EFA1  F01A         	goto	u5401
  1985  00353E  EFA3  F01A         	goto	u5400
  1986  003542                     u5401:
  1987  003542  EFA7  F01A         	goto	l6514
  1988  003546                     u5400:
  1989  003546                     
  1990                           ;ECU_Layer/Chr_LCD/ecu_chr_lcd.c: 123:         ret = (Std_ReturnType)0x00;
  1991  003546  0E00               	movlw	0
  1992  003548  6E20               	movwf	lcd_4bit_send_char_data_pos@ret^0,c
  1993                           
  1994                           ;ECU_Layer/Chr_LCD/ecu_chr_lcd.c: 124:     }
  1995  00354A  EFBB  F01A         	goto	l6516
  1996  00354E                     l6514:
  1997                           
  1998                           ;ECU_Layer/Chr_LCD/ecu_chr_lcd.c: 126:         ret = lcd_4bit_set_cursor(lcd, row, colum
      +                          n);
  1999  00354E  C01B  F014         	movff	lcd_4bit_send_char_data_pos@lcd,lcd_4bit_set_cursor@lcd
  2000  003552  C01C  F015         	movff	lcd_4bit_send_char_data_pos@lcd+1,lcd_4bit_set_cursor@lcd+1
  2001  003556  C01D  F016         	movff	lcd_4bit_send_char_data_pos@row,lcd_4bit_set_cursor@row
  2002  00355A  C01E  F017         	movff	lcd_4bit_send_char_data_pos@column,lcd_4bit_set_cursor@coulmn
  2003  00355E  EC4D  F018         	call	_lcd_4bit_set_cursor	;wreg free
  2004  003562  6E20               	movwf	lcd_4bit_send_char_data_pos@ret^0,c
  2005                           
  2006                           ;ECU_Layer/Chr_LCD/ecu_chr_lcd.c: 127:         ret = lcd_4bit_send_char_data(lcd, data);
  2007  003564  C01B  F010         	movff	lcd_4bit_send_char_data_pos@lcd,lcd_4bit_send_char_data@lcd
  2008  003568  C01C  F011         	movff	lcd_4bit_send_char_data_pos@lcd+1,lcd_4bit_send_char_data@lcd+1
  2009  00356C  C01F  F012         	movff	lcd_4bit_send_char_data_pos@data,lcd_4bit_send_char_data@data
  2010  003570  EC56  F019         	call	_lcd_4bit_send_char_data	;wreg free
  2011  003574  6E20               	movwf	lcd_4bit_send_char_data_pos@ret^0,c
  2012  003576                     l6516:
  2013                           
  2014                           ;ECU_Layer/Chr_LCD/ecu_chr_lcd.c: 129:     return ret;
  2015  003576  5020               	movf	lcd_4bit_send_char_data_pos@ret^0,w,c
  2016  003578  0012               	return		;funcret
  2017  00357A                     __end_of_lcd_4bit_send_char_data_pos:
  2018                           	callstack 0
  2019                           
  2020 ;; *************** function _keypad_get_value *****************
  2021 ;; Defined at:
  2022 ;;		line 49 in file "ECU_Layer/KeyPad/ecu_keypad.c"
  2023 ;; Parameters:    Size  Location     Type
  2024 ;;  _keypad_obj     2   11[COMRAM] PTR const struct .
  2025 ;;		 -> keypad_1(8), 
  2026 ;;  value           2   13[COMRAM] PTR unsigned char 
  2027 ;;		 -> KeypadPressed(1), 
  2028 ;; Auto vars:     Size  Location     Type
  2029 ;;  l_columns_co    1   21[COMRAM] unsigned char 
  2030 ;;  l_rows_count    1   20[COMRAM] unsigned char 
  2031 ;;  l_counter       1   19[COMRAM] unsigned char 
  2032 ;;  column_logic    1   18[COMRAM] unsigned char 
  2033 ;;  ret             1   17[COMRAM] unsigned char 
  2034 ;; Return value:  Size  Location     Type
  2035 ;;                  1    wreg      unsigned char 
  2036 ;; Registers used:
  2037 ;;		wreg, fsr2l, fsr2h, status,2, status,0, tblptrl, tblptrh, tblptru, prodl, prodh, cstack
  2038 ;; Tracked objects:
  2039 ;;		On entry : 0/0
  2040 ;;		On exit  : 0/0
  2041 ;;		Unchanged: 0/0
  2042 ;; Data sizes:     COMRAM   BANK0   BANK1   BANK2   BANK3   BANK4   BANK5   BANK6   BANK7   BANK8   BANK9  BANK10  BANK1
      +1  BANK12  BANK13  BANK14  BANK15
  2043 ;;      Params:         4       0       0       0       0       0       0       0       0       0       0       0       
      +0       0       0       0       0
  2044 ;;      Locals:         5       0       0       0       0       0       0       0       0       0       0       0       
      +0       0       0       0       0
  2045 ;;      Temps:          2       0       0       0       0       0       0       0       0       0       0       0       
      +0       0       0       0       0
  2046 ;;      Totals:        11       0       0       0       0       0       0       0       0       0       0       0       
      +0       0       0       0       0
  2047 ;;Total ram usage:       11 bytes
  2048 ;; Hardware stack levels used: 1
  2049 ;; Hardware stack levels required when called: 3
  2050 ;; This function calls:
  2051 ;;		_gpio_pin_read_logic
  2052 ;;		_gpio_pin_write_logic
  2053 ;; This function is called by:
  2054 ;;		_main
  2055 ;;		_getHoures
  2056 ;;		_getMinutes
  2057 ;;		_getSeconds
  2058 ;; This function uses a non-reentrant model
  2059 ;;
  2060                           
  2061                           	psect	text5
  2062  002834                     __ptext5:
  2063                           	callstack 0
  2064  002834                     _keypad_get_value:
  2065                           	callstack 27
  2066  002834                     
  2067                           ;ECU_Layer/KeyPad/ecu_keypad.c: 51:     uint8 l_rows_counter = 0, l_columns_counter = 0,
      +                           l_counter = 0;
  2068  002834  0E00               	movlw	0
  2069  002836  6E15               	movwf	keypad_get_value@l_rows_counter^0,c
  2070  002838  0E00               	movlw	0
  2071  00283A  6E16               	movwf	keypad_get_value@l_columns_counter^0,c
  2072  00283C  0E00               	movlw	0
  2073  00283E  6E14               	movwf	keypad_get_value@l_counter^0,c
  2074                           
  2075                           ;ECU_Layer/KeyPad/ecu_keypad.c: 52:     uint8 column_logic = 0;
  2076  002840  0E00               	movlw	0
  2077  002842  6E13               	movwf	keypad_get_value@column_logic^0,c
  2078  002844                     
  2079                           ;ECU_Layer/KeyPad/ecu_keypad.c: 53:     if((((void*)0) == _keypad_obj) || (((void*)0) ==
      +                           value)){
  2080  002844  500C               	movf	keypad_get_value@_keypad_obj^0,w,c
  2081  002846  100D               	iorwf	(keypad_get_value@_keypad_obj+1)^0,w,c
  2082  002848  B4D8               	btfsc	status,2,c
  2083  00284A  EF29  F014         	goto	u5491
  2084  00284E  EF2B  F014         	goto	u5490
  2085  002852                     u5491:
  2086  002852  EF34  F014         	goto	l6616
  2087  002856                     u5490:
  2088  002856  500E               	movf	keypad_get_value@value^0,w,c
  2089  002858  100F               	iorwf	(keypad_get_value@value+1)^0,w,c
  2090  00285A  A4D8               	btfss	status,2,c
  2091  00285C  EF32  F014         	goto	u5501
  2092  002860  EF34  F014         	goto	u5500
  2093  002864                     u5501:
  2094  002864  EF38  F014         	goto	l6618
  2095  002868                     u5500:
  2096  002868                     l6616:
  2097                           
  2098                           ;ECU_Layer/KeyPad/ecu_keypad.c: 54:         ret = (Std_ReturnType)0x00;
  2099  002868  0E00               	movlw	0
  2100  00286A  6E12               	movwf	keypad_get_value@ret^0,c
  2101                           
  2102                           ;ECU_Layer/KeyPad/ecu_keypad.c: 55:     }
  2103  00286C  EFAA  F014         	goto	l6660
  2104  002870                     l6618:
  2105                           
  2106                           ;ECU_Layer/KeyPad/ecu_keypad.c: 57:         for(l_rows_counter=0; l_rows_counter<4; l_ro
      +                          ws_counter++){
  2107  002870  0E00               	movlw	0
  2108  002872  6E15               	movwf	keypad_get_value@l_rows_counter^0,c
  2109  002874                     l6624:
  2110                           
  2111                           ;ECU_Layer/KeyPad/ecu_keypad.c: 58:             for(l_counter=0; l_counter<4; l_counter+
      +                          +){
  2112  002874  0E00               	movlw	0
  2113  002876  6E14               	movwf	keypad_get_value@l_counter^0,c
  2114  002878                     l6630:
  2115  002878  5014               	movf	keypad_get_value@l_counter^0,w,c
  2116  00287A  240C               	addwf	keypad_get_value@_keypad_obj^0,w,c
  2117  00287C  6E02               	movwf	gpio_pin_write_logic@_pin_config^0,c
  2118  00287E  0E00               	movlw	0
  2119  002880  200D               	addwfc	(keypad_get_value@_keypad_obj+1)^0,w,c
  2120  002882  6E03               	movwf	(gpio_pin_write_logic@_pin_config+1)^0,c
  2121  002884  0E00               	movlw	0
  2122  002886  6E04               	movwf	gpio_pin_write_logic@logic^0,c
  2123  002888  ECF0  F012         	call	_gpio_pin_write_logic	;wreg free
  2124  00288C                     
  2125                           ;ECU_Layer/KeyPad/ecu_keypad.c: 60:             }
  2126  00288C  2A14               	incf	keypad_get_value@l_counter^0,f,c
  2127  00288E  0E03               	movlw	3
  2128  002890  6414               	cpfsgt	keypad_get_value@l_counter^0,c
  2129  002892  EF4D  F014         	goto	u5511
  2130  002896  EF4F  F014         	goto	u5510
  2131  00289A                     u5511:
  2132  00289A  EF3C  F014         	goto	l6630
  2133  00289E                     u5510:
  2134  00289E                     
  2135                           ;ECU_Layer/KeyPad/ecu_keypad.c: 61:             gpio_pin_write_logic(&(_keypad_obj->keyp
      +                          ad_row_pins[l_rows_counter]), GPIO_HIGH);
  2136  00289E  5015               	movf	keypad_get_value@l_rows_counter^0,w,c
  2137  0028A0  240C               	addwf	keypad_get_value@_keypad_obj^0,w,c
  2138  0028A2  6E02               	movwf	gpio_pin_write_logic@_pin_config^0,c
  2139  0028A4  0E00               	movlw	0
  2140  0028A6  200D               	addwfc	(keypad_get_value@_keypad_obj+1)^0,w,c
  2141  0028A8  6E03               	movwf	(gpio_pin_write_logic@_pin_config+1)^0,c
  2142  0028AA  0E01               	movlw	1
  2143  0028AC  6E04               	movwf	gpio_pin_write_logic@logic^0,c
  2144  0028AE  ECF0  F012         	call	_gpio_pin_write_logic	;wreg free
  2145  0028B2                     
  2146                           ;ECU_Layer/KeyPad/ecu_keypad.c: 62:             _delay((unsigned long)((10)*(8000000UL/4
      +                          000.0)));
  2147  0028B2  0E1A               	movlw	26
  2148  0028B4  6E10               	movwf	??_keypad_get_value^0,c
  2149  0028B6  0EF8               	movlw	248
  2150  0028B8                     u7717:
  2151  0028B8  2EE8               	decfsz	wreg,f,c
  2152  0028BA  D7FE               	bra	u7717
  2153  0028BC  2E10               	decfsz	??_keypad_get_value^0,f,c
  2154  0028BE  D7FC               	bra	u7717
  2155  0028C0  D000               	nop2	
  2156  0028C2                     
  2157                           ;ECU_Layer/KeyPad/ecu_keypad.c: 63:             for(l_columns_counter=0; l_columns_count
      +                          er<4; l_columns_counter++){
  2158  0028C2  0E00               	movlw	0
  2159  0028C4  6E16               	movwf	keypad_get_value@l_columns_counter^0,c
  2160  0028C6                     l6646:
  2161                           
  2162                           ;ECU_Layer/KeyPad/ecu_keypad.c: 64:                 ret = gpio_pin_read_logic(&(_keypad_
      +                          obj->keypad_columns_pins[l_columns_counter]), &column_logic);
  2163  0028C6  5016               	movf	keypad_get_value@l_columns_counter^0,w,c
  2164  0028C8  240C               	addwf	keypad_get_value@_keypad_obj^0,w,c
  2165  0028CA  6E10               	movwf	??_keypad_get_value^0,c
  2166  0028CC  0E00               	movlw	0
  2167  0028CE  200D               	addwfc	(keypad_get_value@_keypad_obj+1)^0,w,c
  2168  0028D0  6E11               	movwf	(??_keypad_get_value+1)^0,c
  2169  0028D2  0E04               	movlw	4
  2170  0028D4  2410               	addwf	??_keypad_get_value^0,w,c
  2171  0028D6  6E02               	movwf	gpio_pin_read_logic@_pin_config^0,c
  2172  0028D8  0E00               	movlw	0
  2173  0028DA  2011               	addwfc	(??_keypad_get_value+1)^0,w,c
  2174  0028DC  6E03               	movwf	(gpio_pin_read_logic@_pin_config+1)^0,c
  2175  0028DE  0E13               	movlw	low keypad_get_value@column_logic
  2176  0028E0  6E04               	movwf	gpio_pin_read_logic@logic^0,c
  2177  0028E2  0E00               	movlw	high keypad_get_value@column_logic
  2178  0028E4  6E05               	movwf	(gpio_pin_read_logic@logic+1)^0,c
  2179  0028E6  EC41  F017         	call	_gpio_pin_read_logic	;wreg free
  2180  0028EA  6E12               	movwf	keypad_get_value@ret^0,c
  2181  0028EC                     
  2182                           ;ECU_Layer/KeyPad/ecu_keypad.c: 65:                 if(GPIO_HIGH == column_logic){
  2183  0028EC  0413               	decf	keypad_get_value@column_logic^0,w,c
  2184  0028EE  A4D8               	btfss	status,2,c
  2185  0028F0  EF7C  F014         	goto	u5521
  2186  0028F4  EF7E  F014         	goto	u5520
  2187  0028F8                     u5521:
  2188  0028F8  EF98  F014         	goto	l6652
  2189  0028FC                     u5520:
  2190  0028FC                     
  2191                           ;ECU_Layer/KeyPad/ecu_keypad.c: 66:                     *value = btn_values[l_rows_count
      +                          er][l_columns_counter];
  2192  0028FC  5015               	movf	keypad_get_value@l_rows_counter^0,w,c
  2193  0028FE  0D04               	mullw	4
  2194  002900  0E01               	movlw	low _btn_values
  2195  002902  6E10               	movwf	??_keypad_get_value^0,c
  2196  002904  0E10               	movlw	high _btn_values
  2197  002906  6E11               	movwf	(??_keypad_get_value+1)^0,c
  2198  002908  50F3               	movf	243,w,c
  2199  00290A  2610               	addwf	??_keypad_get_value^0,f,c
  2200  00290C  50F4               	movf	244,w,c
  2201  00290E  2211               	addwfc	(??_keypad_get_value+1)^0,f,c
  2202  002910  5016               	movf	keypad_get_value@l_columns_counter^0,w,c
  2203  002912  2610               	addwf	??_keypad_get_value^0,f,c
  2204  002914  0E00               	movlw	0
  2205  002916  2211               	addwfc	(??_keypad_get_value+1)^0,f,c
  2206  002918  C010  FFF6         	movff	??_keypad_get_value,tblptrl
  2207  00291C  C011  FFF7         	movff	??_keypad_get_value+1,tblptrh
  2208  002920                     	if	1	;Program memory is < 0x10000, tblptru is always zero
  2209  002920  6AF8               	clrf	tblptru,c
  2210  002922                     	endif
  2211  002922                     	if	0	;tblptru may be non-zero
  2212  002922                     	endif
  2213  002922  C00E  FFD9         	movff	keypad_get_value@value,fsr2l
  2214  002926  C00F  FFDA         	movff	keypad_get_value@value+1,fsr2h
  2215  00292A  0008               	tblrd		*
  2216  00292C  CFF5 FFDF          	movff	tablat,indf2
  2217  002930                     l6652:
  2218                           
  2219                           ;ECU_Layer/KeyPad/ecu_keypad.c: 68:             }
  2220  002930  2A16               	incf	keypad_get_value@l_columns_counter^0,f,c
  2221  002932  0E03               	movlw	3
  2222  002934  6416               	cpfsgt	keypad_get_value@l_columns_counter^0,c
  2223  002936  EF9F  F014         	goto	u5531
  2224  00293A  EFA1  F014         	goto	u5530
  2225  00293E                     u5531:
  2226  00293E  EF63  F014         	goto	l6646
  2227  002942                     u5530:
  2228  002942                     
  2229                           ;ECU_Layer/KeyPad/ecu_keypad.c: 69:         }
  2230  002942  2A15               	incf	keypad_get_value@l_rows_counter^0,f,c
  2231  002944  0E03               	movlw	3
  2232  002946  6415               	cpfsgt	keypad_get_value@l_rows_counter^0,c
  2233  002948  EFA8  F014         	goto	u5541
  2234  00294C  EFAA  F014         	goto	u5540
  2235  002950                     u5541:
  2236  002950  EF3A  F014         	goto	l6624
  2237  002954                     u5540:
  2238  002954                     l6660:
  2239                           
  2240                           ;ECU_Layer/KeyPad/ecu_keypad.c: 71:     return ret;
  2241  002954  5012               	movf	keypad_get_value@ret^0,w,c
  2242  002956  0012               	return		;funcret
  2243  002958                     __end_of_keypad_get_value:
  2244                           	callstack 0
  2245                           
  2246 ;; *************** function _gpio_pin_read_logic *****************
  2247 ;; Defined at:
  2248 ;;		line 104 in file "MCAL_Layer/GPIO/hal_gpio.c"
  2249 ;; Parameters:    Size  Location     Type
  2250 ;;  _pin_config     2    1[COMRAM] PTR const struct .
  2251 ;;		 -> keypad_1.keypad_columns_pins(4), keypad_1(8), 
  2252 ;;  logic           2    3[COMRAM] PTR enum E2933
  2253 ;;		 -> Ultrasonic_Calculate_Distance@EchoPinLogic(1), keypad_get_value@column_logic(1), button_read_state@Pin_Logic_Sta
      +tus(1), 
  2254 ;; Auto vars:     Size  Location     Type
  2255 ;;  ret             1   10[COMRAM] unsigned char 
  2256 ;; Return value:  Size  Location     Type
  2257 ;;                  1    wreg      unsigned char 
  2258 ;; Registers used:
  2259 ;;		wreg, fsr2l, fsr2h, status,2, status,0, prodl, prodh
  2260 ;; Tracked objects:
  2261 ;;		On entry : 0/0
  2262 ;;		On exit  : 0/0
  2263 ;;		Unchanged: 0/0
  2264 ;; Data sizes:     COMRAM   BANK0   BANK1   BANK2   BANK3   BANK4   BANK5   BANK6   BANK7   BANK8   BANK9  BANK10  BANK1
      +1  BANK12  BANK13  BANK14  BANK15
  2265 ;;      Params:         4       0       0       0       0       0       0       0       0       0       0       0       
      +0       0       0       0       0
  2266 ;;      Locals:         1       0       0       0       0       0       0       0       0       0       0       0       
      +0       0       0       0       0
  2267 ;;      Temps:          5       0       0       0       0       0       0       0       0       0       0       0       
      +0       0       0       0       0
  2268 ;;      Totals:        10       0       0       0       0       0       0       0       0       0       0       0       
      +0       0       0       0       0
  2269 ;;Total ram usage:       10 bytes
  2270 ;; Hardware stack levels used: 1
  2271 ;; Hardware stack levels required when called: 2
  2272 ;; This function calls:
  2273 ;;		Nothing
  2274 ;; This function is called by:
  2275 ;;		_keypad_get_value
  2276 ;;		_button_read_state
  2277 ;;		_Ultrasonic_Calculate_Distance
  2278 ;; This function uses a non-reentrant model
  2279 ;;
  2280                           
  2281                           	psect	text6
  2282  002E82                     __ptext6:
  2283                           	callstack 0
  2284  002E82                     _gpio_pin_read_logic:
  2285                           	callstack 27
  2286  002E82                     
  2287                           ;MCAL_Layer/GPIO/hal_gpio.c: 105:     Std_ReturnType ret = (Std_ReturnType)0x01;
  2288  002E82  0E01               	movlw	1
  2289  002E84  6E0B               	movwf	gpio_pin_read_logic@ret^0,c
  2290  002E86                     
  2291                           ;MCAL_Layer/GPIO/hal_gpio.c: 106:     if(((void*)0) == _pin_config || ((void*)0) == logi
      +                          c || _pin_config->pin > 8 -1){
  2292  002E86  5002               	movf	gpio_pin_read_logic@_pin_config^0,w,c
  2293  002E88  1003               	iorwf	(gpio_pin_read_logic@_pin_config+1)^0,w,c
  2294  002E8A  B4D8               	btfsc	status,2,c
  2295  002E8C  EF4A  F017         	goto	u5221
  2296  002E90  EF4C  F017         	goto	u5220
  2297  002E94                     u5221:
  2298  002E94  EF66  F017         	goto	l6334
  2299  002E98                     u5220:
  2300  002E98  5004               	movf	gpio_pin_read_logic@logic^0,w,c
  2301  002E9A  1005               	iorwf	(gpio_pin_read_logic@logic+1)^0,w,c
  2302  002E9C  B4D8               	btfsc	status,2,c
  2303  002E9E  EF53  F017         	goto	u5231
  2304  002EA2  EF55  F017         	goto	u5230
  2305  002EA6                     u5231:
  2306  002EA6  EF66  F017         	goto	l6334
  2307  002EAA                     u5230:
  2308  002EAA  C002  FFD9         	movff	gpio_pin_read_logic@_pin_config,fsr2l
  2309  002EAE  C003  FFDA         	movff	gpio_pin_read_logic@_pin_config+1,fsr2h
  2310  002EB2  30DF               	rrcf	223,w,c
  2311  002EB4  32E8               	rrcf	wreg,f,c
  2312  002EB6  32E8               	rrcf	wreg,f,c
  2313  002EB8  0B07               	andlw	7
  2314  002EBA  6E06               	movwf	??_gpio_pin_read_logic^0,c
  2315  002EBC  0E07               	movlw	7
  2316  002EBE  6406               	cpfsgt	??_gpio_pin_read_logic^0,c
  2317  002EC0  EF64  F017         	goto	u5241
  2318  002EC4  EF66  F017         	goto	u5240
  2319  002EC8                     u5241:
  2320  002EC8  EF6A  F017         	goto	l6336
  2321  002ECC                     u5240:
  2322  002ECC                     l6334:
  2323                           
  2324                           ;MCAL_Layer/GPIO/hal_gpio.c: 107:         ret = (Std_ReturnType)0x00;
  2325  002ECC  0E00               	movlw	0
  2326  002ECE  6E0B               	movwf	gpio_pin_read_logic@ret^0,c
  2327                           
  2328                           ;MCAL_Layer/GPIO/hal_gpio.c: 108:     }
  2329  002ED0  EF9B  F017         	goto	l6338
  2330  002ED4                     l6336:
  2331                           
  2332                           ;MCAL_Layer/GPIO/hal_gpio.c: 110:         *logic = ((*port_registers[_pin_config->port] 
      +                          >> _pin_config->pin) & (uint8)1);
  2333  002ED4  C002  FFD9         	movff	gpio_pin_read_logic@_pin_config,fsr2l
  2334  002ED8  C003  FFDA         	movff	gpio_pin_read_logic@_pin_config+1,fsr2h
  2335  002EDC  30DF               	rrcf	223,w,c
  2336  002EDE  32E8               	rrcf	wreg,f,c
  2337  002EE0  32E8               	rrcf	wreg,f,c
  2338  002EE2  0B07               	andlw	7
  2339  002EE4  6E06               	movwf	??_gpio_pin_read_logic^0,c
  2340  002EE6  C002  FFD9         	movff	gpio_pin_read_logic@_pin_config,fsr2l
  2341  002EEA  C003  FFDA         	movff	gpio_pin_read_logic@_pin_config+1,fsr2h
  2342  002EEE  50DF               	movf	223,w,c
  2343  002EF0  0B07               	andlw	7
  2344  002EF2  6E07               	movwf	(??_gpio_pin_read_logic+1)^0,c
  2345  002EF4  5007               	movf	(??_gpio_pin_read_logic+1)^0,w,c
  2346  002EF6  0D02               	mullw	2
  2347  002EF8  0E80               	movlw	low _port_registers
  2348  002EFA  24F3               	addwf	243,w,c
  2349  002EFC  6ED9               	movwf	fsr2l,c
  2350  002EFE  0E00               	movlw	high _port_registers
  2351  002F00  20F4               	addwfc	prodh,w,c
  2352  002F02  6EDA               	movwf	fsr2h,c
  2353  002F04  CFDE F008          	movff	postinc2,??_gpio_pin_read_logic+2
  2354  002F08  CFDD F009          	movff	postdec2,??_gpio_pin_read_logic+3
  2355  002F0C  C008  FFD9         	movff	??_gpio_pin_read_logic+2,fsr2l
  2356  002F10  C009  FFDA         	movff	??_gpio_pin_read_logic+3,fsr2h
  2357  002F14  50DF               	movf	indf2,w,c
  2358  002F16  6E0A               	movwf	(??_gpio_pin_read_logic+4)^0,c
  2359  002F18  2A06               	incf	??_gpio_pin_read_logic^0,f,c
  2360  002F1A  EF91  F017         	goto	u5254
  2361  002F1E                     u5255:
  2362  002F1E  90D8               	bcf	status,0,c
  2363  002F20  320A               	rrcf	(??_gpio_pin_read_logic+4)^0,f,c
  2364  002F22                     u5254:
  2365  002F22  2E06               	decfsz	??_gpio_pin_read_logic^0,f,c
  2366  002F24  EF8F  F017         	goto	u5255
  2367  002F28  500A               	movf	(??_gpio_pin_read_logic+4)^0,w,c
  2368  002F2A  0B01               	andlw	1
  2369  002F2C  C004  FFD9         	movff	gpio_pin_read_logic@logic,fsr2l
  2370  002F30  C005  FFDA         	movff	gpio_pin_read_logic@logic+1,fsr2h
  2371  002F34  6EDF               	movwf	indf2,c
  2372  002F36                     l6338:
  2373                           
  2374                           ;MCAL_Layer/GPIO/hal_gpio.c: 112:     return ret;
  2375  002F36  500B               	movf	gpio_pin_read_logic@ret^0,w,c
  2376  002F38  0012               	return		;funcret
  2377  002F3A                     __end_of_gpio_pin_read_logic:
  2378                           	callstack 0
  2379                           
  2380 ;; *************** function _calcTime *****************
  2381 ;; Defined at:
  2382 ;;		line 166 in file "application.c"
  2383 ;; Parameters:    Size  Location     Type
  2384 ;;		None
  2385 ;; Auto vars:     Size  Location     Type
  2386 ;;		None
  2387 ;; Return value:  Size  Location     Type
  2388 ;;                  1    wreg      void 
  2389 ;; Registers used:
  2390 ;;		wreg, status,2, status,0, prodl, prodh
  2391 ;; Tracked objects:
  2392 ;;		On entry : 0/0
  2393 ;;		On exit  : 0/0
  2394 ;;		Unchanged: 0/0
  2395 ;; Data sizes:     COMRAM   BANK0   BANK1   BANK2   BANK3   BANK4   BANK5   BANK6   BANK7   BANK8   BANK9  BANK10  BANK1
      +1  BANK12  BANK13  BANK14  BANK15
  2396 ;;      Params:         0       0       0       0       0       0       0       0       0       0       0       0       
      +0       0       0       0       0
  2397 ;;      Locals:         0       0       0       0       0       0       0       0       0       0       0       0       
      +0       0       0       0       0
  2398 ;;      Temps:          0       0       0       0       0       0       0       0       0       0       0       0       
      +0       0       0       0       0
  2399 ;;      Totals:         0       0       0       0       0       0       0       0       0       0       0       0       
      +0       0       0       0       0
  2400 ;;Total ram usage:        0 bytes
  2401 ;; Hardware stack levels used: 1
  2402 ;; Hardware stack levels required when called: 2
  2403 ;; This function calls:
  2404 ;;		Nothing
  2405 ;; This function is called by:
  2406 ;;		_main
  2407 ;; This function uses a non-reentrant model
  2408 ;;
  2409                           
  2410                           	psect	text7
  2411  003648                     __ptext7:
  2412                           	callstack 0
  2413  003648                     _calcTime:
  2414                           	callstack 28
  2415  003648                     
  2416                           ;application.c: 168:     hour = time[0]*10 + time[1] ;
  2417  003648  0100               	movlb	0	; () banked
  2418  00364A  519E               	movf	_time& (0+255),w,b
  2419  00364C  0D0A               	mullw	10
  2420  00364E  50F3               	movf	243,w,c
  2421  003650  259F               	addwf	(_time+1)& (0+255),w,b
  2422  003652  6E69               	movwf	_hour^0,c
  2423                           
  2424                           ;application.c: 169:     min = time[2]*10 + time[3] ;
  2425  003654  51A0               	movf	(_time+2)& (0+255),w,b
  2426  003656  0D0A               	mullw	10
  2427  003658  50F3               	movf	243,w,c
  2428  00365A  25A1               	addwf	(_time+3)& (0+255),w,b
  2429  00365C  6E68               	movwf	_min^0,c
  2430                           
  2431                           ;application.c: 170:     sec = time[4]*10 + time[5] ;
  2432  00365E  51A2               	movf	(_time+4)& (0+255),w,b
  2433  003660  0D0A               	mullw	10
  2434  003662  50F3               	movf	243,w,c
  2435  003664  25A3               	addwf	(_time+5)& (0+255),w,b
  2436  003666  6E67               	movwf	_sec^0,c
  2437  003668                     
  2438                           ; BSR set to: 0
  2439  003668  0012               	return		;funcret
  2440  00366A                     __end_of_calcTime:
  2441                           	callstack 0
  2442                           
  2443 ;; *************** function _application_intialize *****************
  2444 ;; Defined at:
  2445 ;;		line 281 in file "application.c"
  2446 ;; Parameters:    Size  Location     Type
  2447 ;;		None
  2448 ;; Auto vars:     Size  Location     Type
  2449 ;;		None
  2450 ;; Return value:  Size  Location     Type
  2451 ;;                  1    wreg      void 
  2452 ;; Registers used:
  2453 ;;		wreg, fsr2l, fsr2h, status,2, status,0, prodl, prodh, cstack
  2454 ;; Tracked objects:
  2455 ;;		On entry : 0/0
  2456 ;;		On exit  : 0/0
  2457 ;;		Unchanged: 0/0
  2458 ;; Data sizes:     COMRAM   BANK0   BANK1   BANK2   BANK3   BANK4   BANK5   BANK6   BANK7   BANK8   BANK9  BANK10  BANK1
      +1  BANK12  BANK13  BANK14  BANK15
  2459 ;;      Params:         0       0       0       0       0       0       0       0       0       0       0       0       
      +0       0       0       0       0
  2460 ;;      Locals:         0       0       0       0       0       0       0       0       0       0       0       0       
      +0       0       0       0       0
  2461 ;;      Temps:          0       0       0       0       0       0       0       0       0       0       0       0       
      +0       0       0       0       0
  2462 ;;      Totals:         0       0       0       0       0       0       0       0       0       0       0       0       
      +0       0       0       0       0
  2463 ;;Total ram usage:        0 bytes
  2464 ;; Hardware stack levels used: 1
  2465 ;; Hardware stack levels required when called: 6
  2466 ;; This function calls:
  2467 ;;		_EUSART_ASYNC_Init
  2468 ;;		_keypad_initialize
  2469 ;;		_lcd_4bit_intialize
  2470 ;; This function is called by:
  2471 ;;		_main
  2472 ;; This function uses a non-reentrant model
  2473 ;;
  2474                           
  2475                           	psect	text8
  2476  00361C                     __ptext8:
  2477                           	callstack 0
  2478  00361C                     _application_intialize:
  2479                           	callstack 24
  2480  00361C                     
  2481                           ;application.c: 283:     ret = lcd_4bit_intialize(&lcd_1);
  2482  00361C  0E75               	movlw	low _lcd_1
  2483  00361E  6E14               	movwf	lcd_4bit_intialize@lcd^0,c
  2484  003620  0E00               	movlw	high _lcd_1
  2485  003622  6E15               	movwf	(lcd_4bit_intialize@lcd+1)^0,c
  2486  003624  EC86  F013         	call	_lcd_4bit_intialize	;wreg free
  2487  003628  6E7C               	movwf	_ret^0,c
  2488                           
  2489                           ;application.c: 284:     ret = keypad_initialize(&keypad_1);
  2490  00362A  0EB6               	movlw	low _keypad_1
  2491  00362C  6E10               	movwf	keypad_initialize@_keypad_obj^0,c
  2492  00362E  0E00               	movlw	high _keypad_1
  2493  003630  6E11               	movwf	(keypad_initialize@_keypad_obj+1)^0,c
  2494  003632  ECA1  F018         	call	_keypad_initialize	;wreg free
  2495  003636  6E7C               	movwf	_ret^0,c
  2496  003638                     
  2497                           ;application.c: 285:     ret = EUSART_ASYNC_Init(&usart_1);
  2498  003638  0EA4               	movlw	low _usart_1
  2499  00363A  6E45               	movwf	EUSART_ASYNC_Init@_eusart^0,c
  2500  00363C  0E00               	movlw	high _usart_1
  2501  00363E  6E46               	movwf	(EUSART_ASYNC_Init@_eusart+1)^0,c
  2502  003640  EC2A  F01A         	call	_EUSART_ASYNC_Init	;wreg free
  2503  003644  6E7C               	movwf	_ret^0,c
  2504  003646  0012               	return		;funcret
  2505  003648                     __end_of_application_intialize:
  2506                           	callstack 0
  2507                           
  2508 ;; *************** function _lcd_4bit_intialize *****************
  2509 ;; Defined at:
  2510 ;;		line 23 in file "ECU_Layer/Chr_LCD/ecu_chr_lcd.c"
  2511 ;; Parameters:    Size  Location     Type
  2512 ;;  lcd             2   19[COMRAM] PTR const struct .
  2513 ;;		 -> lcd_1(6), 
  2514 ;; Auto vars:     Size  Location     Type
  2515 ;;  ret             1   24[COMRAM] unsigned char 
  2516 ;;  l_data_pins_    1   23[COMRAM] unsigned char 
  2517 ;; Return value:  Size  Location     Type
  2518 ;;                  1    wreg      unsigned char 
  2519 ;; Registers used:
  2520 ;;		wreg, fsr2l, fsr2h, status,2, status,0, prodl, prodh, cstack
  2521 ;; Tracked objects:
  2522 ;;		On entry : 0/0
  2523 ;;		On exit  : 0/0
  2524 ;;		Unchanged: 0/0
  2525 ;; Data sizes:     COMRAM   BANK0   BANK1   BANK2   BANK3   BANK4   BANK5   BANK6   BANK7   BANK8   BANK9  BANK10  BANK1
      +1  BANK12  BANK13  BANK14  BANK15
  2526 ;;      Params:         2       0       0       0       0       0       0       0       0       0       0       0       
      +0       0       0       0       0
  2527 ;;      Locals:         2       0       0       0       0       0       0       0       0       0       0       0       
      +0       0       0       0       0
  2528 ;;      Temps:          2       0       0       0       0       0       0       0       0       0       0       0       
      +0       0       0       0       0
  2529 ;;      Totals:         6       0       0       0       0       0       0       0       0       0       0       0       
      +0       0       0       0       0
  2530 ;;Total ram usage:        6 bytes
  2531 ;; Hardware stack levels used: 1
  2532 ;; Hardware stack levels required when called: 5
  2533 ;; This function calls:
  2534 ;;		_gpio_pin_intialize
  2535 ;;		_lcd_4bit_send_command
  2536 ;; This function is called by:
  2537 ;;		_application_intialize
  2538 ;; This function uses a non-reentrant model
  2539 ;;
  2540                           
  2541                           	psect	text9
  2542  00270C                     __ptext9:
  2543                           	callstack 0
  2544  00270C                     _lcd_4bit_intialize:
  2545                           	callstack 24
  2546  00270C                     
  2547                           ;ECU_Layer/Chr_LCD/ecu_chr_lcd.c: 25:     uint8 l_data_pins_counter = 0;
  2548  00270C  0E00               	movlw	0
  2549  00270E  6E18               	movwf	lcd_4bit_intialize@l_data_pins_counter^0,c
  2550  002710                     
  2551                           ;ECU_Layer/Chr_LCD/ecu_chr_lcd.c: 26:     if(((void*)0) == lcd){
  2552  002710  5014               	movf	lcd_4bit_intialize@lcd^0,w,c
  2553  002712  1015               	iorwf	(lcd_4bit_intialize@lcd+1)^0,w,c
  2554  002714  A4D8               	btfss	status,2,c
  2555  002716  EF8F  F013         	goto	u5381
  2556  00271A  EF91  F013         	goto	u5380
  2557  00271E                     u5381:
  2558  00271E  EF95  F013         	goto	l6468
  2559  002722                     u5380:
  2560  002722                     
  2561                           ;ECU_Layer/Chr_LCD/ecu_chr_lcd.c: 27:         ret = (Std_ReturnType)0x00;
  2562  002722  0E00               	movlw	0
  2563  002724  6E19               	movwf	lcd_4bit_intialize@ret^0,c
  2564                           
  2565                           ;ECU_Layer/Chr_LCD/ecu_chr_lcd.c: 28:     }
  2566  002726  EF18  F014         	goto	l6504
  2567  00272A                     l6468:
  2568                           
  2569                           ;ECU_Layer/Chr_LCD/ecu_chr_lcd.c: 30:         ret = gpio_pin_intialize(&(lcd->lcd_rs));
  2570  00272A  C014  F00C         	movff	lcd_4bit_intialize@lcd,gpio_pin_intialize@_pin_config
  2571  00272E  C015  F00D         	movff	lcd_4bit_intialize@lcd+1,gpio_pin_intialize@_pin_config+1
  2572  002732  EC8F  F019         	call	_gpio_pin_intialize	;wreg free
  2573  002736  6E19               	movwf	lcd_4bit_intialize@ret^0,c
  2574                           
  2575                           ;ECU_Layer/Chr_LCD/ecu_chr_lcd.c: 31:         ret = gpio_pin_intialize(&(lcd->lcd_en));
  2576  002738  0E01               	movlw	1
  2577  00273A  2414               	addwf	lcd_4bit_intialize@lcd^0,w,c
  2578  00273C  6E0C               	movwf	gpio_pin_intialize@_pin_config^0,c
  2579  00273E  0E00               	movlw	0
  2580  002740  2015               	addwfc	(lcd_4bit_intialize@lcd+1)^0,w,c
  2581  002742  6E0D               	movwf	(gpio_pin_intialize@_pin_config+1)^0,c
  2582  002744  EC8F  F019         	call	_gpio_pin_intialize	;wreg free
  2583  002748  6E19               	movwf	lcd_4bit_intialize@ret^0,c
  2584  00274A                     
  2585                           ;ECU_Layer/Chr_LCD/ecu_chr_lcd.c: 32:         for(l_data_pins_counter=0; l_data_pins_cou
      +                          nter<4; l_data_pins_counter++){
  2586  00274A  0E00               	movlw	0
  2587  00274C  6E18               	movwf	lcd_4bit_intialize@l_data_pins_counter^0,c
  2588  00274E                     l6476:
  2589  00274E  5018               	movf	lcd_4bit_intialize@l_data_pins_counter^0,w,c
  2590  002750  2414               	addwf	lcd_4bit_intialize@lcd^0,w,c
  2591  002752  6E16               	movwf	??_lcd_4bit_intialize^0,c
  2592  002754  0E00               	movlw	0
  2593  002756  2015               	addwfc	(lcd_4bit_intialize@lcd+1)^0,w,c
  2594  002758  6E17               	movwf	(??_lcd_4bit_intialize+1)^0,c
  2595  00275A  0E02               	movlw	2
  2596  00275C  2416               	addwf	??_lcd_4bit_intialize^0,w,c
  2597  00275E  6E0C               	movwf	gpio_pin_intialize@_pin_config^0,c
  2598  002760  0E00               	movlw	0
  2599  002762  2017               	addwfc	(??_lcd_4bit_intialize+1)^0,w,c
  2600  002764  6E0D               	movwf	(gpio_pin_intialize@_pin_config+1)^0,c
  2601  002766  EC8F  F019         	call	_gpio_pin_intialize	;wreg free
  2602  00276A                     
  2603                           ;ECU_Layer/Chr_LCD/ecu_chr_lcd.c: 34:         }
  2604  00276A  2A18               	incf	lcd_4bit_intialize@l_data_pins_counter^0,f,c
  2605  00276C  0E03               	movlw	3
  2606  00276E  6418               	cpfsgt	lcd_4bit_intialize@l_data_pins_counter^0,c
  2607  002770  EFBC  F013         	goto	u5391
  2608  002774  EFBE  F013         	goto	u5390
  2609  002778                     u5391:
  2610  002778  EFA7  F013         	goto	l6476
  2611  00277C                     u5390:
  2612  00277C                     
  2613                           ;ECU_Layer/Chr_LCD/ecu_chr_lcd.c: 35:         _delay((unsigned long)((20)*(8000000UL/400
      +                          0.0)));
  2614  00277C  0E34               	movlw	52
  2615  00277E  6E16               	movwf	??_lcd_4bit_intialize^0,c
  2616  002780  0EF2               	movlw	242
  2617  002782                     u7727:
  2618  002782  2EE8               	decfsz	wreg,f,c
  2619  002784  D7FE               	bra	u7727
  2620  002786  2E16               	decfsz	??_lcd_4bit_intialize^0,f,c
  2621  002788  D7FC               	bra	u7727
  2622  00278A  C014  F010         	movff	lcd_4bit_intialize@lcd,lcd_4bit_send_command@lcd
  2623  00278E  C015  F011         	movff	lcd_4bit_intialize@lcd+1,lcd_4bit_send_command@lcd+1
  2624  002792  0E38               	movlw	56
  2625  002794  6E12               	movwf	lcd_4bit_send_command@command^0,c
  2626  002796  EC1D  F019         	call	_lcd_4bit_send_command	;wreg free
  2627  00279A                     
  2628                           ;ECU_Layer/Chr_LCD/ecu_chr_lcd.c: 37:         _delay((unsigned long)((5)*(8000000UL/4000
      +                          .0)));
  2629  00279A  0E0D               	movlw	13
  2630  00279C  6E16               	movwf	??_lcd_4bit_intialize^0,c
  2631  00279E  0EFC               	movlw	252
  2632  0027A0                     u7737:
  2633  0027A0  2EE8               	decfsz	wreg,f,c
  2634  0027A2  D7FE               	bra	u7737
  2635  0027A4  2E16               	decfsz	??_lcd_4bit_intialize^0,f,c
  2636  0027A6  D7FC               	bra	u7737
  2637  0027A8  C014  F010         	movff	lcd_4bit_intialize@lcd,lcd_4bit_send_command@lcd
  2638  0027AC  C015  F011         	movff	lcd_4bit_intialize@lcd+1,lcd_4bit_send_command@lcd+1
  2639  0027B0  0E38               	movlw	56
  2640  0027B2  6E12               	movwf	lcd_4bit_send_command@command^0,c
  2641  0027B4  EC1D  F019         	call	_lcd_4bit_send_command	;wreg free
  2642  0027B8                     
  2643                           ;ECU_Layer/Chr_LCD/ecu_chr_lcd.c: 39:         _delay((unsigned long)((150)*(8000000UL/40
      +                          00000.0)));
  2644  0027B8  0E64               	movlw	100
  2645  0027BA                     u7747:
  2646  0027BA  2EE8               	decfsz	wreg,f,c
  2647  0027BC  D7FE               	bra	u7747
  2648  0027BE  C014  F010         	movff	lcd_4bit_intialize@lcd,lcd_4bit_send_command@lcd
  2649  0027C2  C015  F011         	movff	lcd_4bit_intialize@lcd+1,lcd_4bit_send_command@lcd+1
  2650  0027C6  0E38               	movlw	56
  2651  0027C8  6E12               	movwf	lcd_4bit_send_command@command^0,c
  2652  0027CA  EC1D  F019         	call	_lcd_4bit_send_command	;wreg free
  2653  0027CE  C014  F010         	movff	lcd_4bit_intialize@lcd,lcd_4bit_send_command@lcd
  2654  0027D2  C015  F011         	movff	lcd_4bit_intialize@lcd+1,lcd_4bit_send_command@lcd+1
  2655  0027D6  0E01               	movlw	1
  2656  0027D8  6E12               	movwf	lcd_4bit_send_command@command^0,c
  2657  0027DA  EC1D  F019         	call	_lcd_4bit_send_command	;wreg free
  2658  0027DE  C014  F010         	movff	lcd_4bit_intialize@lcd,lcd_4bit_send_command@lcd
  2659  0027E2  C015  F011         	movff	lcd_4bit_intialize@lcd+1,lcd_4bit_send_command@lcd+1
  2660  0027E6  0E02               	movlw	2
  2661  0027E8  6E12               	movwf	lcd_4bit_send_command@command^0,c
  2662  0027EA  EC1D  F019         	call	_lcd_4bit_send_command	;wreg free
  2663  0027EE  C014  F010         	movff	lcd_4bit_intialize@lcd,lcd_4bit_send_command@lcd
  2664  0027F2  C015  F011         	movff	lcd_4bit_intialize@lcd+1,lcd_4bit_send_command@lcd+1
  2665  0027F6  0E06               	movlw	6
  2666  0027F8  6E12               	movwf	lcd_4bit_send_command@command^0,c
  2667  0027FA  EC1D  F019         	call	_lcd_4bit_send_command	;wreg free
  2668  0027FE  C014  F010         	movff	lcd_4bit_intialize@lcd,lcd_4bit_send_command@lcd
  2669  002802  C015  F011         	movff	lcd_4bit_intialize@lcd+1,lcd_4bit_send_command@lcd+1
  2670  002806  0E0C               	movlw	12
  2671  002808  6E12               	movwf	lcd_4bit_send_command@command^0,c
  2672  00280A  EC1D  F019         	call	_lcd_4bit_send_command	;wreg free
  2673  00280E  C014  F010         	movff	lcd_4bit_intialize@lcd,lcd_4bit_send_command@lcd
  2674  002812  C015  F011         	movff	lcd_4bit_intialize@lcd+1,lcd_4bit_send_command@lcd+1
  2675  002816  0E28               	movlw	40
  2676  002818  6E12               	movwf	lcd_4bit_send_command@command^0,c
  2677  00281A  EC1D  F019         	call	_lcd_4bit_send_command	;wreg free
  2678  00281E                     
  2679                           ;ECU_Layer/Chr_LCD/ecu_chr_lcd.c: 47:         ret = lcd_4bit_send_command(lcd, 0x80);
  2680  00281E  C014  F010         	movff	lcd_4bit_intialize@lcd,lcd_4bit_send_command@lcd
  2681  002822  C015  F011         	movff	lcd_4bit_intialize@lcd+1,lcd_4bit_send_command@lcd+1
  2682  002826  0E80               	movlw	128
  2683  002828  6E12               	movwf	lcd_4bit_send_command@command^0,c
  2684  00282A  EC1D  F019         	call	_lcd_4bit_send_command	;wreg free
  2685  00282E  6E19               	movwf	lcd_4bit_intialize@ret^0,c
  2686  002830                     l6504:
  2687                           
  2688                           ;ECU_Layer/Chr_LCD/ecu_chr_lcd.c: 49:     return ret;
  2689  002830  5019               	movf	lcd_4bit_intialize@ret^0,w,c
  2690  002832  0012               	return		;funcret
  2691  002834                     __end_of_lcd_4bit_intialize:
  2692                           	callstack 0
  2693                           
  2694 ;; *************** function _keypad_initialize *****************
  2695 ;; Defined at:
  2696 ;;		line 24 in file "ECU_Layer/KeyPad/ecu_keypad.c"
  2697 ;; Parameters:    Size  Location     Type
  2698 ;;  _keypad_obj     2   15[COMRAM] PTR const struct .
  2699 ;;		 -> keypad_1(8), 
  2700 ;; Auto vars:     Size  Location     Type
  2701 ;;  columns_coun    1   21[COMRAM] unsigned char 
  2702 ;;  rows_counter    1   20[COMRAM] unsigned char 
  2703 ;;  ret             1   19[COMRAM] unsigned char 
  2704 ;; Return value:  Size  Location     Type
  2705 ;;                  1    wreg      unsigned char 
  2706 ;; Registers used:
  2707 ;;		wreg, fsr2l, fsr2h, status,2, status,0, prodl, prodh, cstack
  2708 ;; Tracked objects:
  2709 ;;		On entry : 0/0
  2710 ;;		On exit  : 0/0
  2711 ;;		Unchanged: 0/0
  2712 ;; Data sizes:     COMRAM   BANK0   BANK1   BANK2   BANK3   BANK4   BANK5   BANK6   BANK7   BANK8   BANK9  BANK10  BANK1
      +1  BANK12  BANK13  BANK14  BANK15
  2713 ;;      Params:         2       0       0       0       0       0       0       0       0       0       0       0       
      +0       0       0       0       0
  2714 ;;      Locals:         3       0       0       0       0       0       0       0       0       0       0       0       
      +0       0       0       0       0
  2715 ;;      Temps:          2       0       0       0       0       0       0       0       0       0       0       0       
      +0       0       0       0       0
  2716 ;;      Totals:         7       0       0       0       0       0       0       0       0       0       0       0       
      +0       0       0       0       0
  2717 ;;Total ram usage:        7 bytes
  2718 ;; Hardware stack levels used: 1
  2719 ;; Hardware stack levels required when called: 4
  2720 ;; This function calls:
  2721 ;;		_gpio_pin_direction_intialize
  2722 ;;		_gpio_pin_intialize
  2723 ;; This function is called by:
  2724 ;;		_application_intialize
  2725 ;; This function uses a non-reentrant model
  2726 ;;
  2727                           
  2728                           	psect	text10
  2729  003142                     __ptext10:
  2730                           	callstack 0
  2731  003142                     _keypad_initialize:
  2732                           	callstack 25
  2733  003142                     
  2734                           ;ECU_Layer/KeyPad/ecu_keypad.c: 26:     uint8 rows_counter = 0, columns_counter = 0;
  2735  003142  0E00               	movlw	0
  2736  003144  6E15               	movwf	keypad_initialize@rows_counter^0,c
  2737  003146  0E00               	movlw	0
  2738  003148  6E16               	movwf	keypad_initialize@columns_counter^0,c
  2739  00314A                     
  2740                           ;ECU_Layer/KeyPad/ecu_keypad.c: 27:     if(((void*)0) == _keypad_obj){
  2741  00314A  5010               	movf	keypad_initialize@_keypad_obj^0,w,c
  2742  00314C  1011               	iorwf	(keypad_initialize@_keypad_obj+1)^0,w,c
  2743  00314E  A4D8               	btfss	status,2,c
  2744  003150  EFAC  F018         	goto	u5461
  2745  003154  EFAE  F018         	goto	u5460
  2746  003158                     u5461:
  2747  003158  EFB2  F018         	goto	l6582
  2748  00315C                     u5460:
  2749  00315C                     
  2750                           ;ECU_Layer/KeyPad/ecu_keypad.c: 28:         ret = (Std_ReturnType)0x00;
  2751  00315C  0E00               	movlw	0
  2752  00315E  6E14               	movwf	keypad_initialize@ret^0,c
  2753                           
  2754                           ;ECU_Layer/KeyPad/ecu_keypad.c: 29:     }
  2755  003160  EFDF  F018         	goto	l6606
  2756  003164                     l6582:
  2757                           
  2758                           ;ECU_Layer/KeyPad/ecu_keypad.c: 31:         for(rows_counter=0; rows_counter<4; rows_cou
      +                          nter++){
  2759  003164  0E00               	movlw	0
  2760  003166  6E15               	movwf	keypad_initialize@rows_counter^0,c
  2761  003168                     l6588:
  2762  003168  5015               	movf	keypad_initialize@rows_counter^0,w,c
  2763  00316A  2410               	addwf	keypad_initialize@_keypad_obj^0,w,c
  2764  00316C  6E0C               	movwf	gpio_pin_intialize@_pin_config^0,c
  2765  00316E  0E00               	movlw	0
  2766  003170  2011               	addwfc	(keypad_initialize@_keypad_obj+1)^0,w,c
  2767  003172  6E0D               	movwf	(gpio_pin_intialize@_pin_config+1)^0,c
  2768  003174  EC8F  F019         	call	_gpio_pin_intialize	;wreg free
  2769  003178                     
  2770                           ;ECU_Layer/KeyPad/ecu_keypad.c: 33:         }
  2771  003178  2A15               	incf	keypad_initialize@rows_counter^0,f,c
  2772  00317A  0E03               	movlw	3
  2773  00317C  6415               	cpfsgt	keypad_initialize@rows_counter^0,c
  2774  00317E  EFC3  F018         	goto	u5471
  2775  003182  EFC5  F018         	goto	u5470
  2776  003186                     u5471:
  2777  003186  EFB4  F018         	goto	l6588
  2778  00318A                     u5470:
  2779  00318A                     
  2780                           ;ECU_Layer/KeyPad/ecu_keypad.c: 34:         for(columns_counter=0; columns_counter<4; co
      +                          lumns_counter++){
  2781  00318A  0E00               	movlw	0
  2782  00318C  6E16               	movwf	keypad_initialize@columns_counter^0,c
  2783  00318E                     l6600:
  2784                           
  2785                           ;ECU_Layer/KeyPad/ecu_keypad.c: 35:             ret = gpio_pin_direction_intialize(&(_ke
      +                          ypad_obj->keypad_columns_pins[columns_counter]));
  2786  00318E  5016               	movf	keypad_initialize@columns_counter^0,w,c
  2787  003190  2410               	addwf	keypad_initialize@_keypad_obj^0,w,c
  2788  003192  6E12               	movwf	??_keypad_initialize^0,c
  2789  003194  0E00               	movlw	0
  2790  003196  2011               	addwfc	(keypad_initialize@_keypad_obj+1)^0,w,c
  2791  003198  6E13               	movwf	(??_keypad_initialize+1)^0,c
  2792  00319A  0E04               	movlw	4
  2793  00319C  2412               	addwf	??_keypad_initialize^0,w,c
  2794  00319E  6E02               	movwf	gpio_pin_direction_intialize@_pin_config^0,c
  2795  0031A0  0E00               	movlw	0
  2796  0031A2  2013               	addwfc	(??_keypad_initialize+1)^0,w,c
  2797  0031A4  6E03               	movwf	(gpio_pin_direction_intialize@_pin_config+1)^0,c
  2798  0031A6  ECB8  F011         	call	_gpio_pin_direction_intialize	;wreg free
  2799  0031AA  6E14               	movwf	keypad_initialize@ret^0,c
  2800  0031AC                     
  2801                           ;ECU_Layer/KeyPad/ecu_keypad.c: 36:         }
  2802  0031AC  2A16               	incf	keypad_initialize@columns_counter^0,f,c
  2803  0031AE  0E03               	movlw	3
  2804  0031B0  6416               	cpfsgt	keypad_initialize@columns_counter^0,c
  2805  0031B2  EFDD  F018         	goto	u5481
  2806  0031B6  EFDF  F018         	goto	u5480
  2807  0031BA                     u5481:
  2808  0031BA  EFC7  F018         	goto	l6600
  2809  0031BE                     u5480:
  2810  0031BE                     l6606:
  2811                           
  2812                           ;ECU_Layer/KeyPad/ecu_keypad.c: 38:     return ret;
  2813  0031BE  5014               	movf	keypad_initialize@ret^0,w,c
  2814  0031C0  0012               	return		;funcret
  2815  0031C2                     __end_of_keypad_initialize:
  2816                           	callstack 0
  2817                           
  2818 ;; *************** function _gpio_pin_intialize *****************
  2819 ;; Defined at:
  2820 ;;		line 144 in file "MCAL_Layer/GPIO/hal_gpio.c"
  2821 ;; Parameters:    Size  Location     Type
  2822 ;;  _pin_config     2   11[COMRAM] PTR const struct .
  2823 ;;		 -> keypad_1.keypad_row_pins(4), keypad_1(8), lcd_1.lcd_data(4), lcd_1(6), 
  2824 ;;		 -> relay_initialize@pin_obj(1), led_initialize@pin_obj(1), 
  2825 ;; Auto vars:     Size  Location     Type
  2826 ;;  ret             1   14[COMRAM] unsigned char 
  2827 ;; Return value:  Size  Location     Type
  2828 ;;                  1    wreg      unsigned char 
  2829 ;; Registers used:
  2830 ;;		wreg, fsr2l, fsr2h, status,2, status,0, prodl, prodh, cstack
  2831 ;; Tracked objects:
  2832 ;;		On entry : 0/0
  2833 ;;		On exit  : 0/0
  2834 ;;		Unchanged: 0/0
  2835 ;; Data sizes:     COMRAM   BANK0   BANK1   BANK2   BANK3   BANK4   BANK5   BANK6   BANK7   BANK8   BANK9  BANK10  BANK1
      +1  BANK12  BANK13  BANK14  BANK15
  2836 ;;      Params:         2       0       0       0       0       0       0       0       0       0       0       0       
      +0       0       0       0       0
  2837 ;;      Locals:         1       0       0       0       0       0       0       0       0       0       0       0       
      +0       0       0       0       0
  2838 ;;      Temps:          1       0       0       0       0       0       0       0       0       0       0       0       
      +0       0       0       0       0
  2839 ;;      Totals:         4       0       0       0       0       0       0       0       0       0       0       0       
      +0       0       0       0       0
  2840 ;;Total ram usage:        4 bytes
  2841 ;; Hardware stack levels used: 1
  2842 ;; Hardware stack levels required when called: 3
  2843 ;; This function calls:
  2844 ;;		_gpio_pin_direction_intialize
  2845 ;;		_gpio_pin_write_logic
  2846 ;; This function is called by:
  2847 ;;		_lcd_4bit_intialize
  2848 ;;		_keypad_initialize
  2849 ;;		_seven_segement_intialize
  2850 ;;		_lcd_8bit_intialize
  2851 ;;		_dc_motor_initialize
  2852 ;;		_led_initialize
  2853 ;;		_relay_initialize
  2854 ;;		_Ultrasonic_Init
  2855 ;;		_CCP_Init
  2856 ;; This function uses a non-reentrant model
  2857 ;;
  2858                           
  2859                           	psect	text11
  2860  00331E                     __ptext11:
  2861                           	callstack 0
  2862  00331E                     _gpio_pin_intialize:
  2863                           	callstack 25
  2864  00331E                     
  2865                           ;MCAL_Layer/GPIO/hal_gpio.c: 146:     if(((void*)0) == _pin_config || _pin_config->pin >
      +                           8 -1){
  2866  00331E  500C               	movf	gpio_pin_intialize@_pin_config^0,w,c
  2867  003320  100D               	iorwf	(gpio_pin_intialize@_pin_config+1)^0,w,c
  2868  003322  B4D8               	btfsc	status,2,c
  2869  003324  EF96  F019         	goto	u5201
  2870  003328  EF98  F019         	goto	u5200
  2871  00332C                     u5201:
  2872  00332C  EFA9  F019         	goto	l6318
  2873  003330                     u5200:
  2874  003330  C00C  FFD9         	movff	gpio_pin_intialize@_pin_config,fsr2l
  2875  003334  C00D  FFDA         	movff	gpio_pin_intialize@_pin_config+1,fsr2h
  2876  003338  30DF               	rrcf	223,w,c
  2877  00333A  32E8               	rrcf	wreg,f,c
  2878  00333C  32E8               	rrcf	wreg,f,c
  2879  00333E  0B07               	andlw	7
  2880  003340  6E0E               	movwf	??_gpio_pin_intialize^0,c
  2881  003342  0E07               	movlw	7
  2882  003344  640E               	cpfsgt	??_gpio_pin_intialize^0,c
  2883  003346  EFA7  F019         	goto	u5211
  2884  00334A  EFA9  F019         	goto	u5210
  2885  00334E                     u5211:
  2886  00334E  EFAD  F019         	goto	l6320
  2887  003352                     u5210:
  2888  003352                     l6318:
  2889                           
  2890                           ;MCAL_Layer/GPIO/hal_gpio.c: 147:         ret = (Std_ReturnType)0x00;
  2891  003352  0E00               	movlw	0
  2892  003354  6E0F               	movwf	gpio_pin_intialize@ret^0,c
  2893                           
  2894                           ;MCAL_Layer/GPIO/hal_gpio.c: 148:     }
  2895  003356  EFC3  F019         	goto	l6322
  2896  00335A                     l6320:
  2897                           
  2898                           ;MCAL_Layer/GPIO/hal_gpio.c: 150:         ret = gpio_pin_direction_intialize(_pin_config
      +                          );
  2899  00335A  C00C  F002         	movff	gpio_pin_intialize@_pin_config,gpio_pin_direction_intialize@_pin_config
  2900  00335E  C00D  F003         	movff	gpio_pin_intialize@_pin_config+1,gpio_pin_direction_intialize@_pin_config+1
  2901  003362  ECB8  F011         	call	_gpio_pin_direction_intialize	;wreg free
  2902  003366  6E0F               	movwf	gpio_pin_intialize@ret^0,c
  2903                           
  2904                           ;MCAL_Layer/GPIO/hal_gpio.c: 151:         ret = gpio_pin_write_logic(_pin_config, _pin_c
      +                          onfig->logic);
  2905  003368  C00C  F002         	movff	gpio_pin_intialize@_pin_config,gpio_pin_write_logic@_pin_config
  2906  00336C  C00D  F003         	movff	gpio_pin_intialize@_pin_config+1,gpio_pin_write_logic@_pin_config+1
  2907  003370  C00C  FFD9         	movff	gpio_pin_intialize@_pin_config,fsr2l
  2908  003374  C00D  FFDA         	movff	gpio_pin_intialize@_pin_config+1,fsr2h
  2909  003378  0E00               	movlw	0
  2910  00337A  BEDF               	btfsc	indf2,7,c
  2911  00337C  0E01               	movlw	1
  2912  00337E  6E04               	movwf	gpio_pin_write_logic@logic^0,c
  2913  003380  ECF0  F012         	call	_gpio_pin_write_logic	;wreg free
  2914  003384  6E0F               	movwf	gpio_pin_intialize@ret^0,c
  2915  003386                     l6322:
  2916                           
  2917                           ;MCAL_Layer/GPIO/hal_gpio.c: 153:     return ret;
  2918  003386  500F               	movf	gpio_pin_intialize@ret^0,w,c
  2919  003388  0012               	return		;funcret
  2920  00338A                     __end_of_gpio_pin_intialize:
  2921                           	callstack 0
  2922                           
  2923 ;; *************** function _gpio_pin_direction_intialize *****************
  2924 ;; Defined at:
  2925 ;;		line 25 in file "MCAL_Layer/GPIO/hal_gpio.c"
  2926 ;; Parameters:    Size  Location     Type
  2927 ;;  _pin_config     2    1[COMRAM] PTR const struct .
  2928 ;;		 -> keypad_1.keypad_columns_pins(4), keypad_1.keypad_row_pins(4), keypad_1(8), lcd_1.lcd_data(4), 
  2929 ;;		 -> lcd_1(6), MSSP_SPI_Slave_Mode_GPIO_PIN_Configurations@SPI_SS(1), MSSP_SPI_Slave_Mode_GPIO_PIN_Configurations@SPI
      +_CLK(1), MSSP_SPI_Slave_Mode_GPIO_PIN_Configurations@SPI_SDI(1), 
  2930 ;;		 -> MSSP_SPI_Slave_Mode_GPIO_PIN_Configurations@SPI_SDO(1), MSSP_SPI_Msster_Mode_GPIO_PIN_Configurations@SPI_CLK(1),
      + MSSP_SPI_Msster_Mode_GPIO_PIN_Configurations@SPI_SDI(1), MSSP_SPI_Msster_Mode_GPIO_PIN_Configurations@SPI_SDO(1), 
  2931 ;;		 -> relay_initialize@pin_obj(1), led_initialize@pin_obj(1), 
  2932 ;; Auto vars:     Size  Location     Type
  2933 ;;  ret             1    9[COMRAM] unsigned char 
  2934 ;; Return value:  Size  Location     Type
  2935 ;;                  1    wreg      unsigned char 
  2936 ;; Registers used:
  2937 ;;		wreg, fsr2l, fsr2h, status,2, status,0, prodl, prodh
  2938 ;; Tracked objects:
  2939 ;;		On entry : 0/0
  2940 ;;		On exit  : 0/0
  2941 ;;		Unchanged: 0/0
  2942 ;; Data sizes:     COMRAM   BANK0   BANK1   BANK2   BANK3   BANK4   BANK5   BANK6   BANK7   BANK8   BANK9  BANK10  BANK1
      +1  BANK12  BANK13  BANK14  BANK15
  2943 ;;      Params:         2       0       0       0       0       0       0       0       0       0       0       0       
      +0       0       0       0       0
  2944 ;;      Locals:         1       0       0       0       0       0       0       0       0       0       0       0       
      +0       0       0       0       0
  2945 ;;      Temps:          6       0       0       0       0       0       0       0       0       0       0       0       
      +0       0       0       0       0
  2946 ;;      Totals:         9       0       0       0       0       0       0       0       0       0       0       0       
      +0       0       0       0       0
  2947 ;;Total ram usage:        9 bytes
  2948 ;; Hardware stack levels used: 1
  2949 ;; Hardware stack levels required when called: 2
  2950 ;; This function calls:
  2951 ;;		Nothing
  2952 ;; This function is called by:
  2953 ;;		_keypad_initialize
  2954 ;;		_gpio_pin_intialize
  2955 ;;		_button_initialize
  2956 ;;		_Interrupt_RBx_Init
  2957 ;;		_Interrupt_INTx_Pin_Init
  2958 ;;		_MSSP_SPI_Msster_Mode_GPIO_PIN_Configurations
  2959 ;;		_MSSP_SPI_Slave_Mode_GPIO_PIN_Configurations
  2960 ;; This function uses a non-reentrant model
  2961 ;;
  2962                           
  2963                           	psect	text12
  2964  002370                     __ptext12:
  2965                           	callstack 0
  2966  002370                     _gpio_pin_direction_intialize:
  2967                           	callstack 25
  2968  002370                     
  2969                           ;MCAL_Layer/GPIO/hal_gpio.c: 26:     Std_ReturnType ret = (Std_ReturnType)0x01;
  2970  002370  0E01               	movlw	1
  2971  002372  6E0A               	movwf	gpio_pin_direction_intialize@ret^0,c
  2972  002374                     
  2973                           ;MCAL_Layer/GPIO/hal_gpio.c: 27:     if(((void*)0) == _pin_config || _pin_config->pin > 
      +                          8 -1){
  2974  002374  5002               	movf	gpio_pin_direction_intialize@_pin_config^0,w,c
  2975  002376  1003               	iorwf	(gpio_pin_direction_intialize@_pin_config+1)^0,w,c
  2976  002378  B4D8               	btfsc	status,2,c
  2977  00237A  EFC1  F011         	goto	u4331
  2978  00237E  EFC3  F011         	goto	u4330
  2979  002382                     u4331:
  2980  002382  EFD4  F011         	goto	l5844
  2981  002386                     u4330:
  2982  002386  C002  FFD9         	movff	gpio_pin_direction_intialize@_pin_config,fsr2l
  2983  00238A  C003  FFDA         	movff	gpio_pin_direction_intialize@_pin_config+1,fsr2h
  2984  00238E  30DF               	rrcf	223,w,c
  2985  002390  32E8               	rrcf	wreg,f,c
  2986  002392  32E8               	rrcf	wreg,f,c
  2987  002394  0B07               	andlw	7
  2988  002396  6E04               	movwf	??_gpio_pin_direction_intialize^0,c
  2989  002398  0E07               	movlw	7
  2990  00239A  6404               	cpfsgt	??_gpio_pin_direction_intialize^0,c
  2991  00239C  EFD2  F011         	goto	u4341
  2992  0023A0  EFD4  F011         	goto	u4340
  2993  0023A4                     u4341:
  2994  0023A4  EF37  F012         	goto	l5852
  2995  0023A8                     u4340:
  2996  0023A8                     l5844:
  2997                           
  2998                           ;MCAL_Layer/GPIO/hal_gpio.c: 28:         ret = (Std_ReturnType)0x00;
  2999  0023A8  0E00               	movlw	0
  3000  0023AA  6E0A               	movwf	gpio_pin_direction_intialize@ret^0,c
  3001                           
  3002                           ;MCAL_Layer/GPIO/hal_gpio.c: 29:     }
  3003  0023AC  EF58  F012         	goto	l5854
  3004  0023B0                     l5846:
  3005                           
  3006                           ;MCAL_Layer/GPIO/hal_gpio.c: 33:                 (*tris_registers[_pin_config->port] &= 
      +                          ~((uint8)1 << _pin_config->pin));
  3007  0023B0  C002  FFD9         	movff	gpio_pin_direction_intialize@_pin_config,fsr2l
  3008  0023B4  C003  FFDA         	movff	gpio_pin_direction_intialize@_pin_config+1,fsr2h
  3009  0023B8  30DF               	rrcf	223,w,c
  3010  0023BA  32E8               	rrcf	wreg,f,c
  3011  0023BC  32E8               	rrcf	wreg,f,c
  3012  0023BE  0B07               	andlw	7
  3013  0023C0  6E04               	movwf	??_gpio_pin_direction_intialize^0,c
  3014  0023C2  0E01               	movlw	1
  3015  0023C4  6E05               	movwf	(??_gpio_pin_direction_intialize+1)^0,c
  3016  0023C6  2A04               	incf	??_gpio_pin_direction_intialize^0,f,c
  3017  0023C8  EFE8  F011         	goto	u4354
  3018  0023CC                     u4355:
  3019  0023CC  90D8               	bcf	status,0,c
  3020  0023CE  3605               	rlcf	(??_gpio_pin_direction_intialize+1)^0,f,c
  3021  0023D0                     u4354:
  3022  0023D0  2E04               	decfsz	??_gpio_pin_direction_intialize^0,f,c
  3023  0023D2  EFE6  F011         	goto	u4355
  3024  0023D6  5005               	movf	(??_gpio_pin_direction_intialize+1)^0,w,c
  3025  0023D8  0AFF               	xorlw	255
  3026  0023DA  6E06               	movwf	(??_gpio_pin_direction_intialize+2)^0,c
  3027  0023DC  C002  FFD9         	movff	gpio_pin_direction_intialize@_pin_config,fsr2l
  3028  0023E0  C003  FFDA         	movff	gpio_pin_direction_intialize@_pin_config+1,fsr2h
  3029  0023E4  50DF               	movf	223,w,c
  3030  0023E6  0B07               	andlw	7
  3031  0023E8  6E07               	movwf	(??_gpio_pin_direction_intialize+3)^0,c
  3032  0023EA  5007               	movf	(??_gpio_pin_direction_intialize+3)^0,w,c
  3033  0023EC  0D02               	mullw	2
  3034  0023EE  0E94               	movlw	low _tris_registers
  3035  0023F0  24F3               	addwf	243,w,c
  3036  0023F2  6ED9               	movwf	fsr2l,c
  3037  0023F4  0E00               	movlw	high _tris_registers
  3038  0023F6  20F4               	addwfc	prodh,w,c
  3039  0023F8  6EDA               	movwf	fsr2h,c
  3040  0023FA  CFDE F008          	movff	postinc2,??_gpio_pin_direction_intialize+4
  3041  0023FE  CFDD F009          	movff	postdec2,??_gpio_pin_direction_intialize+5
  3042  002402  C008  FFD9         	movff	??_gpio_pin_direction_intialize+4,fsr2l
  3043  002406  C009  FFDA         	movff	??_gpio_pin_direction_intialize+5,fsr2h
  3044  00240A  5006               	movf	(??_gpio_pin_direction_intialize+2)^0,w,c
  3045  00240C  16DF               	andwf	indf2,f,c
  3046                           
  3047                           ;MCAL_Layer/GPIO/hal_gpio.c: 34:                 break;
  3048  00240E  EF58  F012         	goto	l5854
  3049  002412                     l5848:
  3050                           
  3051                           ;MCAL_Layer/GPIO/hal_gpio.c: 36:                 (*tris_registers[_pin_config->port] |= 
      +                          ((uint8)1 << _pin_config->pin));
  3052  002412  C002  FFD9         	movff	gpio_pin_direction_intialize@_pin_config,fsr2l
  3053  002416  C003  FFDA         	movff	gpio_pin_direction_intialize@_pin_config+1,fsr2h
  3054  00241A  30DF               	rrcf	223,w,c
  3055  00241C  32E8               	rrcf	wreg,f,c
  3056  00241E  32E8               	rrcf	wreg,f,c
  3057  002420  0B07               	andlw	7
  3058  002422  6E04               	movwf	??_gpio_pin_direction_intialize^0,c
  3059  002424  0E01               	movlw	1
  3060  002426  6E05               	movwf	(??_gpio_pin_direction_intialize+1)^0,c
  3061  002428  2A04               	incf	??_gpio_pin_direction_intialize^0,f,c
  3062  00242A  EF19  F012         	goto	u4364
  3063  00242E                     u4365:
  3064  00242E  90D8               	bcf	status,0,c
  3065  002430  3605               	rlcf	(??_gpio_pin_direction_intialize+1)^0,f,c
  3066  002432                     u4364:
  3067  002432  2E04               	decfsz	??_gpio_pin_direction_intialize^0,f,c
  3068  002434  EF17  F012         	goto	u4365
  3069  002438  C002  FFD9         	movff	gpio_pin_direction_intialize@_pin_config,fsr2l
  3070  00243C  C003  FFDA         	movff	gpio_pin_direction_intialize@_pin_config+1,fsr2h
  3071  002440  50DF               	movf	223,w,c
  3072  002442  0B07               	andlw	7
  3073  002444  6E06               	movwf	(??_gpio_pin_direction_intialize+2)^0,c
  3074  002446  5006               	movf	(??_gpio_pin_direction_intialize+2)^0,w,c
  3075  002448  0D02               	mullw	2
  3076  00244A  0E94               	movlw	low _tris_registers
  3077  00244C  24F3               	addwf	243,w,c
  3078  00244E  6ED9               	movwf	fsr2l,c
  3079  002450  0E00               	movlw	high _tris_registers
  3080  002452  20F4               	addwfc	prodh,w,c
  3081  002454  6EDA               	movwf	fsr2h,c
  3082  002456  CFDE F007          	movff	postinc2,??_gpio_pin_direction_intialize+3
  3083  00245A  CFDD F008          	movff	postdec2,??_gpio_pin_direction_intialize+4
  3084  00245E  C007  FFD9         	movff	??_gpio_pin_direction_intialize+3,fsr2l
  3085  002462  C008  FFDA         	movff	??_gpio_pin_direction_intialize+4,fsr2h
  3086  002466  5005               	movf	(??_gpio_pin_direction_intialize+1)^0,w,c
  3087  002468  12DF               	iorwf	indf2,f,c
  3088                           
  3089                           ;MCAL_Layer/GPIO/hal_gpio.c: 37:                 break;
  3090  00246A  EF58  F012         	goto	l5854
  3091  00246E                     l5852:
  3092  00246E  C002  FFD9         	movff	gpio_pin_direction_intialize@_pin_config,fsr2l
  3093  002472  C003  FFDA         	movff	gpio_pin_direction_intialize@_pin_config+1,fsr2h
  3094  002476  BCDF               	btfsc	indf2,6,c
  3095  002478  EF40  F012         	goto	u4371
  3096  00247C  EF43  F012         	goto	u4370
  3097  002480                     u4371:
  3098  002480  0E01               	movlw	1
  3099  002482  EF44  F012         	goto	u4380
  3100  002486                     u4370:
  3101  002486  0E00               	movlw	0
  3102  002488                     u4380:
  3103  002488  6E04               	movwf	??_gpio_pin_direction_intialize^0,c
  3104  00248A  6A05               	clrf	(??_gpio_pin_direction_intialize+1)^0,c
  3105                           
  3106                           ; Switch on 2 bytes has been partitioned into a top level switch of size 1, and 1 sub-sw
      +                          itches
  3107                           ; Switch size 1, requested type "simple"
  3108                           ; Number of cases is 1, Range of values is 0 to 0
  3109                           ; switch strategies available:
  3110                           ; Name         Instructions Cycles
  3111                           ; simple_byte            4     3 (average)
  3112                           ;	Chosen strategy is simple_byte
  3113  00248C  5005               	movf	(??_gpio_pin_direction_intialize+1)^0,w,c
  3114  00248E  0A00               	xorlw	0	; case 0
  3115  002490  B4D8               	btfsc	status,2,c
  3116  002492  EF4D  F012         	goto	l8346
  3117  002496  EFD4  F011         	goto	l5844
  3118  00249A                     l8346:
  3119                           
  3120                           ; Switch size 1, requested type "simple"
  3121                           ; Number of cases is 2, Range of values is 0 to 1
  3122                           ; switch strategies available:
  3123                           ; Name         Instructions Cycles
  3124                           ; simple_byte            7     4 (average)
  3125                           ;	Chosen strategy is simple_byte
  3126  00249A  5004               	movf	??_gpio_pin_direction_intialize^0,w,c
  3127  00249C  0A00               	xorlw	0	; case 0
  3128  00249E  B4D8               	btfsc	status,2,c
  3129  0024A0  EFD8  F011         	goto	l5846
  3130  0024A4  0A01               	xorlw	1	; case 1
  3131  0024A6  B4D8               	btfsc	status,2,c
  3132  0024A8  EF09  F012         	goto	l5848
  3133  0024AC  EFD4  F011         	goto	l5844
  3134  0024B0                     l5854:
  3135                           
  3136                           ;MCAL_Layer/GPIO/hal_gpio.c: 41:     return ret;
  3137  0024B0  500A               	movf	gpio_pin_direction_intialize@ret^0,w,c
  3138  0024B2  0012               	return		;funcret
  3139  0024B4                     __end_of_gpio_pin_direction_intialize:
  3140                           	callstack 0
  3141                           
  3142 ;; *************** function _EUSART_ASYNC_Init *****************
  3143 ;; Defined at:
  3144 ;;		line 21 in file "MCAL_Layer/usart/hal_usart.c"
  3145 ;; Parameters:    Size  Location     Type
  3146 ;;  _eusart         2   68[COMRAM] PTR const struct .
  3147 ;;		 -> usart_1(18), 
  3148 ;; Auto vars:     Size  Location     Type
  3149 ;;  ret             1   70[COMRAM] unsigned char 
  3150 ;; Return value:  Size  Location     Type
  3151 ;;                  1    wreg      unsigned char 
  3152 ;; Registers used:
  3153 ;;		wreg, fsr2l, fsr2h, status,2, status,0, cstack
  3154 ;; Tracked objects:
  3155 ;;		On entry : 0/0
  3156 ;;		On exit  : 0/0
  3157 ;;		Unchanged: 0/0
  3158 ;; Data sizes:     COMRAM   BANK0   BANK1   BANK2   BANK3   BANK4   BANK5   BANK6   BANK7   BANK8   BANK9  BANK10  BANK1
      +1  BANK12  BANK13  BANK14  BANK15
  3159 ;;      Params:         2       0       0       0       0       0       0       0       0       0       0       0       
      +0       0       0       0       0
  3160 ;;      Locals:         1       0       0       0       0       0       0       0       0       0       0       0       
      +0       0       0       0       0
  3161 ;;      Temps:          0       0       0       0       0       0       0       0       0       0       0       0       
      +0       0       0       0       0
  3162 ;;      Totals:         3       0       0       0       0       0       0       0       0       0       0       0       
      +0       0       0       0       0
  3163 ;;Total ram usage:        3 bytes
  3164 ;; Hardware stack levels used: 1
  3165 ;; Hardware stack levels required when called: 4
  3166 ;; This function calls:
  3167 ;;		_EUSART_ASYNC_RX_Init
  3168 ;;		_EUSART_ASYNC_TX_Init
  3169 ;;		_EUSART_Baud_Rate_Calculation
  3170 ;; This function is called by:
  3171 ;;		_application_intialize
  3172 ;; This function uses a non-reentrant model
  3173 ;;
  3174                           
  3175                           	psect	text13
  3176  003454                     __ptext13:
  3177                           	callstack 0
  3178  003454                     _EUSART_ASYNC_Init:
  3179                           	callstack 25
  3180  003454                     
  3181                           ;MCAL_Layer/usart/hal_usart.c: 23:     if(((void*)0) == _eusart){
  3182  003454  5045               	movf	EUSART_ASYNC_Init@_eusart^0,w,c
  3183  003456  1046               	iorwf	(EUSART_ASYNC_Init@_eusart+1)^0,w,c
  3184  003458  A4D8               	btfss	status,2,c
  3185  00345A  EF31  F01A         	goto	u5551
  3186  00345E  EF33  F01A         	goto	u5550
  3187  003462                     u5551:
  3188  003462  EF37  F01A         	goto	l1601
  3189  003466                     u5550:
  3190  003466                     
  3191                           ;MCAL_Layer/usart/hal_usart.c: 24:         ret = (Std_ReturnType)0x00;
  3192  003466  0E00               	movlw	0
  3193  003468  6E47               	movwf	EUSART_ASYNC_Init@ret^0,c
  3194                           
  3195                           ;MCAL_Layer/usart/hal_usart.c: 25:     }
  3196  00346A  EF4F  F01A         	goto	l6676
  3197  00346E                     l1601:
  3198                           
  3199                           ;MCAL_Layer/usart/hal_usart.c: 27:         RCSTAbits.SPEN = 0;
  3200  00346E  9EAB               	bcf	171,7,c	;volatile
  3201                           
  3202                           ;MCAL_Layer/usart/hal_usart.c: 28:         TRISCbits.RC7 = 1;
  3203  003470  8E94               	bsf	148,7,c	;volatile
  3204                           
  3205                           ;MCAL_Layer/usart/hal_usart.c: 29:         TRISCbits.RC6 = 1;
  3206  003472  8C94               	bsf	148,6,c	;volatile
  3207  003474                     
  3208                           ;MCAL_Layer/usart/hal_usart.c: 30:         EUSART_Baud_Rate_Calculation(_eusart);
  3209  003474  C045  F039         	movff	EUSART_ASYNC_Init@_eusart,EUSART_Baud_Rate_Calculation@_eusart
  3210  003478  C046  F03A         	movff	EUSART_ASYNC_Init@_eusart+1,EUSART_Baud_Rate_Calculation@_eusart+1
  3211  00347C  EC3F  F008         	call	_EUSART_Baud_Rate_Calculation	;wreg free
  3212                           
  3213                           ;MCAL_Layer/usart/hal_usart.c: 31:         EUSART_ASYNC_TX_Init(_eusart);
  3214  003480  C045  F002         	movff	EUSART_ASYNC_Init@_eusart,EUSART_ASYNC_TX_Init@_eusart
  3215  003484  C046  F003         	movff	EUSART_ASYNC_Init@_eusart+1,EUSART_ASYNC_TX_Init@_eusart+1
  3216  003488  EC9D  F017         	call	_EUSART_ASYNC_TX_Init	;wreg free
  3217                           
  3218                           ;MCAL_Layer/usart/hal_usart.c: 32:         EUSART_ASYNC_RX_Init(_eusart);
  3219  00348C  C045  F002         	movff	EUSART_ASYNC_Init@_eusart,EUSART_ASYNC_RX_Init@_eusart
  3220  003490  C046  F003         	movff	EUSART_ASYNC_Init@_eusart+1,EUSART_ASYNC_RX_Init@_eusart+1
  3221  003494  ECD3  F016         	call	_EUSART_ASYNC_RX_Init	;wreg free
  3222  003498                     
  3223                           ;MCAL_Layer/usart/hal_usart.c: 33:         RCSTAbits.SPEN = 1;
  3224  003498  8EAB               	bsf	171,7,c	;volatile
  3225  00349A                     
  3226                           ;MCAL_Layer/usart/hal_usart.c: 34:         ret = (Std_ReturnType)0x01;
  3227  00349A  0E01               	movlw	1
  3228  00349C  6E47               	movwf	EUSART_ASYNC_Init@ret^0,c
  3229  00349E                     l6676:
  3230                           
  3231                           ;MCAL_Layer/usart/hal_usart.c: 36:     return ret;
  3232  00349E  5047               	movf	EUSART_ASYNC_Init@ret^0,w,c
  3233  0034A0  0012               	return		;funcret
  3234  0034A2                     __end_of_EUSART_ASYNC_Init:
  3235                           	callstack 0
  3236                           
  3237 ;; *************** function _EUSART_Baud_Rate_Calculation *****************
  3238 ;; Defined at:
  3239 ;;		line 136 in file "MCAL_Layer/usart/hal_usart.c"
  3240 ;; Parameters:    Size  Location     Type
  3241 ;;  _eusart         2   56[COMRAM] PTR const struct .
  3242 ;;		 -> usart_1(18), 
  3243 ;; Auto vars:     Size  Location     Type
  3244 ;;  Baud_Rate_Te    4   60[COMRAM] float 
  3245 ;; Return value:  Size  Location     Type
  3246 ;;                  1    wreg      void 
  3247 ;; Registers used:
  3248 ;;		wreg, fsr2l, fsr2h, status,2, status,0, cstack
  3249 ;; Tracked objects:
  3250 ;;		On entry : 0/0
  3251 ;;		On exit  : 0/0
  3252 ;;		Unchanged: 0/0
  3253 ;; Data sizes:     COMRAM   BANK0   BANK1   BANK2   BANK3   BANK4   BANK5   BANK6   BANK7   BANK8   BANK9  BANK10  BANK1
      +1  BANK12  BANK13  BANK14  BANK15
  3254 ;;      Params:         2       0       0       0       0       0       0       0       0       0       0       0       
      +0       0       0       0       0
  3255 ;;      Locals:         8       0       0       0       0       0       0       0       0       0       0       0       
      +0       0       0       0       0
  3256 ;;      Temps:          2       0       0       0       0       0       0       0       0       0       0       0       
      +0       0       0       0       0
  3257 ;;      Totals:        12       0       0       0       0       0       0       0       0       0       0       0       
      +0       0       0       0       0
  3258 ;;Total ram usage:       12 bytes
  3259 ;; Hardware stack levels used: 1
  3260 ;; Hardware stack levels required when called: 3
  3261 ;; This function calls:
  3262 ;;		___fladd
  3263 ;;		___fldiv
  3264 ;;		___fltol
  3265 ;;		___xxtofl
  3266 ;; This function is called by:
  3267 ;;		_EUSART_ASYNC_Init
  3268 ;; This function uses a non-reentrant model
  3269 ;;
  3270                           
  3271                           	psect	text14
  3272  00107E                     __ptext14:
  3273                           	callstack 0
  3274  00107E                     _EUSART_Baud_Rate_Calculation:
  3275                           	callstack 25
  3276  00107E                     
  3277                           ;MCAL_Layer/usart/hal_usart.c: 137:     float Baud_Rate_Temp = 0;
  3278  00107E  0E00               	movlw	0
  3279  001080  6E3D               	movwf	EUSART_Baud_Rate_Calculation@Baud_Rate_Temp^0,c
  3280  001082  0E00               	movlw	0
  3281  001084  6E3E               	movwf	(EUSART_Baud_Rate_Calculation@Baud_Rate_Temp+1)^0,c
  3282  001086  0E00               	movlw	0
  3283  001088  6E3F               	movwf	(EUSART_Baud_Rate_Calculation@Baud_Rate_Temp+2)^0,c
  3284  00108A  0E00               	movlw	0
  3285  00108C  6E40               	movwf	(EUSART_Baud_Rate_Calculation@Baud_Rate_Temp+3)^0,c
  3286                           
  3287                           ;MCAL_Layer/usart/hal_usart.c: 138:     switch(_eusart->baudrate_gen_gonfig){
  3288  00108E  EF63  F00A         	goto	l6402
  3289  001092                     l1653:
  3290                           
  3291                           ;MCAL_Layer/usart/hal_usart.c: 140:             TXSTAbits.SYNC = 0;
  3292  001092  98AC               	bcf	172,4,c	;volatile
  3293                           
  3294                           ;MCAL_Layer/usart/hal_usart.c: 141:             TXSTAbits.BRGH = 0;
  3295  001094  94AC               	bcf	172,2,c	;volatile
  3296                           
  3297                           ;MCAL_Layer/usart/hal_usart.c: 142:             BAUDCONbits.BRG16 = 0;
  3298  001096  96B8               	bcf	184,3,c	;volatile
  3299  001098                     
  3300                           ;MCAL_Layer/usart/hal_usart.c: 143:             Baud_Rate_Temp = ((8000000UL / (float)_e
      +                          usart->baudrate) / 64) - 1;
  3301  001098  C039  FFD9         	movff	EUSART_Baud_Rate_Calculation@_eusart,fsr2l
  3302  00109C  C03A  FFDA         	movff	EUSART_Baud_Rate_Calculation@_eusart+1,fsr2h
  3303  0010A0  CFDE F002          	movff	postinc2,___xxtofl@val
  3304  0010A4  CFDE F003          	movff	postinc2,___xxtofl@val+1
  3305  0010A8  CFDE F004          	movff	postinc2,___xxtofl@val+2
  3306  0010AC  CFDE F005          	movff	postinc2,___xxtofl@val+3
  3307  0010B0  0E00               	movlw	0
  3308  0010B2  ECDE  F010         	call	___xxtofl
  3309  0010B6  C002  F014         	movff	?___xxtofl,___fldiv@a
  3310  0010BA  C003  F015         	movff	?___xxtofl+1,___fldiv@a+1
  3311  0010BE  C004  F016         	movff	?___xxtofl+2,___fldiv@a+2
  3312  0010C2  C005  F017         	movff	?___xxtofl+3,___fldiv@a+3
  3313  0010C6  0E00               	movlw	0
  3314  0010C8  6E10               	movwf	___fldiv@b^0,c
  3315  0010CA  0E24               	movlw	36
  3316  0010CC  6E11               	movwf	(___fldiv@b+1)^0,c
  3317  0010CE  0EF4               	movlw	244
  3318  0010D0  6E12               	movwf	(___fldiv@b+2)^0,c
  3319  0010D2  0E4A               	movlw	74
  3320  0010D4  6E13               	movwf	(___fldiv@b+3)^0,c
  3321  0010D6  EC11  F00F         	call	___fldiv	;wreg free
  3322  0010DA  C010  F041         	movff	?___fldiv,_EUSART_Baud_Rate_Calculation$5494
  3323  0010DE  C011  F042         	movff	?___fldiv+1,_EUSART_Baud_Rate_Calculation$5494+1
  3324  0010E2  C012  F043         	movff	?___fldiv+2,_EUSART_Baud_Rate_Calculation$5494+2
  3325  0010E6  C013  F044         	movff	?___fldiv+3,_EUSART_Baud_Rate_Calculation$5494+3
  3326  0010EA                     
  3327                           ;MCAL_Layer/usart/hal_usart.c: 143:             Baud_Rate_Temp = ((8000000UL / (float)_e
      +                          usart->baudrate) / 64) - 1;
  3328  0010EA  0E00               	movlw	0
  3329  0010EC  6E14               	movwf	___fldiv@a^0,c
  3330  0010EE  0E00               	movlw	0
  3331  0010F0  6E15               	movwf	(___fldiv@a+1)^0,c
  3332  0010F2  0E80               	movlw	128
  3333  0010F4  6E16               	movwf	(___fldiv@a+2)^0,c
  3334  0010F6  0E42               	movlw	66
  3335  0010F8  6E17               	movwf	(___fldiv@a+3)^0,c
  3336  0010FA  C041  F010         	movff	_EUSART_Baud_Rate_Calculation$5494,___fldiv@b
  3337  0010FE  C042  F011         	movff	_EUSART_Baud_Rate_Calculation$5494+1,___fldiv@b+1
  3338  001102  C043  F012         	movff	_EUSART_Baud_Rate_Calculation$5494+2,___fldiv@b+2
  3339  001106  C044  F013         	movff	_EUSART_Baud_Rate_Calculation$5494+3,___fldiv@b+3
  3340  00110A  EC11  F00F         	call	___fldiv	;wreg free
  3341  00110E  C010  F029         	movff	?___fldiv,___fladd@b
  3342  001112  C011  F02A         	movff	?___fldiv+1,___fladd@b+1
  3343  001116  C012  F02B         	movff	?___fldiv+2,___fladd@b+2
  3344  00111A  C013  F02C         	movff	?___fldiv+3,___fladd@b+3
  3345  00111E  0E00               	movlw	0
  3346  001120  6E2D               	movwf	___fladd@a^0,c
  3347  001122  0E00               	movlw	0
  3348  001124  6E2E               	movwf	(___fladd@a+1)^0,c
  3349  001126  0E80               	movlw	128
  3350  001128  6E2F               	movwf	(___fladd@a+2)^0,c
  3351  00112A  0EBF               	movlw	191
  3352  00112C  6E30               	movwf	(___fladd@a+3)^0,c
  3353  00112E  ECAE  F00A         	call	___fladd	;wreg free
  3354  001132  C029  F03D         	movff	?___fladd,EUSART_Baud_Rate_Calculation@Baud_Rate_Temp
  3355  001136  C02A  F03E         	movff	?___fladd+1,EUSART_Baud_Rate_Calculation@Baud_Rate_Temp+1
  3356  00113A  C02B  F03F         	movff	?___fladd+2,EUSART_Baud_Rate_Calculation@Baud_Rate_Temp+2
  3357  00113E  C02C  F040         	movff	?___fladd+3,EUSART_Baud_Rate_Calculation@Baud_Rate_Temp+3
  3358                           
  3359                           ;MCAL_Layer/usart/hal_usart.c: 144:             break;
  3360  001142  EF8E  F00A         	goto	l6404
  3361  001146                     l1655:
  3362                           
  3363                           ;MCAL_Layer/usart/hal_usart.c: 146:             TXSTAbits.SYNC = 0;
  3364  001146  98AC               	bcf	172,4,c	;volatile
  3365                           
  3366                           ;MCAL_Layer/usart/hal_usart.c: 147:             TXSTAbits.BRGH = 1;
  3367  001148  84AC               	bsf	172,2,c	;volatile
  3368                           
  3369                           ;MCAL_Layer/usart/hal_usart.c: 148:             BAUDCONbits.BRG16 = 0;
  3370  00114A  96B8               	bcf	184,3,c	;volatile
  3371  00114C                     
  3372                           ;MCAL_Layer/usart/hal_usart.c: 149:             Baud_Rate_Temp = ((8000000UL / (float)_e
      +                          usart->baudrate) / 16) - 1;
  3373  00114C  C039  FFD9         	movff	EUSART_Baud_Rate_Calculation@_eusart,fsr2l
  3374  001150  C03A  FFDA         	movff	EUSART_Baud_Rate_Calculation@_eusart+1,fsr2h
  3375  001154  CFDE F002          	movff	postinc2,___xxtofl@val
  3376  001158  CFDE F003          	movff	postinc2,___xxtofl@val+1
  3377  00115C  CFDE F004          	movff	postinc2,___xxtofl@val+2
  3378  001160  CFDE F005          	movff	postinc2,___xxtofl@val+3
  3379  001164  0E00               	movlw	0
  3380  001166  ECDE  F010         	call	___xxtofl
  3381  00116A  C002  F014         	movff	?___xxtofl,___fldiv@a
  3382  00116E  C003  F015         	movff	?___xxtofl+1,___fldiv@a+1
  3383  001172  C004  F016         	movff	?___xxtofl+2,___fldiv@a+2
  3384  001176  C005  F017         	movff	?___xxtofl+3,___fldiv@a+3
  3385  00117A  0E00               	movlw	0
  3386  00117C  6E10               	movwf	___fldiv@b^0,c
  3387  00117E  0E24               	movlw	36
  3388  001180  6E11               	movwf	(___fldiv@b+1)^0,c
  3389  001182  0EF4               	movlw	244
  3390  001184  6E12               	movwf	(___fldiv@b+2)^0,c
  3391  001186  0E4A               	movlw	74
  3392  001188  6E13               	movwf	(___fldiv@b+3)^0,c
  3393  00118A  EC11  F00F         	call	___fldiv	;wreg free
  3394  00118E  C010  F041         	movff	?___fldiv,_EUSART_Baud_Rate_Calculation$5494
  3395  001192  C011  F042         	movff	?___fldiv+1,_EUSART_Baud_Rate_Calculation$5494+1
  3396  001196  C012  F043         	movff	?___fldiv+2,_EUSART_Baud_Rate_Calculation$5494+2
  3397  00119A  C013  F044         	movff	?___fldiv+3,_EUSART_Baud_Rate_Calculation$5494+3
  3398  00119E                     
  3399                           ;MCAL_Layer/usart/hal_usart.c: 149:             Baud_Rate_Temp = ((8000000UL / (float)_e
      +                          usart->baudrate) / 16) - 1;
  3400  00119E  0E00               	movlw	0
  3401  0011A0  6E14               	movwf	___fldiv@a^0,c
  3402  0011A2  0E00               	movlw	0
  3403  0011A4  6E15               	movwf	(___fldiv@a+1)^0,c
  3404  0011A6  0E80               	movlw	128
  3405  0011A8  6E16               	movwf	(___fldiv@a+2)^0,c
  3406  0011AA  0E41               	movlw	65
  3407  0011AC  6E17               	movwf	(___fldiv@a+3)^0,c
  3408  0011AE  C041  F010         	movff	_EUSART_Baud_Rate_Calculation$5494,___fldiv@b
  3409  0011B2  C042  F011         	movff	_EUSART_Baud_Rate_Calculation$5494+1,___fldiv@b+1
  3410  0011B6  C043  F012         	movff	_EUSART_Baud_Rate_Calculation$5494+2,___fldiv@b+2
  3411  0011BA  C044  F013         	movff	_EUSART_Baud_Rate_Calculation$5494+3,___fldiv@b+3
  3412  0011BE  EC11  F00F         	call	___fldiv	;wreg free
  3413  0011C2  C010  F029         	movff	?___fldiv,___fladd@b
  3414  0011C6  C011  F02A         	movff	?___fldiv+1,___fladd@b+1
  3415  0011CA  C012  F02B         	movff	?___fldiv+2,___fladd@b+2
  3416  0011CE  C013  F02C         	movff	?___fldiv+3,___fladd@b+3
  3417  0011D2  0E00               	movlw	0
  3418  0011D4  6E2D               	movwf	___fladd@a^0,c
  3419  0011D6  0E00               	movlw	0
  3420  0011D8  6E2E               	movwf	(___fladd@a+1)^0,c
  3421  0011DA  0E80               	movlw	128
  3422  0011DC  6E2F               	movwf	(___fladd@a+2)^0,c
  3423  0011DE  0EBF               	movlw	191
  3424  0011E0  6E30               	movwf	(___fladd@a+3)^0,c
  3425  0011E2  ECAE  F00A         	call	___fladd	;wreg free
  3426  0011E6  C029  F03D         	movff	?___fladd,EUSART_Baud_Rate_Calculation@Baud_Rate_Temp
  3427  0011EA  C02A  F03E         	movff	?___fladd+1,EUSART_Baud_Rate_Calculation@Baud_Rate_Temp+1
  3428  0011EE  C02B  F03F         	movff	?___fladd+2,EUSART_Baud_Rate_Calculation@Baud_Rate_Temp+2
  3429  0011F2  C02C  F040         	movff	?___fladd+3,EUSART_Baud_Rate_Calculation@Baud_Rate_Temp+3
  3430                           
  3431                           ;MCAL_Layer/usart/hal_usart.c: 150:             break;
  3432  0011F6  EF8E  F00A         	goto	l6404
  3433  0011FA                     l1656:
  3434                           
  3435                           ;MCAL_Layer/usart/hal_usart.c: 152:             TXSTAbits.SYNC = 0;
  3436  0011FA  98AC               	bcf	172,4,c	;volatile
  3437                           
  3438                           ;MCAL_Layer/usart/hal_usart.c: 153:             TXSTAbits.BRGH = 0;
  3439  0011FC  94AC               	bcf	172,2,c	;volatile
  3440                           
  3441                           ;MCAL_Layer/usart/hal_usart.c: 154:             BAUDCONbits.BRG16 = 1;
  3442  0011FE  86B8               	bsf	184,3,c	;volatile
  3443  001200                     
  3444                           ;MCAL_Layer/usart/hal_usart.c: 155:             Baud_Rate_Temp = ((8000000UL / (float)_e
      +                          usart->baudrate) / 16) - 1;
  3445  001200  C039  FFD9         	movff	EUSART_Baud_Rate_Calculation@_eusart,fsr2l
  3446  001204  C03A  FFDA         	movff	EUSART_Baud_Rate_Calculation@_eusart+1,fsr2h
  3447  001208  CFDE F002          	movff	postinc2,___xxtofl@val
  3448  00120C  CFDE F003          	movff	postinc2,___xxtofl@val+1
  3449  001210  CFDE F004          	movff	postinc2,___xxtofl@val+2
  3450  001214  CFDE F005          	movff	postinc2,___xxtofl@val+3
  3451  001218  0E00               	movlw	0
  3452  00121A  ECDE  F010         	call	___xxtofl
  3453  00121E  C002  F014         	movff	?___xxtofl,___fldiv@a
  3454  001222  C003  F015         	movff	?___xxtofl+1,___fldiv@a+1
  3455  001226  C004  F016         	movff	?___xxtofl+2,___fldiv@a+2
  3456  00122A  C005  F017         	movff	?___xxtofl+3,___fldiv@a+3
  3457  00122E  0E00               	movlw	0
  3458  001230  6E10               	movwf	___fldiv@b^0,c
  3459  001232  0E24               	movlw	36
  3460  001234  6E11               	movwf	(___fldiv@b+1)^0,c
  3461  001236  0EF4               	movlw	244
  3462  001238  6E12               	movwf	(___fldiv@b+2)^0,c
  3463  00123A  0E4A               	movlw	74
  3464  00123C  6E13               	movwf	(___fldiv@b+3)^0,c
  3465  00123E  EC11  F00F         	call	___fldiv	;wreg free
  3466  001242  C010  F041         	movff	?___fldiv,_EUSART_Baud_Rate_Calculation$5494
  3467  001246  C011  F042         	movff	?___fldiv+1,_EUSART_Baud_Rate_Calculation$5494+1
  3468  00124A  C012  F043         	movff	?___fldiv+2,_EUSART_Baud_Rate_Calculation$5494+2
  3469  00124E  C013  F044         	movff	?___fldiv+3,_EUSART_Baud_Rate_Calculation$5494+3
  3470  001252                     
  3471                           ;MCAL_Layer/usart/hal_usart.c: 155:             Baud_Rate_Temp = ((8000000UL / (float)_e
      +                          usart->baudrate) / 16) - 1;
  3472  001252  0E00               	movlw	0
  3473  001254  6E14               	movwf	___fldiv@a^0,c
  3474  001256  0E00               	movlw	0
  3475  001258  6E15               	movwf	(___fldiv@a+1)^0,c
  3476  00125A  0E80               	movlw	128
  3477  00125C  6E16               	movwf	(___fldiv@a+2)^0,c
  3478  00125E  0E41               	movlw	65
  3479  001260  6E17               	movwf	(___fldiv@a+3)^0,c
  3480  001262  C041  F010         	movff	_EUSART_Baud_Rate_Calculation$5494,___fldiv@b
  3481  001266  C042  F011         	movff	_EUSART_Baud_Rate_Calculation$5494+1,___fldiv@b+1
  3482  00126A  C043  F012         	movff	_EUSART_Baud_Rate_Calculation$5494+2,___fldiv@b+2
  3483  00126E  C044  F013         	movff	_EUSART_Baud_Rate_Calculation$5494+3,___fldiv@b+3
  3484  001272  EC11  F00F         	call	___fldiv	;wreg free
  3485  001276  C010  F029         	movff	?___fldiv,___fladd@b
  3486  00127A  C011  F02A         	movff	?___fldiv+1,___fladd@b+1
  3487  00127E  C012  F02B         	movff	?___fldiv+2,___fladd@b+2
  3488  001282  C013  F02C         	movff	?___fldiv+3,___fladd@b+3
  3489  001286  0E00               	movlw	0
  3490  001288  6E2D               	movwf	___fladd@a^0,c
  3491  00128A  0E00               	movlw	0
  3492  00128C  6E2E               	movwf	(___fladd@a+1)^0,c
  3493  00128E  0E80               	movlw	128
  3494  001290  6E2F               	movwf	(___fladd@a+2)^0,c
  3495  001292  0EBF               	movlw	191
  3496  001294  6E30               	movwf	(___fladd@a+3)^0,c
  3497  001296  ECAE  F00A         	call	___fladd	;wreg free
  3498  00129A  C029  F03D         	movff	?___fladd,EUSART_Baud_Rate_Calculation@Baud_Rate_Temp
  3499  00129E  C02A  F03E         	movff	?___fladd+1,EUSART_Baud_Rate_Calculation@Baud_Rate_Temp+1
  3500  0012A2  C02B  F03F         	movff	?___fladd+2,EUSART_Baud_Rate_Calculation@Baud_Rate_Temp+2
  3501  0012A6  C02C  F040         	movff	?___fladd+3,EUSART_Baud_Rate_Calculation@Baud_Rate_Temp+3
  3502                           
  3503                           ;MCAL_Layer/usart/hal_usart.c: 156:             break;
  3504  0012AA  EF8E  F00A         	goto	l6404
  3505  0012AE                     l1657:
  3506                           
  3507                           ;MCAL_Layer/usart/hal_usart.c: 158:             TXSTAbits.SYNC = 0;
  3508  0012AE  98AC               	bcf	172,4,c	;volatile
  3509                           
  3510                           ;MCAL_Layer/usart/hal_usart.c: 159:             TXSTAbits.BRGH = 1;
  3511  0012B0  84AC               	bsf	172,2,c	;volatile
  3512                           
  3513                           ;MCAL_Layer/usart/hal_usart.c: 160:             BAUDCONbits.BRG16 = 1;
  3514  0012B2  86B8               	bsf	184,3,c	;volatile
  3515  0012B4                     
  3516                           ;MCAL_Layer/usart/hal_usart.c: 161:             Baud_Rate_Temp = ((8000000UL / (float)_e
      +                          usart->baudrate) / 4) - 1;
  3517  0012B4  C039  FFD9         	movff	EUSART_Baud_Rate_Calculation@_eusart,fsr2l
  3518  0012B8  C03A  FFDA         	movff	EUSART_Baud_Rate_Calculation@_eusart+1,fsr2h
  3519  0012BC  CFDE F002          	movff	postinc2,___xxtofl@val
  3520  0012C0  CFDE F003          	movff	postinc2,___xxtofl@val+1
  3521  0012C4  CFDE F004          	movff	postinc2,___xxtofl@val+2
  3522  0012C8  CFDE F005          	movff	postinc2,___xxtofl@val+3
  3523  0012CC  0E00               	movlw	0
  3524  0012CE  ECDE  F010         	call	___xxtofl
  3525  0012D2  C002  F014         	movff	?___xxtofl,___fldiv@a
  3526  0012D6  C003  F015         	movff	?___xxtofl+1,___fldiv@a+1
  3527  0012DA  C004  F016         	movff	?___xxtofl+2,___fldiv@a+2
  3528  0012DE  C005  F017         	movff	?___xxtofl+3,___fldiv@a+3
  3529  0012E2  0E00               	movlw	0
  3530  0012E4  6E10               	movwf	___fldiv@b^0,c
  3531  0012E6  0E24               	movlw	36
  3532  0012E8  6E11               	movwf	(___fldiv@b+1)^0,c
  3533  0012EA  0EF4               	movlw	244
  3534  0012EC  6E12               	movwf	(___fldiv@b+2)^0,c
  3535  0012EE  0E4A               	movlw	74
  3536  0012F0  6E13               	movwf	(___fldiv@b+3)^0,c
  3537  0012F2  EC11  F00F         	call	___fldiv	;wreg free
  3538  0012F6  C010  F041         	movff	?___fldiv,_EUSART_Baud_Rate_Calculation$5494
  3539  0012FA  C011  F042         	movff	?___fldiv+1,_EUSART_Baud_Rate_Calculation$5494+1
  3540  0012FE  C012  F043         	movff	?___fldiv+2,_EUSART_Baud_Rate_Calculation$5494+2
  3541  001302  C013  F044         	movff	?___fldiv+3,_EUSART_Baud_Rate_Calculation$5494+3
  3542  001306                     
  3543                           ;MCAL_Layer/usart/hal_usart.c: 161:             Baud_Rate_Temp = ((8000000UL / (float)_e
      +                          usart->baudrate) / 4) - 1;
  3544  001306  0E00               	movlw	0
  3545  001308  6E14               	movwf	___fldiv@a^0,c
  3546  00130A  0E00               	movlw	0
  3547  00130C  6E15               	movwf	(___fldiv@a+1)^0,c
  3548  00130E  0E80               	movlw	128
  3549  001310  6E16               	movwf	(___fldiv@a+2)^0,c
  3550  001312  0E40               	movlw	64
  3551  001314  6E17               	movwf	(___fldiv@a+3)^0,c
  3552  001316  C041  F010         	movff	_EUSART_Baud_Rate_Calculation$5494,___fldiv@b
  3553  00131A  C042  F011         	movff	_EUSART_Baud_Rate_Calculation$5494+1,___fldiv@b+1
  3554  00131E  C043  F012         	movff	_EUSART_Baud_Rate_Calculation$5494+2,___fldiv@b+2
  3555  001322  C044  F013         	movff	_EUSART_Baud_Rate_Calculation$5494+3,___fldiv@b+3
  3556  001326  EC11  F00F         	call	___fldiv	;wreg free
  3557  00132A  C010  F029         	movff	?___fldiv,___fladd@b
  3558  00132E  C011  F02A         	movff	?___fldiv+1,___fladd@b+1
  3559  001332  C012  F02B         	movff	?___fldiv+2,___fladd@b+2
  3560  001336  C013  F02C         	movff	?___fldiv+3,___fladd@b+3
  3561  00133A  0E00               	movlw	0
  3562  00133C  6E2D               	movwf	___fladd@a^0,c
  3563  00133E  0E00               	movlw	0
  3564  001340  6E2E               	movwf	(___fladd@a+1)^0,c
  3565  001342  0E80               	movlw	128
  3566  001344  6E2F               	movwf	(___fladd@a+2)^0,c
  3567  001346  0EBF               	movlw	191
  3568  001348  6E30               	movwf	(___fladd@a+3)^0,c
  3569  00134A  ECAE  F00A         	call	___fladd	;wreg free
  3570  00134E  C029  F03D         	movff	?___fladd,EUSART_Baud_Rate_Calculation@Baud_Rate_Temp
  3571  001352  C02A  F03E         	movff	?___fladd+1,EUSART_Baud_Rate_Calculation@Baud_Rate_Temp+1
  3572  001356  C02B  F03F         	movff	?___fladd+2,EUSART_Baud_Rate_Calculation@Baud_Rate_Temp+2
  3573  00135A  C02C  F040         	movff	?___fladd+3,EUSART_Baud_Rate_Calculation@Baud_Rate_Temp+3
  3574                           
  3575                           ;MCAL_Layer/usart/hal_usart.c: 162:             break;
  3576  00135E  EF8E  F00A         	goto	l6404
  3577  001362                     l1658:
  3578                           
  3579                           ;MCAL_Layer/usart/hal_usart.c: 164:             TXSTAbits.SYNC = 1;
  3580  001362  88AC               	bsf	172,4,c	;volatile
  3581                           
  3582                           ;MCAL_Layer/usart/hal_usart.c: 165:             BAUDCONbits.BRG16 = 0;
  3583  001364  96B8               	bcf	184,3,c	;volatile
  3584  001366                     
  3585                           ;MCAL_Layer/usart/hal_usart.c: 166:             Baud_Rate_Temp = ((8000000UL / (float)_e
      +                          usart->baudrate) / 4) - 1;
  3586  001366  C039  FFD9         	movff	EUSART_Baud_Rate_Calculation@_eusart,fsr2l
  3587  00136A  C03A  FFDA         	movff	EUSART_Baud_Rate_Calculation@_eusart+1,fsr2h
  3588  00136E  CFDE F002          	movff	postinc2,___xxtofl@val
  3589  001372  CFDE F003          	movff	postinc2,___xxtofl@val+1
  3590  001376  CFDE F004          	movff	postinc2,___xxtofl@val+2
  3591  00137A  CFDE F005          	movff	postinc2,___xxtofl@val+3
  3592  00137E  0E00               	movlw	0
  3593  001380  ECDE  F010         	call	___xxtofl
  3594  001384  C002  F014         	movff	?___xxtofl,___fldiv@a
  3595  001388  C003  F015         	movff	?___xxtofl+1,___fldiv@a+1
  3596  00138C  C004  F016         	movff	?___xxtofl+2,___fldiv@a+2
  3597  001390  C005  F017         	movff	?___xxtofl+3,___fldiv@a+3
  3598  001394  0E00               	movlw	0
  3599  001396  6E10               	movwf	___fldiv@b^0,c
  3600  001398  0E24               	movlw	36
  3601  00139A  6E11               	movwf	(___fldiv@b+1)^0,c
  3602  00139C  0EF4               	movlw	244
  3603  00139E  6E12               	movwf	(___fldiv@b+2)^0,c
  3604  0013A0  0E4A               	movlw	74
  3605  0013A2  6E13               	movwf	(___fldiv@b+3)^0,c
  3606  0013A4  EC11  F00F         	call	___fldiv	;wreg free
  3607  0013A8  C010  F041         	movff	?___fldiv,_EUSART_Baud_Rate_Calculation$5494
  3608  0013AC  C011  F042         	movff	?___fldiv+1,_EUSART_Baud_Rate_Calculation$5494+1
  3609  0013B0  C012  F043         	movff	?___fldiv+2,_EUSART_Baud_Rate_Calculation$5494+2
  3610  0013B4  C013  F044         	movff	?___fldiv+3,_EUSART_Baud_Rate_Calculation$5494+3
  3611  0013B8                     
  3612                           ;MCAL_Layer/usart/hal_usart.c: 166:             Baud_Rate_Temp = ((8000000UL / (float)_e
      +                          usart->baudrate) / 4) - 1;
  3613  0013B8  0E00               	movlw	0
  3614  0013BA  6E14               	movwf	___fldiv@a^0,c
  3615  0013BC  0E00               	movlw	0
  3616  0013BE  6E15               	movwf	(___fldiv@a+1)^0,c
  3617  0013C0  0E80               	movlw	128
  3618  0013C2  6E16               	movwf	(___fldiv@a+2)^0,c
  3619  0013C4  0E40               	movlw	64
  3620  0013C6  6E17               	movwf	(___fldiv@a+3)^0,c
  3621  0013C8  C041  F010         	movff	_EUSART_Baud_Rate_Calculation$5494,___fldiv@b
  3622  0013CC  C042  F011         	movff	_EUSART_Baud_Rate_Calculation$5494+1,___fldiv@b+1
  3623  0013D0  C043  F012         	movff	_EUSART_Baud_Rate_Calculation$5494+2,___fldiv@b+2
  3624  0013D4  C044  F013         	movff	_EUSART_Baud_Rate_Calculation$5494+3,___fldiv@b+3
  3625  0013D8  EC11  F00F         	call	___fldiv	;wreg free
  3626  0013DC  C010  F029         	movff	?___fldiv,___fladd@b
  3627  0013E0  C011  F02A         	movff	?___fldiv+1,___fladd@b+1
  3628  0013E4  C012  F02B         	movff	?___fldiv+2,___fladd@b+2
  3629  0013E8  C013  F02C         	movff	?___fldiv+3,___fladd@b+3
  3630  0013EC  0E00               	movlw	0
  3631  0013EE  6E2D               	movwf	___fladd@a^0,c
  3632  0013F0  0E00               	movlw	0
  3633  0013F2  6E2E               	movwf	(___fladd@a+1)^0,c
  3634  0013F4  0E80               	movlw	128
  3635  0013F6  6E2F               	movwf	(___fladd@a+2)^0,c
  3636  0013F8  0EBF               	movlw	191
  3637  0013FA  6E30               	movwf	(___fladd@a+3)^0,c
  3638  0013FC  ECAE  F00A         	call	___fladd	;wreg free
  3639  001400  C029  F03D         	movff	?___fladd,EUSART_Baud_Rate_Calculation@Baud_Rate_Temp
  3640  001404  C02A  F03E         	movff	?___fladd+1,EUSART_Baud_Rate_Calculation@Baud_Rate_Temp+1
  3641  001408  C02B  F03F         	movff	?___fladd+2,EUSART_Baud_Rate_Calculation@Baud_Rate_Temp+2
  3642  00140C  C02C  F040         	movff	?___fladd+3,EUSART_Baud_Rate_Calculation@Baud_Rate_Temp+3
  3643                           
  3644                           ;MCAL_Layer/usart/hal_usart.c: 167:             break;
  3645  001410  EF8E  F00A         	goto	l6404
  3646  001414                     l1659:
  3647                           
  3648                           ;MCAL_Layer/usart/hal_usart.c: 169:             TXSTAbits.SYNC = 1;
  3649  001414  88AC               	bsf	172,4,c	;volatile
  3650                           
  3651                           ;MCAL_Layer/usart/hal_usart.c: 170:             BAUDCONbits.BRG16 = 1;
  3652  001416  86B8               	bsf	184,3,c	;volatile
  3653  001418                     
  3654                           ;MCAL_Layer/usart/hal_usart.c: 171:             Baud_Rate_Temp = ((8000000UL / (float)_e
      +                          usart->baudrate) / 4) - 1;
  3655  001418  C039  FFD9         	movff	EUSART_Baud_Rate_Calculation@_eusart,fsr2l
  3656  00141C  C03A  FFDA         	movff	EUSART_Baud_Rate_Calculation@_eusart+1,fsr2h
  3657  001420  CFDE F002          	movff	postinc2,___xxtofl@val
  3658  001424  CFDE F003          	movff	postinc2,___xxtofl@val+1
  3659  001428  CFDE F004          	movff	postinc2,___xxtofl@val+2
  3660  00142C  CFDE F005          	movff	postinc2,___xxtofl@val+3
  3661  001430  0E00               	movlw	0
  3662  001432  ECDE  F010         	call	___xxtofl
  3663  001436  C002  F014         	movff	?___xxtofl,___fldiv@a
  3664  00143A  C003  F015         	movff	?___xxtofl+1,___fldiv@a+1
  3665  00143E  C004  F016         	movff	?___xxtofl+2,___fldiv@a+2
  3666  001442  C005  F017         	movff	?___xxtofl+3,___fldiv@a+3
  3667  001446  0E00               	movlw	0
  3668  001448  6E10               	movwf	___fldiv@b^0,c
  3669  00144A  0E24               	movlw	36
  3670  00144C  6E11               	movwf	(___fldiv@b+1)^0,c
  3671  00144E  0EF4               	movlw	244
  3672  001450  6E12               	movwf	(___fldiv@b+2)^0,c
  3673  001452  0E4A               	movlw	74
  3674  001454  6E13               	movwf	(___fldiv@b+3)^0,c
  3675  001456  EC11  F00F         	call	___fldiv	;wreg free
  3676  00145A  C010  F041         	movff	?___fldiv,_EUSART_Baud_Rate_Calculation$5494
  3677  00145E  C011  F042         	movff	?___fldiv+1,_EUSART_Baud_Rate_Calculation$5494+1
  3678  001462  C012  F043         	movff	?___fldiv+2,_EUSART_Baud_Rate_Calculation$5494+2
  3679  001466  C013  F044         	movff	?___fldiv+3,_EUSART_Baud_Rate_Calculation$5494+3
  3680  00146A                     
  3681                           ;MCAL_Layer/usart/hal_usart.c: 171:             Baud_Rate_Temp = ((8000000UL / (float)_e
      +                          usart->baudrate) / 4) - 1;
  3682  00146A  0E00               	movlw	0
  3683  00146C  6E14               	movwf	___fldiv@a^0,c
  3684  00146E  0E00               	movlw	0
  3685  001470  6E15               	movwf	(___fldiv@a+1)^0,c
  3686  001472  0E80               	movlw	128
  3687  001474  6E16               	movwf	(___fldiv@a+2)^0,c
  3688  001476  0E40               	movlw	64
  3689  001478  6E17               	movwf	(___fldiv@a+3)^0,c
  3690  00147A  C041  F010         	movff	_EUSART_Baud_Rate_Calculation$5494,___fldiv@b
  3691  00147E  C042  F011         	movff	_EUSART_Baud_Rate_Calculation$5494+1,___fldiv@b+1
  3692  001482  C043  F012         	movff	_EUSART_Baud_Rate_Calculation$5494+2,___fldiv@b+2
  3693  001486  C044  F013         	movff	_EUSART_Baud_Rate_Calculation$5494+3,___fldiv@b+3
  3694  00148A  EC11  F00F         	call	___fldiv	;wreg free
  3695  00148E  C010  F029         	movff	?___fldiv,___fladd@b
  3696  001492  C011  F02A         	movff	?___fldiv+1,___fladd@b+1
  3697  001496  C012  F02B         	movff	?___fldiv+2,___fladd@b+2
  3698  00149A  C013  F02C         	movff	?___fldiv+3,___fladd@b+3
  3699  00149E  0E00               	movlw	0
  3700  0014A0  6E2D               	movwf	___fladd@a^0,c
  3701  0014A2  0E00               	movlw	0
  3702  0014A4  6E2E               	movwf	(___fladd@a+1)^0,c
  3703  0014A6  0E80               	movlw	128
  3704  0014A8  6E2F               	movwf	(___fladd@a+2)^0,c
  3705  0014AA  0EBF               	movlw	191
  3706  0014AC  6E30               	movwf	(___fladd@a+3)^0,c
  3707  0014AE  ECAE  F00A         	call	___fladd	;wreg free
  3708  0014B2  C029  F03D         	movff	?___fladd,EUSART_Baud_Rate_Calculation@Baud_Rate_Temp
  3709  0014B6  C02A  F03E         	movff	?___fladd+1,EUSART_Baud_Rate_Calculation@Baud_Rate_Temp+1
  3710  0014BA  C02B  F03F         	movff	?___fladd+2,EUSART_Baud_Rate_Calculation@Baud_Rate_Temp+2
  3711  0014BE  C02C  F040         	movff	?___fladd+3,EUSART_Baud_Rate_Calculation@Baud_Rate_Temp+3
  3712                           
  3713                           ;MCAL_Layer/usart/hal_usart.c: 172:             break;
  3714  0014C2  EF8E  F00A         	goto	l6404
  3715  0014C6                     l6402:
  3716  0014C6  EE20 F004          	lfsr	2,4
  3717  0014CA  5039               	movf	EUSART_Baud_Rate_Calculation@_eusart^0,w,c
  3718  0014CC  26D9               	addwf	fsr2l,f,c
  3719  0014CE  503A               	movf	(EUSART_Baud_Rate_Calculation@_eusart+1)^0,w,c
  3720  0014D0  22DA               	addwfc	fsr2h,f,c
  3721  0014D2  50DF               	movf	indf2,w,c
  3722  0014D4  6E3B               	movwf	??_EUSART_Baud_Rate_Calculation^0,c
  3723  0014D6  6A3C               	clrf	(??_EUSART_Baud_Rate_Calculation+1)^0,c
  3724                           
  3725                           ; Switch on 2 bytes has been partitioned into a top level switch of size 1, and 1 sub-sw
      +                          itches
  3726                           ; Switch size 1, requested type "simple"
  3727                           ; Number of cases is 1, Range of values is 0 to 0
  3728                           ; switch strategies available:
  3729                           ; Name         Instructions Cycles
  3730                           ; simple_byte            4     3 (average)
  3731                           ;	Chosen strategy is simple_byte
  3732  0014D8  503C               	movf	(??_EUSART_Baud_Rate_Calculation+1)^0,w,c
  3733  0014DA  0A00               	xorlw	0	; case 0
  3734  0014DC  B4D8               	btfsc	status,2,c
  3735  0014DE  EF73  F00A         	goto	l8348
  3736  0014E2  EF8E  F00A         	goto	l6404
  3737  0014E6                     l8348:
  3738                           
  3739                           ; Switch size 1, requested type "simple"
  3740                           ; Number of cases is 6, Range of values is 0 to 5
  3741                           ; switch strategies available:
  3742                           ; Name         Instructions Cycles
  3743                           ; simple_byte           19    10 (average)
  3744                           ;	Chosen strategy is simple_byte
  3745  0014E6  503B               	movf	??_EUSART_Baud_Rate_Calculation^0,w,c
  3746  0014E8  0A00               	xorlw	0	; case 0
  3747  0014EA  B4D8               	btfsc	status,2,c
  3748  0014EC  EF49  F008         	goto	l1653
  3749  0014F0  0A01               	xorlw	1	; case 1
  3750  0014F2  B4D8               	btfsc	status,2,c
  3751  0014F4  EFA3  F008         	goto	l1655
  3752  0014F8  0A03               	xorlw	3	; case 2
  3753  0014FA  B4D8               	btfsc	status,2,c
  3754  0014FC  EFFD  F008         	goto	l1656
  3755  001500  0A01               	xorlw	1	; case 3
  3756  001502  B4D8               	btfsc	status,2,c
  3757  001504  EF57  F009         	goto	l1657
  3758  001508  0A07               	xorlw	7	; case 4
  3759  00150A  B4D8               	btfsc	status,2,c
  3760  00150C  EFB1  F009         	goto	l1658
  3761  001510  0A01               	xorlw	1	; case 5
  3762  001512  B4D8               	btfsc	status,2,c
  3763  001514  EF0A  F00A         	goto	l1659
  3764  001518  EF8E  F00A         	goto	l6404
  3765  00151C                     l6404:
  3766                           
  3767                           ;MCAL_Layer/usart/hal_usart.c: 175:     SPBRG = (uint8)((uint32)Baud_Rate_Temp);
  3768  00151C  C03D  F002         	movff	EUSART_Baud_Rate_Calculation@Baud_Rate_Temp,___fltol@f1
  3769  001520  C03E  F003         	movff	EUSART_Baud_Rate_Calculation@Baud_Rate_Temp+1,___fltol@f1+1
  3770  001524  C03F  F004         	movff	EUSART_Baud_Rate_Calculation@Baud_Rate_Temp+2,___fltol@f1+2
  3771  001528  C040  F005         	movff	EUSART_Baud_Rate_Calculation@Baud_Rate_Temp+3,___fltol@f1+3
  3772  00152C  EC50  F016         	call	___fltol	;wreg free
  3773  001530  5002               	movf	?___fltol^0,w,c
  3774  001532  6EAF               	movwf	175,c	;volatile
  3775                           
  3776                           ;MCAL_Layer/usart/hal_usart.c: 176:     SPBRGH = (uint8)(((uint32)Baud_Rate_Temp) >> 8);
  3777  001534  C03D  F002         	movff	EUSART_Baud_Rate_Calculation@Baud_Rate_Temp,___fltol@f1
  3778  001538  C03E  F003         	movff	EUSART_Baud_Rate_Calculation@Baud_Rate_Temp+1,___fltol@f1+1
  3779  00153C  C03F  F004         	movff	EUSART_Baud_Rate_Calculation@Baud_Rate_Temp+2,___fltol@f1+2
  3780  001540  C040  F005         	movff	EUSART_Baud_Rate_Calculation@Baud_Rate_Temp+3,___fltol@f1+3
  3781  001544  EC50  F016         	call	___fltol	;wreg free
  3782  001548  C003  F002         	movff	?___fltol+1,?___fltol
  3783  00154C  C004  F003         	movff	?___fltol+2,?___fltol+1
  3784  001550  C005  F004         	movff	?___fltol+3,?___fltol+2
  3785  001554  6A05               	clrf	(?___fltol+3)^0,c
  3786  001556  5002               	movf	?___fltol^0,w,c
  3787  001558  6EB0               	movwf	176,c	;volatile
  3788  00155A  0012               	return		;funcret
  3789  00155C                     __end_of_EUSART_Baud_Rate_Calculation:
  3790                           	callstack 0
  3791                           
  3792 ;; *************** function ___xxtofl *****************
  3793 ;; Defined at:
  3794 ;;		line 10 in file "C:\Program Files\Microchip\xc8\v2.36\pic\sources\c99\common\xxtofl.c"
  3795 ;; Parameters:    Size  Location     Type
  3796 ;;  sign            1    wreg     unsigned char 
  3797 ;;  val             4    1[COMRAM] long 
  3798 ;; Auto vars:     Size  Location     Type
  3799 ;;  sign            1    9[COMRAM] unsigned char 
  3800 ;;  arg             4   11[COMRAM] unsigned long 
  3801 ;;  exp             1   10[COMRAM] unsigned char 
  3802 ;; Return value:  Size  Location     Type
  3803 ;;                  4    1[COMRAM] unsigned char 
  3804 ;; Registers used:
  3805 ;;		wreg, status,2, status,0
  3806 ;; Tracked objects:
  3807 ;;		On entry : 0/0
  3808 ;;		On exit  : 0/0
  3809 ;;		Unchanged: 0/0
  3810 ;; Data sizes:     COMRAM   BANK0   BANK1   BANK2   BANK3   BANK4   BANK5   BANK6   BANK7   BANK8   BANK9  BANK10  BANK1
      +1  BANK12  BANK13  BANK14  BANK15
  3811 ;;      Params:         4       0       0       0       0       0       0       0       0       0       0       0       
      +0       0       0       0       0
  3812 ;;      Locals:         6       0       0       0       0       0       0       0       0       0       0       0       
      +0       0       0       0       0
  3813 ;;      Temps:          4       0       0       0       0       0       0       0       0       0       0       0       
      +0       0       0       0       0
  3814 ;;      Totals:        14       0       0       0       0       0       0       0       0       0       0       0       
      +0       0       0       0       0
  3815 ;;Total ram usage:       14 bytes
  3816 ;; Hardware stack levels used: 1
  3817 ;; Hardware stack levels required when called: 2
  3818 ;; This function calls:
  3819 ;;		Nothing
  3820 ;; This function is called by:
  3821 ;;		_EUSART_Baud_Rate_Calculation
  3822 ;;		_Ultrasonic_Calculate_Distance
  3823 ;;		_CCP_PWM_Set_Duty
  3824 ;;		_CCP_PWM_Mode_Config
  3825 ;;		_I2C_Master_Mode_Clock_Configurations
  3826 ;; This function uses a non-reentrant model
  3827 ;;
  3828                           
  3829                           	psect	text15
  3830  0021BC                     __ptext15:
  3831                           	callstack 0
  3832  0021BC                     ___xxtofl:
  3833                           	callstack 25
  3834                           
  3835                           ;incstack = 0
  3836                           ;___xxtofl@sign stored from wreg
  3837  0021BC  6E0A               	movwf	___xxtofl@sign^0,c
  3838  0021BE  500A               	movf	___xxtofl@sign^0,w,c
  3839  0021C0  B4D8               	btfsc	status,2,c
  3840  0021C2  EFE5  F010         	goto	u5101
  3841  0021C6  EFE7  F010         	goto	u5100
  3842  0021CA                     u5101:
  3843  0021CA  EF09  F011         	goto	l2465
  3844  0021CE                     u5100:
  3845  0021CE  BE05               	btfsc	(___xxtofl@val+3)^0,7,c
  3846  0021D0  EFEE  F010         	goto	u5110
  3847  0021D4  EFEC  F010         	goto	u5111
  3848  0021D8                     u5111:
  3849  0021D8  EF09  F011         	goto	l2465
  3850  0021DC                     u5110:
  3851  0021DC  C002  F006         	movff	___xxtofl@val,??___xxtofl
  3852  0021E0  C003  F007         	movff	___xxtofl@val+1,??___xxtofl+1
  3853  0021E4  C004  F008         	movff	___xxtofl@val+2,??___xxtofl+2
  3854  0021E8  C005  F009         	movff	___xxtofl@val+3,??___xxtofl+3
  3855  0021EC  1E06               	comf	??___xxtofl^0,f,c
  3856  0021EE  1E07               	comf	(??___xxtofl+1)^0,f,c
  3857  0021F0  1E08               	comf	(??___xxtofl+2)^0,f,c
  3858  0021F2  1E09               	comf	(??___xxtofl+3)^0,f,c
  3859  0021F4  2A06               	incf	??___xxtofl^0,f,c
  3860  0021F6  0E00               	movlw	0
  3861  0021F8  2207               	addwfc	(??___xxtofl+1)^0,f,c
  3862  0021FA  2208               	addwfc	(??___xxtofl+2)^0,f,c
  3863  0021FC  2209               	addwfc	(??___xxtofl+3)^0,f,c
  3864  0021FE  C006  F00C         	movff	??___xxtofl,___xxtofl@arg
  3865  002202  C007  F00D         	movff	??___xxtofl+1,___xxtofl@arg+1
  3866  002206  C008  F00E         	movff	??___xxtofl+2,___xxtofl@arg+2
  3867  00220A  C009  F00F         	movff	??___xxtofl+3,___xxtofl@arg+3
  3868  00220E  EF11  F011         	goto	l6272
  3869  002212                     l2465:
  3870  002212  C002  F00C         	movff	___xxtofl@val,___xxtofl@arg
  3871  002216  C003  F00D         	movff	___xxtofl@val+1,___xxtofl@arg+1
  3872  00221A  C004  F00E         	movff	___xxtofl@val+2,___xxtofl@arg+2
  3873  00221E  C005  F00F         	movff	___xxtofl@val+3,___xxtofl@arg+3
  3874  002222                     l6272:
  3875  002222  5002               	movf	___xxtofl@val^0,w,c
  3876  002224  1003               	iorwf	(___xxtofl@val+1)^0,w,c
  3877  002226  1004               	iorwf	(___xxtofl@val+2)^0,w,c
  3878  002228  1005               	iorwf	(___xxtofl@val+3)^0,w,c
  3879  00222A  A4D8               	btfss	status,2,c
  3880  00222C  EF1A  F011         	goto	u5121
  3881  002230  EF1C  F011         	goto	u5120
  3882  002234                     u5121:
  3883  002234  EF26  F011         	goto	l6278
  3884  002238                     u5120:
  3885  002238  0E00               	movlw	0
  3886  00223A  6E02               	movwf	?___xxtofl^0,c
  3887  00223C  0E00               	movlw	0
  3888  00223E  6E03               	movwf	(?___xxtofl+1)^0,c
  3889  002240  0E00               	movlw	0
  3890  002242  6E04               	movwf	(?___xxtofl+2)^0,c
  3891  002244  0E00               	movlw	0
  3892  002246  6E05               	movwf	(?___xxtofl+3)^0,c
  3893  002248  EFB7  F011         	goto	l2468
  3894  00224C                     l6278:
  3895  00224C  0E96               	movlw	150
  3896  00224E  6E0B               	movwf	___xxtofl@exp^0,c
  3897  002250  EF30  F011         	goto	l6282
  3898  002254                     l6280:
  3899  002254  2A0B               	incf	___xxtofl@exp^0,f,c
  3900  002256  90D8               	bcf	status,0,c
  3901  002258  320F               	rrcf	(___xxtofl@arg+3)^0,f,c
  3902  00225A  320E               	rrcf	(___xxtofl@arg+2)^0,f,c
  3903  00225C  320D               	rrcf	(___xxtofl@arg+1)^0,f,c
  3904  00225E  320C               	rrcf	___xxtofl@arg^0,f,c
  3905  002260                     l6282:
  3906  002260  0E00               	movlw	0
  3907  002262  140C               	andwf	___xxtofl@arg^0,w,c
  3908  002264  6E06               	movwf	??___xxtofl^0,c
  3909  002266  0E00               	movlw	0
  3910  002268  140D               	andwf	(___xxtofl@arg+1)^0,w,c
  3911  00226A  6E07               	movwf	(??___xxtofl+1)^0,c
  3912  00226C  0E00               	movlw	0
  3913  00226E  140E               	andwf	(___xxtofl@arg+2)^0,w,c
  3914  002270  6E08               	movwf	(??___xxtofl+2)^0,c
  3915  002272  0EFE               	movlw	254
  3916  002274  140F               	andwf	(___xxtofl@arg+3)^0,w,c
  3917  002276  6E09               	movwf	(??___xxtofl+3)^0,c
  3918  002278  5006               	movf	??___xxtofl^0,w,c
  3919  00227A  1007               	iorwf	(??___xxtofl+1)^0,w,c
  3920  00227C  1008               	iorwf	(??___xxtofl+2)^0,w,c
  3921  00227E  1009               	iorwf	(??___xxtofl+3)^0,w,c
  3922  002280  A4D8               	btfss	status,2,c
  3923  002282  EF45  F011         	goto	u5131
  3924  002286  EF47  F011         	goto	u5130
  3925  00228A                     u5131:
  3926  00228A  EF2A  F011         	goto	l6280
  3927  00228E                     u5130:
  3928  00228E  EF55  F011         	goto	l2472
  3929  002292                     l6284:
  3930  002292  2A0B               	incf	___xxtofl@exp^0,f,c
  3931  002294  0E01               	movlw	1
  3932  002296  260C               	addwf	___xxtofl@arg^0,f,c
  3933  002298  0E00               	movlw	0
  3934  00229A  220D               	addwfc	(___xxtofl@arg+1)^0,f,c
  3935  00229C  220E               	addwfc	(___xxtofl@arg+2)^0,f,c
  3936  00229E  220F               	addwfc	(___xxtofl@arg+3)^0,f,c
  3937  0022A0  90D8               	bcf	status,0,c
  3938  0022A2  320F               	rrcf	(___xxtofl@arg+3)^0,f,c
  3939  0022A4  320E               	rrcf	(___xxtofl@arg+2)^0,f,c
  3940  0022A6  320D               	rrcf	(___xxtofl@arg+1)^0,f,c
  3941  0022A8  320C               	rrcf	___xxtofl@arg^0,f,c
  3942  0022AA                     l2472:
  3943  0022AA  0E00               	movlw	0
  3944  0022AC  140C               	andwf	___xxtofl@arg^0,w,c
  3945  0022AE  6E06               	movwf	??___xxtofl^0,c
  3946  0022B0  0E00               	movlw	0
  3947  0022B2  140D               	andwf	(___xxtofl@arg+1)^0,w,c
  3948  0022B4  6E07               	movwf	(??___xxtofl+1)^0,c
  3949  0022B6  0E00               	movlw	0
  3950  0022B8  140E               	andwf	(___xxtofl@arg+2)^0,w,c
  3951  0022BA  6E08               	movwf	(??___xxtofl+2)^0,c
  3952  0022BC  0EFF               	movlw	255
  3953  0022BE  140F               	andwf	(___xxtofl@arg+3)^0,w,c
  3954  0022C0  6E09               	movwf	(??___xxtofl+3)^0,c
  3955  0022C2  5006               	movf	??___xxtofl^0,w,c
  3956  0022C4  1007               	iorwf	(??___xxtofl+1)^0,w,c
  3957  0022C6  1008               	iorwf	(??___xxtofl+2)^0,w,c
  3958  0022C8  1009               	iorwf	(??___xxtofl+3)^0,w,c
  3959  0022CA  A4D8               	btfss	status,2,c
  3960  0022CC  EF6A  F011         	goto	u5141
  3961  0022D0  EF6C  F011         	goto	u5140
  3962  0022D4                     u5141:
  3963  0022D4  EF49  F011         	goto	l6284
  3964  0022D8                     u5140:
  3965  0022D8  EF74  F011         	goto	l6292
  3966  0022DC                     l6290:
  3967  0022DC  060B               	decf	___xxtofl@exp^0,f,c
  3968  0022DE  90D8               	bcf	status,0,c
  3969  0022E0  360C               	rlcf	___xxtofl@arg^0,f,c
  3970  0022E2  360D               	rlcf	(___xxtofl@arg+1)^0,f,c
  3971  0022E4  360E               	rlcf	(___xxtofl@arg+2)^0,f,c
  3972  0022E6  360F               	rlcf	(___xxtofl@arg+3)^0,f,c
  3973  0022E8                     l6292:
  3974  0022E8  BE0E               	btfsc	(___xxtofl@arg+2)^0,7,c
  3975  0022EA  EF79  F011         	goto	u5151
  3976  0022EE  EF7B  F011         	goto	u5150
  3977  0022F2                     u5151:
  3978  0022F2  EF83  F011         	goto	l2479
  3979  0022F6                     u5150:
  3980  0022F6  0E02               	movlw	2
  3981  0022F8  600B               	cpfslt	___xxtofl@exp^0,c
  3982  0022FA  EF81  F011         	goto	u5161
  3983  0022FE  EF83  F011         	goto	u5160
  3984  002302                     u5161:
  3985  002302  EF6E  F011         	goto	l6290
  3986  002306                     u5160:
  3987  002306                     l2479:
  3988  002306  B00B               	btfsc	___xxtofl@exp^0,0,c
  3989  002308  EF88  F011         	goto	u5171
  3990  00230C  EF8A  F011         	goto	u5170
  3991  002310                     u5171:
  3992  002310  EF8B  F011         	goto	l6298
  3993  002314                     u5170:
  3994  002314  9E0E               	bcf	(___xxtofl@arg+2)^0,7,c
  3995  002316                     l6298:
  3996  002316  90D8               	bcf	status,0,c
  3997  002318  320B               	rrcf	___xxtofl@exp^0,f,c
  3998  00231A  C00B  F006         	movff	___xxtofl@exp,??___xxtofl
  3999  00231E  6A07               	clrf	(??___xxtofl+1)^0,c
  4000  002320  6A08               	clrf	(??___xxtofl+2)^0,c
  4001  002322  6A09               	clrf	(??___xxtofl+3)^0,c
  4002  002324  C006  F009         	movff	??___xxtofl,??___xxtofl+3
  4003  002328  6A08               	clrf	(??___xxtofl+2)^0,c
  4004  00232A  6A07               	clrf	(??___xxtofl+1)^0,c
  4005  00232C  6A06               	clrf	??___xxtofl^0,c
  4006  00232E  5006               	movf	??___xxtofl^0,w,c
  4007  002330  120C               	iorwf	___xxtofl@arg^0,f,c
  4008  002332  5007               	movf	(??___xxtofl+1)^0,w,c
  4009  002334  120D               	iorwf	(___xxtofl@arg+1)^0,f,c
  4010  002336  5008               	movf	(??___xxtofl+2)^0,w,c
  4011  002338  120E               	iorwf	(___xxtofl@arg+2)^0,f,c
  4012  00233A  5009               	movf	(??___xxtofl+3)^0,w,c
  4013  00233C  120F               	iorwf	(___xxtofl@arg+3)^0,f,c
  4014  00233E  500A               	movf	___xxtofl@sign^0,w,c
  4015  002340  B4D8               	btfsc	status,2,c
  4016  002342  EFA5  F011         	goto	u5181
  4017  002346  EFA7  F011         	goto	u5180
  4018  00234A                     u5181:
  4019  00234A  EFAF  F011         	goto	l6308
  4020  00234E                     u5180:
  4021  00234E  BE05               	btfsc	(___xxtofl@val+3)^0,7,c
  4022  002350  EFAE  F011         	goto	u5190
  4023  002354  EFAC  F011         	goto	u5191
  4024  002358                     u5191:
  4025  002358  EFAF  F011         	goto	l6308
  4026  00235C                     u5190:
  4027  00235C  8E0F               	bsf	(___xxtofl@arg+3)^0,7,c
  4028  00235E                     l6308:
  4029  00235E  C00C  F002         	movff	___xxtofl@arg,?___xxtofl
  4030  002362  C00D  F003         	movff	___xxtofl@arg+1,?___xxtofl+1
  4031  002366  C00E  F004         	movff	___xxtofl@arg+2,?___xxtofl+2
  4032  00236A  C00F  F005         	movff	___xxtofl@arg+3,?___xxtofl+3
  4033  00236E                     l2468:
  4034  00236E  0012               	return		;funcret
  4035  002370                     __end_of___xxtofl:
  4036                           	callstack 0
  4037                           
  4038 ;; *************** function ___fltol *****************
  4039 ;; Defined at:
  4040 ;;		line 43 in file "C:\Program Files\Microchip\xc8\v2.36\pic\sources\c99\common\fltol.c"
  4041 ;; Parameters:    Size  Location     Type
  4042 ;;  f1              4    1[COMRAM] unsigned char 
  4043 ;; Auto vars:     Size  Location     Type
  4044 ;;  exp1            1   10[COMRAM] unsigned char 
  4045 ;;  sign1           1    9[COMRAM] unsigned char 
  4046 ;; Return value:  Size  Location     Type
  4047 ;;                  4    1[COMRAM] long 
  4048 ;; Registers used:
  4049 ;;		wreg, status,2, status,0
  4050 ;; Tracked objects:
  4051 ;;		On entry : 0/0
  4052 ;;		On exit  : 0/0
  4053 ;;		Unchanged: 0/0
  4054 ;; Data sizes:     COMRAM   BANK0   BANK1   BANK2   BANK3   BANK4   BANK5   BANK6   BANK7   BANK8   BANK9  BANK10  BANK1
      +1  BANK12  BANK13  BANK14  BANK15
  4055 ;;      Params:         4       0       0       0       0       0       0       0       0       0       0       0       
      +0       0       0       0       0
  4056 ;;      Locals:         2       0       0       0       0       0       0       0       0       0       0       0       
      +0       0       0       0       0
  4057 ;;      Temps:          4       0       0       0       0       0       0       0       0       0       0       0       
      +0       0       0       0       0
  4058 ;;      Totals:        10       0       0       0       0       0       0       0       0       0       0       0       
      +0       0       0       0       0
  4059 ;;Total ram usage:       10 bytes
  4060 ;; Hardware stack levels used: 1
  4061 ;; Hardware stack levels required when called: 2
  4062 ;; This function calls:
  4063 ;;		Nothing
  4064 ;; This function is called by:
  4065 ;;		_EUSART_Baud_Rate_Calculation
  4066 ;;		_Ultrasonic_Calculate_Distance
  4067 ;;		_CCP_PWM_Set_Duty
  4068 ;;		_CCP_PWM_Mode_Config
  4069 ;;		_I2C_Master_Mode_Clock_Configurations
  4070 ;; This function uses a non-reentrant model
  4071 ;;
  4072                           
  4073                           	psect	text16
  4074  002CA0                     __ptext16:
  4075                           	callstack 0
  4076  002CA0                     ___fltol:
  4077                           	callstack 25
  4078  002CA0  3404               	rlcf	(___fltol@f1+2)^0,w,c
  4079  002CA2  3405               	rlcf	(___fltol@f1+3)^0,w,c
  4080  002CA4  6E0B               	movwf	___fltol@exp1^0,c
  4081  002CA6  500B               	movf	___fltol@exp1^0,w,c
  4082  002CA8  A4D8               	btfss	status,2,c
  4083  002CAA  EF59  F016         	goto	u5031
  4084  002CAE  EF5B  F016         	goto	u5030
  4085  002CB2                     u5031:
  4086  002CB2  EF65  F016         	goto	l6228
  4087  002CB6                     u5030:
  4088  002CB6                     l6224:
  4089  002CB6  0E00               	movlw	0
  4090  002CB8  6E02               	movwf	?___fltol^0,c
  4091  002CBA  0E00               	movlw	0
  4092  002CBC  6E03               	movwf	(?___fltol+1)^0,c
  4093  002CBE  0E00               	movlw	0
  4094  002CC0  6E04               	movwf	(?___fltol+2)^0,c
  4095  002CC2  0E00               	movlw	0
  4096  002CC4  6E05               	movwf	(?___fltol+3)^0,c
  4097  002CC6  EFD2  F016         	goto	l2107
  4098  002CCA                     l6228:
  4099  002CCA  C002  F006         	movff	___fltol@f1,??___fltol
  4100  002CCE  C003  F007         	movff	___fltol@f1+1,??___fltol+1
  4101  002CD2  C004  F008         	movff	___fltol@f1+2,??___fltol+2
  4102  002CD6  C005  F009         	movff	___fltol@f1+3,??___fltol+3
  4103  002CDA  0E20               	movlw	32
  4104  002CDC  EF75  F016         	goto	u5040
  4105  002CE0                     u5045:
  4106  002CE0  90D8               	bcf	status,0,c
  4107  002CE2  3209               	rrcf	(??___fltol+3)^0,f,c
  4108  002CE4  3208               	rrcf	(??___fltol+2)^0,f,c
  4109  002CE6  3207               	rrcf	(??___fltol+1)^0,f,c
  4110  002CE8  3206               	rrcf	??___fltol^0,f,c
  4111  002CEA                     u5040:
  4112  002CEA  2EE8               	decfsz	wreg,f,c
  4113  002CEC  EF70  F016         	goto	u5045
  4114  002CF0  5006               	movf	??___fltol^0,w,c
  4115  002CF2  6E0A               	movwf	___fltol@sign1^0,c
  4116  002CF4  8E04               	bsf	(___fltol@f1+2)^0,7,c
  4117  002CF6  0EFF               	movlw	255
  4118  002CF8  1602               	andwf	___fltol@f1^0,f,c
  4119  002CFA  0EFF               	movlw	255
  4120  002CFC  1603               	andwf	(___fltol@f1+1)^0,f,c
  4121  002CFE  0EFF               	movlw	255
  4122  002D00  1604               	andwf	(___fltol@f1+2)^0,f,c
  4123  002D02  0E00               	movlw	0
  4124  002D04  1605               	andwf	(___fltol@f1+3)^0,f,c
  4125  002D06  0E96               	movlw	150
  4126  002D08  5E0B               	subwf	___fltol@exp1^0,f,c
  4127  002D0A  BE0B               	btfsc	___fltol@exp1^0,7,c
  4128  002D0C  EF8C  F016         	goto	u5050
  4129  002D10  EF8A  F016         	goto	u5051
  4130  002D14                     u5051:
  4131  002D14  EFA2  F016         	goto	l6248
  4132  002D18                     u5050:
  4133  002D18  500B               	movf	___fltol@exp1^0,w,c
  4134  002D1A  0A80               	xorlw	128
  4135  002D1C  0F97               	addlw	151
  4136  002D1E  B0D8               	btfsc	status,0,c
  4137  002D20  EF94  F016         	goto	u5061
  4138  002D24  EF96  F016         	goto	u5060
  4139  002D28                     u5061:
  4140  002D28  EF98  F016         	goto	l6244
  4141  002D2C                     u5060:
  4142  002D2C  EF5B  F016         	goto	l6224
  4143  002D30                     l6244:
  4144  002D30  90D8               	bcf	status,0,c
  4145  002D32  3205               	rrcf	(___fltol@f1+3)^0,f,c
  4146  002D34  3204               	rrcf	(___fltol@f1+2)^0,f,c
  4147  002D36  3203               	rrcf	(___fltol@f1+1)^0,f,c
  4148  002D38  3202               	rrcf	___fltol@f1^0,f,c
  4149  002D3A  3E0B               	incfsz	___fltol@exp1^0,f,c
  4150  002D3C  EF98  F016         	goto	l6244
  4151  002D40  EFBA  F016         	goto	l6258
  4152  002D44                     l6248:
  4153  002D44  0E1F               	movlw	31
  4154  002D46  640B               	cpfsgt	___fltol@exp1^0,c
  4155  002D48  EFA8  F016         	goto	u5071
  4156  002D4C  EFAA  F016         	goto	u5070
  4157  002D50                     u5071:
  4158  002D50  EFB2  F016         	goto	l6256
  4159  002D54                     u5070:
  4160  002D54  EF5B  F016         	goto	l6224
  4161  002D58                     l6254:
  4162  002D58  90D8               	bcf	status,0,c
  4163  002D5A  3602               	rlcf	___fltol@f1^0,f,c
  4164  002D5C  3603               	rlcf	(___fltol@f1+1)^0,f,c
  4165  002D5E  3604               	rlcf	(___fltol@f1+2)^0,f,c
  4166  002D60  3605               	rlcf	(___fltol@f1+3)^0,f,c
  4167  002D62  060B               	decf	___fltol@exp1^0,f,c
  4168  002D64                     l6256:
  4169  002D64  500B               	movf	___fltol@exp1^0,w,c
  4170  002D66  A4D8               	btfss	status,2,c
  4171  002D68  EFB8  F016         	goto	u5081
  4172  002D6C  EFBA  F016         	goto	u5080
  4173  002D70                     u5081:
  4174  002D70  EFAC  F016         	goto	l6254
  4175  002D74                     u5080:
  4176  002D74                     l6258:
  4177  002D74  500A               	movf	___fltol@sign1^0,w,c
  4178  002D76  B4D8               	btfsc	status,2,c
  4179  002D78  EFC0  F016         	goto	u5091
  4180  002D7C  EFC2  F016         	goto	u5090
  4181  002D80                     u5091:
  4182  002D80  EFCA  F016         	goto	l6262
  4183  002D84                     u5090:
  4184  002D84  1E05               	comf	(___fltol@f1+3)^0,f,c
  4185  002D86  1E04               	comf	(___fltol@f1+2)^0,f,c
  4186  002D88  1E03               	comf	(___fltol@f1+1)^0,f,c
  4187  002D8A  6C02               	negf	___fltol@f1^0,c
  4188  002D8C  0E00               	movlw	0
  4189  002D8E  2203               	addwfc	(___fltol@f1+1)^0,f,c
  4190  002D90  2204               	addwfc	(___fltol@f1+2)^0,f,c
  4191  002D92  2205               	addwfc	(___fltol@f1+3)^0,f,c
  4192  002D94                     l6262:
  4193  002D94  C002  F002         	movff	___fltol@f1,?___fltol
  4194  002D98  C003  F003         	movff	___fltol@f1+1,?___fltol+1
  4195  002D9C  C004  F004         	movff	___fltol@f1+2,?___fltol+2
  4196  002DA0  C005  F005         	movff	___fltol@f1+3,?___fltol+3
  4197  002DA4                     l2107:
  4198  002DA4  0012               	return		;funcret
  4199  002DA6                     __end_of___fltol:
  4200                           	callstack 0
  4201                           
  4202 ;; *************** function ___fldiv *****************
  4203 ;; Defined at:
  4204 ;;		line 11 in file "C:\Program Files\Microchip\xc8\v2.36\pic\sources\c99\common\sprcdiv.c"
  4205 ;; Parameters:    Size  Location     Type
  4206 ;;  b               4   15[COMRAM] long 
  4207 ;;  a               4   19[COMRAM] long 
  4208 ;; Auto vars:     Size  Location     Type
  4209 ;;  grs             4   34[COMRAM] unsigned long 
  4210 ;;  rem             4   27[COMRAM] unsigned long 
  4211 ;;  new_exp         2   32[COMRAM] short 
  4212 ;;  aexp            1   39[COMRAM] unsigned char 
  4213 ;;  bexp            1   38[COMRAM] unsigned char 
  4214 ;;  sign            1   31[COMRAM] unsigned char 
  4215 ;; Return value:  Size  Location     Type
  4216 ;;                  4   15[COMRAM] unsigned char 
  4217 ;; Registers used:
  4218 ;;		wreg, status,2, status,0
  4219 ;; Tracked objects:
  4220 ;;		On entry : 0/0
  4221 ;;		On exit  : 0/0
  4222 ;;		Unchanged: 0/0
  4223 ;; Data sizes:     COMRAM   BANK0   BANK1   BANK2   BANK3   BANK4   BANK5   BANK6   BANK7   BANK8   BANK9  BANK10  BANK1
      +1  BANK12  BANK13  BANK14  BANK15
  4224 ;;      Params:         8       0       0       0       0       0       0       0       0       0       0       0       
      +0       0       0       0       0
  4225 ;;      Locals:        13       0       0       0       0       0       0       0       0       0       0       0       
      +0       0       0       0       0
  4226 ;;      Temps:          4       0       0       0       0       0       0       0       0       0       0       0       
      +0       0       0       0       0
  4227 ;;      Totals:        25       0       0       0       0       0       0       0       0       0       0       0       
      +0       0       0       0       0
  4228 ;;Total ram usage:       25 bytes
  4229 ;; Hardware stack levels used: 1
  4230 ;; Hardware stack levels required when called: 2
  4231 ;; This function calls:
  4232 ;;		Nothing
  4233 ;; This function is called by:
  4234 ;;		_EUSART_Baud_Rate_Calculation
  4235 ;;		_Ultrasonic_Calculate_Distance
  4236 ;;		_CCP_PWM_Set_Duty
  4237 ;;		_CCP_PWM_Mode_Config
  4238 ;;		_I2C_Master_Mode_Clock_Configurations
  4239 ;; This function uses a non-reentrant model
  4240 ;;
  4241                           
  4242                           	psect	text17
  4243  001E22                     __ptext17:
  4244                           	callstack 0
  4245  001E22                     ___fldiv:
  4246                           	callstack 25
  4247  001E22  5013               	movf	(___fldiv@b+3)^0,w,c
  4248  001E24  0B80               	andlw	128
  4249  001E26  6E20               	movwf	___fldiv@sign^0,c
  4250  001E28  5013               	movf	(___fldiv@b+3)^0,w,c
  4251  001E2A  2413               	addwf	(___fldiv@b+3)^0,w,c
  4252  001E2C  6E27               	movwf	___fldiv@bexp^0,c
  4253  001E2E  AE12               	btfss	(___fldiv@b+2)^0,7,c
  4254  001E30  EF1C  F00F         	goto	u4801
  4255  001E34  EF1E  F00F         	goto	u4800
  4256  001E38                     u4801:
  4257  001E38  EF1F  F00F         	goto	l6090
  4258  001E3C                     u4800:
  4259  001E3C  8027               	bsf	___fldiv@bexp^0,0,c
  4260  001E3E                     l6090:
  4261  001E3E  5027               	movf	___fldiv@bexp^0,w,c
  4262  001E40  B4D8               	btfsc	status,2,c
  4263  001E42  EF25  F00F         	goto	u4811
  4264  001E46  EF27  F00F         	goto	u4810
  4265  001E4A                     u4811:
  4266  001E4A  EF3C  F00F         	goto	l6100
  4267  001E4E                     u4810:
  4268  001E4E  2827               	incf	___fldiv@bexp^0,w,c
  4269  001E50  A4D8               	btfss	status,2,c
  4270  001E52  EF2D  F00F         	goto	u4821
  4271  001E56  EF2F  F00F         	goto	u4820
  4272  001E5A                     u4821:
  4273  001E5A  EF37  F00F         	goto	l6096
  4274  001E5E                     u4820:
  4275  001E5E  0E00               	movlw	0
  4276  001E60  6E10               	movwf	___fldiv@b^0,c
  4277  001E62  0E00               	movlw	0
  4278  001E64  6E11               	movwf	(___fldiv@b+1)^0,c
  4279  001E66  0E00               	movlw	0
  4280  001E68  6E12               	movwf	(___fldiv@b+2)^0,c
  4281  001E6A  0E00               	movlw	0
  4282  001E6C  6E13               	movwf	(___fldiv@b+3)^0,c
  4283  001E6E                     l6096:
  4284  001E6E  8E12               	bsf	(___fldiv@b+2)^0,7,c
  4285  001E70  0E00               	movlw	0
  4286  001E72  6E13               	movwf	(___fldiv@b+3)^0,c
  4287  001E74  EF44  F00F         	goto	l6102
  4288  001E78                     l6100:
  4289  001E78  0E00               	movlw	0
  4290  001E7A  6E10               	movwf	___fldiv@b^0,c
  4291  001E7C  0E00               	movlw	0
  4292  001E7E  6E11               	movwf	(___fldiv@b+1)^0,c
  4293  001E80  0E00               	movlw	0
  4294  001E82  6E12               	movwf	(___fldiv@b+2)^0,c
  4295  001E84  0E00               	movlw	0
  4296  001E86  6E13               	movwf	(___fldiv@b+3)^0,c
  4297  001E88                     l6102:
  4298  001E88  5017               	movf	(___fldiv@a+3)^0,w,c
  4299  001E8A  0B80               	andlw	128
  4300  001E8C  1A20               	xorwf	___fldiv@sign^0,f,c
  4301  001E8E  5017               	movf	(___fldiv@a+3)^0,w,c
  4302  001E90  2417               	addwf	(___fldiv@a+3)^0,w,c
  4303  001E92  6E28               	movwf	___fldiv@aexp^0,c
  4304  001E94  AE16               	btfss	(___fldiv@a+2)^0,7,c
  4305  001E96  EF4F  F00F         	goto	u4831
  4306  001E9A  EF51  F00F         	goto	u4830
  4307  001E9E                     u4831:
  4308  001E9E  EF52  F00F         	goto	l6110
  4309  001EA2                     u4830:
  4310  001EA2  8028               	bsf	___fldiv@aexp^0,0,c
  4311  001EA4                     l6110:
  4312  001EA4  5028               	movf	___fldiv@aexp^0,w,c
  4313  001EA6  B4D8               	btfsc	status,2,c
  4314  001EA8  EF58  F00F         	goto	u4841
  4315  001EAC  EF5A  F00F         	goto	u4840
  4316  001EB0                     u4841:
  4317  001EB0  EF6F  F00F         	goto	l6120
  4318  001EB4                     u4840:
  4319  001EB4  2828               	incf	___fldiv@aexp^0,w,c
  4320  001EB6  A4D8               	btfss	status,2,c
  4321  001EB8  EF60  F00F         	goto	u4851
  4322  001EBC  EF62  F00F         	goto	u4850
  4323  001EC0                     u4851:
  4324  001EC0  EF6A  F00F         	goto	l6116
  4325  001EC4                     u4850:
  4326  001EC4  0E00               	movlw	0
  4327  001EC6  6E14               	movwf	___fldiv@a^0,c
  4328  001EC8  0E00               	movlw	0
  4329  001ECA  6E15               	movwf	(___fldiv@a+1)^0,c
  4330  001ECC  0E00               	movlw	0
  4331  001ECE  6E16               	movwf	(___fldiv@a+2)^0,c
  4332  001ED0  0E00               	movlw	0
  4333  001ED2  6E17               	movwf	(___fldiv@a+3)^0,c
  4334  001ED4                     l6116:
  4335  001ED4  8E16               	bsf	(___fldiv@a+2)^0,7,c
  4336  001ED6  0E00               	movlw	0
  4337  001ED8  6E17               	movwf	(___fldiv@a+3)^0,c
  4338  001EDA  EF77  F00F         	goto	l6122
  4339  001EDE                     l6120:
  4340  001EDE  0E00               	movlw	0
  4341  001EE0  6E14               	movwf	___fldiv@a^0,c
  4342  001EE2  0E00               	movlw	0
  4343  001EE4  6E15               	movwf	(___fldiv@a+1)^0,c
  4344  001EE6  0E00               	movlw	0
  4345  001EE8  6E16               	movwf	(___fldiv@a+2)^0,c
  4346  001EEA  0E00               	movlw	0
  4347  001EEC  6E17               	movwf	(___fldiv@a+3)^0,c
  4348  001EEE                     l6122:
  4349  001EEE  5014               	movf	___fldiv@a^0,w,c
  4350  001EF0  1015               	iorwf	(___fldiv@a+1)^0,w,c
  4351  001EF2  1016               	iorwf	(___fldiv@a+2)^0,w,c
  4352  001EF4  1017               	iorwf	(___fldiv@a+3)^0,w,c
  4353  001EF6  A4D8               	btfss	status,2,c
  4354  001EF8  EF80  F00F         	goto	u4861
  4355  001EFC  EF82  F00F         	goto	u4860
  4356  001F00                     u4861:
  4357  001F00  EF9A  F00F         	goto	l6134
  4358  001F04                     u4860:
  4359  001F04  0E00               	movlw	0
  4360  001F06  6E10               	movwf	___fldiv@b^0,c
  4361  001F08  0E00               	movlw	0
  4362  001F0A  6E11               	movwf	(___fldiv@b+1)^0,c
  4363  001F0C  0E00               	movlw	0
  4364  001F0E  6E12               	movwf	(___fldiv@b+2)^0,c
  4365  001F10  0E00               	movlw	0
  4366  001F12  6E13               	movwf	(___fldiv@b+3)^0,c
  4367  001F14  0E80               	movlw	128
  4368  001F16  1212               	iorwf	(___fldiv@b+2)^0,f,c
  4369  001F18  0E7F               	movlw	127
  4370  001F1A  1213               	iorwf	(___fldiv@b+3)^0,f,c
  4371  001F1C                     l6128:
  4372  001F1C  5020               	movf	___fldiv@sign^0,w,c
  4373  001F1E  1213               	iorwf	(___fldiv@b+3)^0,f,c
  4374  001F20  C010  F010         	movff	___fldiv@b,?___fldiv
  4375  001F24  C011  F011         	movff	___fldiv@b+1,?___fldiv+1
  4376  001F28  C012  F012         	movff	___fldiv@b+2,?___fldiv+2
  4377  001F2C  C013  F013         	movff	___fldiv@b+3,?___fldiv+3
  4378  001F30  EFDD  F010         	goto	l2392
  4379  001F34                     l6134:
  4380  001F34  5027               	movf	___fldiv@bexp^0,w,c
  4381  001F36  A4D8               	btfss	status,2,c
  4382  001F38  EFA0  F00F         	goto	u4871
  4383  001F3C  EFA2  F00F         	goto	u4870
  4384  001F40                     u4871:
  4385  001F40  EFAC  F00F         	goto	l6142
  4386  001F44                     u4870:
  4387  001F44  0E00               	movlw	0
  4388  001F46  6E10               	movwf	?___fldiv^0,c
  4389  001F48  0E00               	movlw	0
  4390  001F4A  6E11               	movwf	(?___fldiv+1)^0,c
  4391  001F4C  0E00               	movlw	0
  4392  001F4E  6E12               	movwf	(?___fldiv+2)^0,c
  4393  001F50  0E00               	movlw	0
  4394  001F52  6E13               	movwf	(?___fldiv+3)^0,c
  4395  001F54  EFDD  F010         	goto	l2392
  4396  001F58                     l6142:
  4397  001F58  5028               	movf	___fldiv@aexp^0,w,c
  4398  001F5A  C027  F018         	movff	___fldiv@bexp,??___fldiv
  4399  001F5E  6A19               	clrf	(??___fldiv+1)^0,c
  4400  001F60  5E18               	subwf	??___fldiv^0,f,c
  4401  001F62  0E00               	movlw	0
  4402  001F64  5A19               	subwfb	(??___fldiv+1)^0,f,c
  4403  001F66  0E7F               	movlw	127
  4404  001F68  2418               	addwf	??___fldiv^0,w,c
  4405  001F6A  6E21               	movwf	___fldiv@new_exp^0,c
  4406  001F6C  0E00               	movlw	0
  4407  001F6E  2019               	addwfc	(??___fldiv+1)^0,w,c
  4408  001F70  6E22               	movwf	(___fldiv@new_exp+1)^0,c
  4409  001F72  C010  F01C         	movff	___fldiv@b,___fldiv@rem
  4410  001F76  C011  F01D         	movff	___fldiv@b+1,___fldiv@rem+1
  4411  001F7A  C012  F01E         	movff	___fldiv@b+2,___fldiv@rem+2
  4412  001F7E  C013  F01F         	movff	___fldiv@b+3,___fldiv@rem+3
  4413  001F82  0E00               	movlw	0
  4414  001F84  6E10               	movwf	___fldiv@b^0,c
  4415  001F86  0E00               	movlw	0
  4416  001F88  6E11               	movwf	(___fldiv@b+1)^0,c
  4417  001F8A  0E00               	movlw	0
  4418  001F8C  6E12               	movwf	(___fldiv@b+2)^0,c
  4419  001F8E  0E00               	movlw	0
  4420  001F90  6E13               	movwf	(___fldiv@b+3)^0,c
  4421  001F92  0E00               	movlw	0
  4422  001F94  6E23               	movwf	___fldiv@grs^0,c
  4423  001F96  0E00               	movlw	0
  4424  001F98  6E24               	movwf	(___fldiv@grs+1)^0,c
  4425  001F9A  0E00               	movlw	0
  4426  001F9C  6E25               	movwf	(___fldiv@grs+2)^0,c
  4427  001F9E  0E00               	movlw	0
  4428  001FA0  6E26               	movwf	(___fldiv@grs+3)^0,c
  4429  001FA2  0E00               	movlw	0
  4430  001FA4  6E28               	movwf	___fldiv@aexp^0,c
  4431  001FA6  EF0D  F010         	goto	l2394
  4432  001FAA                     l6152:
  4433  001FAA  5028               	movf	___fldiv@aexp^0,w,c
  4434  001FAC  B4D8               	btfsc	status,2,c
  4435  001FAE  EFDB  F00F         	goto	u4881
  4436  001FB2  EFDD  F00F         	goto	u4880
  4437  001FB6                     u4881:
  4438  001FB6  EFF4  F00F         	goto	l6160
  4439  001FBA                     u4880:
  4440  001FBA  90D8               	bcf	status,0,c
  4441  001FBC  361C               	rlcf	___fldiv@rem^0,f,c
  4442  001FBE  361D               	rlcf	(___fldiv@rem+1)^0,f,c
  4443  001FC0  361E               	rlcf	(___fldiv@rem+2)^0,f,c
  4444  001FC2  361F               	rlcf	(___fldiv@rem+3)^0,f,c
  4445  001FC4  90D8               	bcf	status,0,c
  4446  001FC6  3610               	rlcf	___fldiv@b^0,f,c
  4447  001FC8  3611               	rlcf	(___fldiv@b+1)^0,f,c
  4448  001FCA  3612               	rlcf	(___fldiv@b+2)^0,f,c
  4449  001FCC  3613               	rlcf	(___fldiv@b+3)^0,f,c
  4450  001FCE  AE26               	btfss	(___fldiv@grs+3)^0,7,c
  4451  001FD0  EFEC  F00F         	goto	u4891
  4452  001FD4  EFEE  F00F         	goto	u4890
  4453  001FD8                     u4891:
  4454  001FD8  EFEF  F00F         	goto	l2397
  4455  001FDC                     u4890:
  4456  001FDC  8010               	bsf	___fldiv@b^0,0,c
  4457  001FDE                     l2397:
  4458  001FDE  90D8               	bcf	status,0,c
  4459  001FE0  3623               	rlcf	___fldiv@grs^0,f,c
  4460  001FE2  3624               	rlcf	(___fldiv@grs+1)^0,f,c
  4461  001FE4  3625               	rlcf	(___fldiv@grs+2)^0,f,c
  4462  001FE6  3626               	rlcf	(___fldiv@grs+3)^0,f,c
  4463  001FE8                     l6160:
  4464  001FE8  5014               	movf	___fldiv@a^0,w,c
  4465  001FEA  5C1C               	subwf	___fldiv@rem^0,w,c
  4466  001FEC  5015               	movf	(___fldiv@a+1)^0,w,c
  4467  001FEE  581D               	subwfb	(___fldiv@rem+1)^0,w,c
  4468  001FF0  5016               	movf	(___fldiv@a+2)^0,w,c
  4469  001FF2  581E               	subwfb	(___fldiv@rem+2)^0,w,c
  4470  001FF4  5017               	movf	(___fldiv@a+3)^0,w,c
  4471  001FF6  581F               	subwfb	(___fldiv@rem+3)^0,w,c
  4472  001FF8  A0D8               	btfss	status,0,c
  4473  001FFA  EF01  F010         	goto	u4901
  4474  001FFE  EF03  F010         	goto	u4900
  4475  002002                     u4901:
  4476  002002  EF0C  F010         	goto	l6166
  4477  002006                     u4900:
  4478  002006  8C26               	bsf	(___fldiv@grs+3)^0,6,c
  4479  002008  5014               	movf	___fldiv@a^0,w,c
  4480  00200A  5E1C               	subwf	___fldiv@rem^0,f,c
  4481  00200C  5015               	movf	(___fldiv@a+1)^0,w,c
  4482  00200E  5A1D               	subwfb	(___fldiv@rem+1)^0,f,c
  4483  002010  5016               	movf	(___fldiv@a+2)^0,w,c
  4484  002012  5A1E               	subwfb	(___fldiv@rem+2)^0,f,c
  4485  002014  5017               	movf	(___fldiv@a+3)^0,w,c
  4486  002016  5A1F               	subwfb	(___fldiv@rem+3)^0,f,c
  4487  002018                     l6166:
  4488  002018  2A28               	incf	___fldiv@aexp^0,f,c
  4489  00201A                     l2394:
  4490  00201A  0E19               	movlw	25
  4491  00201C  6428               	cpfsgt	___fldiv@aexp^0,c
  4492  00201E  EF13  F010         	goto	u4911
  4493  002022  EF15  F010         	goto	u4910
  4494  002026                     u4911:
  4495  002026  EFD5  F00F         	goto	l6152
  4496  00202A                     u4910:
  4497  00202A  501C               	movf	___fldiv@rem^0,w,c
  4498  00202C  101D               	iorwf	(___fldiv@rem+1)^0,w,c
  4499  00202E  101E               	iorwf	(___fldiv@rem+2)^0,w,c
  4500  002030  101F               	iorwf	(___fldiv@rem+3)^0,w,c
  4501  002032  B4D8               	btfsc	status,2,c
  4502  002034  EF1E  F010         	goto	u4921
  4503  002038  EF20  F010         	goto	u4920
  4504  00203C                     u4921:
  4505  00203C  EF38  F010         	goto	l6178
  4506  002040                     u4920:
  4507  002040  8023               	bsf	___fldiv@grs^0,0,c
  4508  002042  EF38  F010         	goto	l6178
  4509  002046                     l6172:
  4510  002046  90D8               	bcf	status,0,c
  4511  002048  3610               	rlcf	___fldiv@b^0,f,c
  4512  00204A  3611               	rlcf	(___fldiv@b+1)^0,f,c
  4513  00204C  3612               	rlcf	(___fldiv@b+2)^0,f,c
  4514  00204E  3613               	rlcf	(___fldiv@b+3)^0,f,c
  4515  002050  AE26               	btfss	(___fldiv@grs+3)^0,7,c
  4516  002052  EF2D  F010         	goto	u4931
  4517  002056  EF2F  F010         	goto	u4930
  4518  00205A                     u4931:
  4519  00205A  EF30  F010         	goto	l2403
  4520  00205E                     u4930:
  4521  00205E  8010               	bsf	___fldiv@b^0,0,c
  4522  002060                     l2403:
  4523  002060  90D8               	bcf	status,0,c
  4524  002062  3623               	rlcf	___fldiv@grs^0,f,c
  4525  002064  3624               	rlcf	(___fldiv@grs+1)^0,f,c
  4526  002066  3625               	rlcf	(___fldiv@grs+2)^0,f,c
  4527  002068  3626               	rlcf	(___fldiv@grs+3)^0,f,c
  4528  00206A  0621               	decf	___fldiv@new_exp^0,f,c
  4529  00206C  A0D8               	btfss	status,0,c
  4530  00206E  0622               	decf	(___fldiv@new_exp+1)^0,f,c
  4531  002070                     l6178:
  4532  002070  AE12               	btfss	(___fldiv@b+2)^0,7,c
  4533  002072  EF3D  F010         	goto	u4941
  4534  002076  EF3F  F010         	goto	u4940
  4535  00207A                     u4941:
  4536  00207A  EF23  F010         	goto	l6172
  4537  00207E                     u4940:
  4538  00207E  0E00               	movlw	0
  4539  002080  6E28               	movwf	___fldiv@aexp^0,c
  4540  002082  AE26               	btfss	(___fldiv@grs+3)^0,7,c
  4541  002084  EF46  F010         	goto	u4951
  4542  002088  EF48  F010         	goto	u4950
  4543  00208C                     u4951:
  4544  00208C  EF6C  F010         	goto	l2405
  4545  002090                     u4950:
  4546  002090  0EFF               	movlw	255
  4547  002092  1423               	andwf	___fldiv@grs^0,w,c
  4548  002094  6E18               	movwf	??___fldiv^0,c
  4549  002096  0EFF               	movlw	255
  4550  002098  1424               	andwf	(___fldiv@grs+1)^0,w,c
  4551  00209A  6E19               	movwf	(??___fldiv+1)^0,c
  4552  00209C  0EFF               	movlw	255
  4553  00209E  1425               	andwf	(___fldiv@grs+2)^0,w,c
  4554  0020A0  6E1A               	movwf	(??___fldiv+2)^0,c
  4555  0020A2  0E7F               	movlw	127
  4556  0020A4  1426               	andwf	(___fldiv@grs+3)^0,w,c
  4557  0020A6  6E1B               	movwf	(??___fldiv+3)^0,c
  4558  0020A8  5018               	movf	??___fldiv^0,w,c
  4559  0020AA  1019               	iorwf	(??___fldiv+1)^0,w,c
  4560  0020AC  101A               	iorwf	(??___fldiv+2)^0,w,c
  4561  0020AE  101B               	iorwf	(??___fldiv+3)^0,w,c
  4562  0020B0  B4D8               	btfsc	status,2,c
  4563  0020B2  EF5D  F010         	goto	u4961
  4564  0020B6  EF5F  F010         	goto	u4960
  4565  0020BA                     u4961:
  4566  0020BA  EF63  F010         	goto	l2406
  4567  0020BE                     u4960:
  4568  0020BE                     l6186:
  4569  0020BE  0E01               	movlw	1
  4570  0020C0  6E28               	movwf	___fldiv@aexp^0,c
  4571  0020C2  EF6C  F010         	goto	l2405
  4572  0020C6                     l2406:
  4573  0020C6  A010               	btfss	___fldiv@b^0,0,c
  4574  0020C8  EF68  F010         	goto	u4971
  4575  0020CC  EF6A  F010         	goto	u4970
  4576  0020D0                     u4971:
  4577  0020D0  EF6C  F010         	goto	l2405
  4578  0020D4                     u4970:
  4579  0020D4  EF5F  F010         	goto	l6186
  4580  0020D8                     l2405:
  4581  0020D8  5028               	movf	___fldiv@aexp^0,w,c
  4582  0020DA  B4D8               	btfsc	status,2,c
  4583  0020DC  EF72  F010         	goto	u4981
  4584  0020E0  EF74  F010         	goto	u4980
  4585  0020E4                     u4981:
  4586  0020E4  EF98  F010         	goto	l6198
  4587  0020E8                     u4980:
  4588  0020E8  0E01               	movlw	1
  4589  0020EA  2610               	addwf	___fldiv@b^0,f,c
  4590  0020EC  0E00               	movlw	0
  4591  0020EE  2211               	addwfc	(___fldiv@b+1)^0,f,c
  4592  0020F0  2212               	addwfc	(___fldiv@b+2)^0,f,c
  4593  0020F2  2213               	addwfc	(___fldiv@b+3)^0,f,c
  4594  0020F4  A013               	btfss	(___fldiv@b+3)^0,0,c
  4595  0020F6  EF7F  F010         	goto	u4991
  4596  0020FA  EF81  F010         	goto	u4990
  4597  0020FE                     u4991:
  4598  0020FE  EF98  F010         	goto	l6198
  4599  002102                     u4990:
  4600  002102  C010  F018         	movff	___fldiv@b,??___fldiv
  4601  002106  C011  F019         	movff	___fldiv@b+1,??___fldiv+1
  4602  00210A  C012  F01A         	movff	___fldiv@b+2,??___fldiv+2
  4603  00210E  C013  F01B         	movff	___fldiv@b+3,??___fldiv+3
  4604  002112  341B               	rlcf	(??___fldiv+3)^0,w,c
  4605  002114  321B               	rrcf	(??___fldiv+3)^0,f,c
  4606  002116  321A               	rrcf	(??___fldiv+2)^0,f,c
  4607  002118  3219               	rrcf	(??___fldiv+1)^0,f,c
  4608  00211A  3218               	rrcf	??___fldiv^0,f,c
  4609  00211C  C018  F010         	movff	??___fldiv,___fldiv@b
  4610  002120  C019  F011         	movff	??___fldiv+1,___fldiv@b+1
  4611  002124  C01A  F012         	movff	??___fldiv+2,___fldiv@b+2
  4612  002128  C01B  F013         	movff	??___fldiv+3,___fldiv@b+3
  4613  00212C  4A21               	infsnz	___fldiv@new_exp^0,f,c
  4614  00212E  2A22               	incf	(___fldiv@new_exp+1)^0,f,c
  4615  002130                     l6198:
  4616  002130  BE22               	btfsc	(___fldiv@new_exp+1)^0,7,c
  4617  002132  EFA3  F010         	goto	u5001
  4618  002136  5022               	movf	(___fldiv@new_exp+1)^0,w,c
  4619  002138  E108               	bnz	u5000
  4620  00213A  2821               	incf	___fldiv@new_exp^0,w,c
  4621  00213C  A0D8               	btfss	status,0,c
  4622  00213E  EFA3  F010         	goto	u5001
  4623  002142  EFA5  F010         	goto	u5000
  4624  002146                     u5001:
  4625  002146  EFB0  F010         	goto	l6202
  4626  00214A                     u5000:
  4627  00214A  0E00               	movlw	0
  4628  00214C  6E22               	movwf	(___fldiv@new_exp+1)^0,c
  4629  00214E  6821               	setf	___fldiv@new_exp^0,c
  4630  002150  0E00               	movlw	0
  4631  002152  6E10               	movwf	___fldiv@b^0,c
  4632  002154  0E00               	movlw	0
  4633  002156  6E11               	movwf	(___fldiv@b+1)^0,c
  4634  002158  0E00               	movlw	0
  4635  00215A  6E12               	movwf	(___fldiv@b+2)^0,c
  4636  00215C  0E00               	movlw	0
  4637  00215E  6E13               	movwf	(___fldiv@b+3)^0,c
  4638  002160                     l6202:
  4639  002160  BE22               	btfsc	(___fldiv@new_exp+1)^0,7,c
  4640  002162  EFBD  F010         	goto	u5010
  4641  002166  5022               	movf	(___fldiv@new_exp+1)^0,w,c
  4642  002168  E106               	bnz	u5011
  4643  00216A  0421               	decf	___fldiv@new_exp^0,w,c
  4644  00216C  B0D8               	btfsc	status,0,c
  4645  00216E  EFBB  F010         	goto	u5011
  4646  002172  EFBD  F010         	goto	u5010
  4647  002176                     u5011:
  4648  002176  EFCB  F010         	goto	l6206
  4649  00217A                     u5010:
  4650  00217A  0E00               	movlw	0
  4651  00217C  6E22               	movwf	(___fldiv@new_exp+1)^0,c
  4652  00217E  0E00               	movlw	0
  4653  002180  6E21               	movwf	___fldiv@new_exp^0,c
  4654  002182  0E00               	movlw	0
  4655  002184  6E10               	movwf	___fldiv@b^0,c
  4656  002186  0E00               	movlw	0
  4657  002188  6E11               	movwf	(___fldiv@b+1)^0,c
  4658  00218A  0E00               	movlw	0
  4659  00218C  6E12               	movwf	(___fldiv@b+2)^0,c
  4660  00218E  0E00               	movlw	0
  4661  002190  6E13               	movwf	(___fldiv@b+3)^0,c
  4662  002192  0E00               	movlw	0
  4663  002194  6E20               	movwf	___fldiv@sign^0,c
  4664  002196                     l6206:
  4665  002196  C021  F027         	movff	___fldiv@new_exp,___fldiv@bexp
  4666  00219A  A027               	btfss	___fldiv@bexp^0,0,c
  4667  00219C  EFD2  F010         	goto	u5021
  4668  0021A0  EFD4  F010         	goto	u5020
  4669  0021A4                     u5021:
  4670  0021A4  EFD7  F010         	goto	l6212
  4671  0021A8                     u5020:
  4672  0021A8  8E12               	bsf	(___fldiv@b+2)^0,7,c
  4673  0021AA  EFD8  F010         	goto	l6214
  4674  0021AE                     l6212:
  4675  0021AE  9E12               	bcf	(___fldiv@b+2)^0,7,c
  4676  0021B0                     l6214:
  4677  0021B0  90D8               	bcf	status,0,c
  4678  0021B2  3027               	rrcf	___fldiv@bexp^0,w,c
  4679  0021B4  6E13               	movwf	(___fldiv@b+3)^0,c
  4680  0021B6  EF8E  F00F         	goto	l6128
  4681  0021BA                     l2392:
  4682  0021BA  0012               	return		;funcret
  4683  0021BC                     __end_of___fldiv:
  4684                           	callstack 0
  4685                           
  4686 ;; *************** function ___fladd *****************
  4687 ;; Defined at:
  4688 ;;		line 10 in file "C:\Program Files\Microchip\xc8\v2.36\pic\sources\c99\common\sprcadd.c"
  4689 ;; Parameters:    Size  Location     Type
  4690 ;;  b               4   40[COMRAM] unsigned char 
  4691 ;;  a               4   44[COMRAM] unsigned char 
  4692 ;; Auto vars:     Size  Location     Type
  4693 ;;  grs             1   55[COMRAM] unsigned char 
  4694 ;;  bexp            1   54[COMRAM] unsigned char 
  4695 ;;  aexp            1   53[COMRAM] unsigned char 
  4696 ;;  signs           1   52[COMRAM] unsigned char 
  4697 ;; Return value:  Size  Location     Type
  4698 ;;                  4   40[COMRAM] unsigned char 
  4699 ;; Registers used:
  4700 ;;		wreg, status,2, status,0
  4701 ;; Tracked objects:
  4702 ;;		On entry : 0/0
  4703 ;;		On exit  : 0/0
  4704 ;;		Unchanged: 0/0
  4705 ;; Data sizes:     COMRAM   BANK0   BANK1   BANK2   BANK3   BANK4   BANK5   BANK6   BANK7   BANK8   BANK9  BANK10  BANK1
      +1  BANK12  BANK13  BANK14  BANK15
  4706 ;;      Params:         8       0       0       0       0       0       0       0       0       0       0       0       
      +0       0       0       0       0
  4707 ;;      Locals:         4       0       0       0       0       0       0       0       0       0       0       0       
      +0       0       0       0       0
  4708 ;;      Temps:          4       0       0       0       0       0       0       0       0       0       0       0       
      +0       0       0       0       0
  4709 ;;      Totals:        16       0       0       0       0       0       0       0       0       0       0       0       
      +0       0       0       0       0
  4710 ;;Total ram usage:       16 bytes
  4711 ;; Hardware stack levels used: 1
  4712 ;; Hardware stack levels required when called: 2
  4713 ;; This function calls:
  4714 ;;		Nothing
  4715 ;; This function is called by:
  4716 ;;		_EUSART_Baud_Rate_Calculation
  4717 ;;		_CCP_PWM_Set_Duty
  4718 ;;		_CCP_PWM_Mode_Config
  4719 ;;		_I2C_Master_Mode_Clock_Configurations
  4720 ;; This function uses a non-reentrant model
  4721 ;;
  4722                           
  4723                           	psect	text18
  4724  00155C                     __ptext18:
  4725                           	callstack 0
  4726  00155C                     ___fladd:
  4727                           	callstack 25
  4728  00155C  502C               	movf	(___fladd@b+3)^0,w,c
  4729  00155E  0B80               	andlw	128
  4730  001560  6E35               	movwf	___fladd@signs^0,c
  4731  001562  502C               	movf	(___fladd@b+3)^0,w,c
  4732  001564  242C               	addwf	(___fladd@b+3)^0,w,c
  4733  001566  6E37               	movwf	___fladd@bexp^0,c
  4734  001568  AE2B               	btfss	(___fladd@b+2)^0,7,c
  4735  00156A  EFB9  F00A         	goto	u4411
  4736  00156E  EFBB  F00A         	goto	u4410
  4737  001572                     u4411:
  4738  001572  EFBC  F00A         	goto	l5888
  4739  001576                     u4410:
  4740  001576  8037               	bsf	___fladd@bexp^0,0,c
  4741  001578                     l5888:
  4742  001578  5037               	movf	___fladd@bexp^0,w,c
  4743  00157A  B4D8               	btfsc	status,2,c
  4744  00157C  EFC2  F00A         	goto	u4421
  4745  001580  EFC4  F00A         	goto	u4420
  4746  001584                     u4421:
  4747  001584  EFD9  F00A         	goto	l5898
  4748  001588                     u4420:
  4749  001588  2837               	incf	___fladd@bexp^0,w,c
  4750  00158A  A4D8               	btfss	status,2,c
  4751  00158C  EFCA  F00A         	goto	u4431
  4752  001590  EFCC  F00A         	goto	u4430
  4753  001594                     u4431:
  4754  001594  EFD4  F00A         	goto	l5894
  4755  001598                     u4430:
  4756  001598  0E00               	movlw	0
  4757  00159A  6E29               	movwf	___fladd@b^0,c
  4758  00159C  0E00               	movlw	0
  4759  00159E  6E2A               	movwf	(___fladd@b+1)^0,c
  4760  0015A0  0E00               	movlw	0
  4761  0015A2  6E2B               	movwf	(___fladd@b+2)^0,c
  4762  0015A4  0E00               	movlw	0
  4763  0015A6  6E2C               	movwf	(___fladd@b+3)^0,c
  4764  0015A8                     l5894:
  4765  0015A8  8E2B               	bsf	(___fladd@b+2)^0,7,c
  4766  0015AA  0E00               	movlw	0
  4767  0015AC  6E2C               	movwf	(___fladd@b+3)^0,c
  4768  0015AE  EFE1  F00A         	goto	l5900
  4769  0015B2                     l5898:
  4770  0015B2  0E00               	movlw	0
  4771  0015B4  6E29               	movwf	___fladd@b^0,c
  4772  0015B6  0E00               	movlw	0
  4773  0015B8  6E2A               	movwf	(___fladd@b+1)^0,c
  4774  0015BA  0E00               	movlw	0
  4775  0015BC  6E2B               	movwf	(___fladd@b+2)^0,c
  4776  0015BE  0E00               	movlw	0
  4777  0015C0  6E2C               	movwf	(___fladd@b+3)^0,c
  4778  0015C2                     l5900:
  4779  0015C2  5030               	movf	(___fladd@a+3)^0,w,c
  4780  0015C4  0B80               	andlw	128
  4781  0015C6  6E36               	movwf	___fladd@aexp^0,c
  4782  0015C8  5035               	movf	___fladd@signs^0,w,c
  4783  0015CA  1836               	xorwf	___fladd@aexp^0,w,c
  4784  0015CC  B4D8               	btfsc	status,2,c
  4785  0015CE  EFEB  F00A         	goto	u4441
  4786  0015D2  EFED  F00A         	goto	u4440
  4787  0015D6                     u4441:
  4788  0015D6  EFEE  F00A         	goto	l5906
  4789  0015DA                     u4440:
  4790  0015DA  8C35               	bsf	___fladd@signs^0,6,c
  4791  0015DC                     l5906:
  4792  0015DC  5030               	movf	(___fladd@a+3)^0,w,c
  4793  0015DE  2430               	addwf	(___fladd@a+3)^0,w,c
  4794  0015E0  6E36               	movwf	___fladd@aexp^0,c
  4795  0015E2  AE2F               	btfss	(___fladd@a+2)^0,7,c
  4796  0015E4  EFF6  F00A         	goto	u4451
  4797  0015E8  EFF8  F00A         	goto	u4450
  4798  0015EC                     u4451:
  4799  0015EC  EFF9  F00A         	goto	l5912
  4800  0015F0                     u4450:
  4801  0015F0  8036               	bsf	___fladd@aexp^0,0,c
  4802  0015F2                     l5912:
  4803  0015F2  5036               	movf	___fladd@aexp^0,w,c
  4804  0015F4  B4D8               	btfsc	status,2,c
  4805  0015F6  EFFF  F00A         	goto	u4461
  4806  0015FA  EF01  F00B         	goto	u4460
  4807  0015FE                     u4461:
  4808  0015FE  EF16  F00B         	goto	l5922
  4809  001602                     u4460:
  4810  001602  2836               	incf	___fladd@aexp^0,w,c
  4811  001604  A4D8               	btfss	status,2,c
  4812  001606  EF07  F00B         	goto	u4471
  4813  00160A  EF09  F00B         	goto	u4470
  4814  00160E                     u4471:
  4815  00160E  EF11  F00B         	goto	l5918
  4816  001612                     u4470:
  4817  001612  0E00               	movlw	0
  4818  001614  6E2D               	movwf	___fladd@a^0,c
  4819  001616  0E00               	movlw	0
  4820  001618  6E2E               	movwf	(___fladd@a+1)^0,c
  4821  00161A  0E00               	movlw	0
  4822  00161C  6E2F               	movwf	(___fladd@a+2)^0,c
  4823  00161E  0E00               	movlw	0
  4824  001620  6E30               	movwf	(___fladd@a+3)^0,c
  4825  001622                     l5918:
  4826  001622  8E2F               	bsf	(___fladd@a+2)^0,7,c
  4827  001624  0E00               	movlw	0
  4828  001626  6E30               	movwf	(___fladd@a+3)^0,c
  4829  001628  EF1E  F00B         	goto	l5924
  4830  00162C                     l5922:
  4831  00162C  0E00               	movlw	0
  4832  00162E  6E2D               	movwf	___fladd@a^0,c
  4833  001630  0E00               	movlw	0
  4834  001632  6E2E               	movwf	(___fladd@a+1)^0,c
  4835  001634  0E00               	movlw	0
  4836  001636  6E2F               	movwf	(___fladd@a+2)^0,c
  4837  001638  0E00               	movlw	0
  4838  00163A  6E30               	movwf	(___fladd@a+3)^0,c
  4839  00163C                     l5924:
  4840  00163C  5037               	movf	___fladd@bexp^0,w,c
  4841  00163E  5C36               	subwf	___fladd@aexp^0,w,c
  4842  001640  B0D8               	btfsc	status,0,c
  4843  001642  EF25  F00B         	goto	u4481
  4844  001646  EF27  F00B         	goto	u4480
  4845  00164A                     u4481:
  4846  00164A  EF4E  F00B         	goto	l5960
  4847  00164E                     u4480:
  4848  00164E  AC35               	btfss	___fladd@signs^0,6,c
  4849  001650  EF2C  F00B         	goto	u4491
  4850  001654  EF2E  F00B         	goto	u4490
  4851  001658                     u4491:
  4852  001658  EF30  F00B         	goto	l5930
  4853  00165C                     u4490:
  4854  00165C  0E80               	movlw	128
  4855  00165E  1A35               	xorwf	___fladd@signs^0,f,c
  4856  001660                     l5930:
  4857  001660  C037  F038         	movff	___fladd@bexp,___fladd@grs
  4858  001664  C036  F037         	movff	___fladd@aexp,___fladd@bexp
  4859  001668  C038  F036         	movff	___fladd@grs,___fladd@aexp
  4860  00166C  C029  F038         	movff	___fladd@b,___fladd@grs
  4861  001670  C02D  F029         	movff	___fladd@a,___fladd@b
  4862  001674  C038  F02D         	movff	___fladd@grs,___fladd@a
  4863  001678  C02A  F038         	movff	___fladd@b+1,___fladd@grs
  4864  00167C  C02E  F02A         	movff	___fladd@a+1,___fladd@b+1
  4865  001680  C038  F02E         	movff	___fladd@grs,___fladd@a+1
  4866  001684  C02B  F038         	movff	___fladd@b+2,___fladd@grs
  4867  001688  C02F  F02B         	movff	___fladd@a+2,___fladd@b+2
  4868  00168C  C038  F02F         	movff	___fladd@grs,___fladd@a+2
  4869  001690  C02C  F038         	movff	___fladd@b+3,___fladd@grs
  4870  001694  C030  F02C         	movff	___fladd@a+3,___fladd@b+3
  4871  001698  C038  F030         	movff	___fladd@grs,___fladd@a+3
  4872  00169C                     l5960:
  4873  00169C  0E00               	movlw	0
  4874  00169E  6E38               	movwf	___fladd@grs^0,c
  4875  0016A0  5037               	movf	___fladd@bexp^0,w,c
  4876  0016A2  C036  F031         	movff	___fladd@aexp,??___fladd
  4877  0016A6  6A32               	clrf	(??___fladd+1)^0,c
  4878  0016A8  5E31               	subwf	??___fladd^0,f,c
  4879  0016AA  0E00               	movlw	0
  4880  0016AC  5A32               	subwfb	(??___fladd+1)^0,f,c
  4881  0016AE  BE32               	btfsc	(??___fladd+1)^0,7,c
  4882  0016B0  EF63  F00B         	goto	u4501
  4883  0016B4  5032               	movf	(??___fladd+1)^0,w,c
  4884  0016B6  E109               	bnz	u4500
  4885  0016B8  0E1A               	movlw	26
  4886  0016BA  5C31               	subwf	??___fladd^0,w,c
  4887  0016BC  A0D8               	btfss	status,0,c
  4888  0016BE  EF63  F00B         	goto	u4501
  4889  0016C2  EF65  F00B         	goto	u4500
  4890  0016C6                     u4501:
  4891  0016C6  EF9C  F00B         	goto	l2339
  4892  0016CA                     u4500:
  4893  0016CA  5029               	movf	___fladd@b^0,w,c
  4894  0016CC  102A               	iorwf	(___fladd@b+1)^0,w,c
  4895  0016CE  102B               	iorwf	(___fladd@b+2)^0,w,c
  4896  0016D0  102C               	iorwf	(___fladd@b+3)^0,w,c
  4897  0016D2  A4D8               	btfss	status,2,c
  4898  0016D4  EF6E  F00B         	goto	u4511
  4899  0016D8  EF71  F00B         	goto	u4510
  4900  0016DC                     u4511:
  4901  0016DC  0E01               	movlw	1
  4902  0016DE  EF72  F00B         	goto	u4520
  4903  0016E2                     u4510:
  4904  0016E2  0E00               	movlw	0
  4905  0016E4                     u4520:
  4906  0016E4  6E38               	movwf	___fladd@grs^0,c
  4907  0016E6  0E00               	movlw	0
  4908  0016E8  6E29               	movwf	___fladd@b^0,c
  4909  0016EA  0E00               	movlw	0
  4910  0016EC  6E2A               	movwf	(___fladd@b+1)^0,c
  4911  0016EE  0E00               	movlw	0
  4912  0016F0  6E2B               	movwf	(___fladd@b+2)^0,c
  4913  0016F2  0E00               	movlw	0
  4914  0016F4  6E2C               	movwf	(___fladd@b+3)^0,c
  4915  0016F6  C036  F037         	movff	___fladd@aexp,___fladd@bexp
  4916  0016FA  EFA5  F00B         	goto	l2338
  4917  0016FE                     l2340:
  4918  0016FE  A038               	btfss	___fladd@grs^0,0,c
  4919  001700  EF84  F00B         	goto	u4531
  4920  001704  EF86  F00B         	goto	u4530
  4921  001708                     u4531:
  4922  001708  EF8C  F00B         	goto	l5972
  4923  00170C                     u4530:
  4924  00170C  90D8               	bcf	status,0,c
  4925  00170E  3038               	rrcf	___fladd@grs^0,w,c
  4926  001710  0901               	iorlw	1
  4927  001712  6E38               	movwf	___fladd@grs^0,c
  4928  001714  EF8E  F00B         	goto	l5974
  4929  001718                     l5972:
  4930  001718  90D8               	bcf	status,0,c
  4931  00171A  3238               	rrcf	___fladd@grs^0,f,c
  4932  00171C                     l5974:
  4933  00171C  A029               	btfss	___fladd@b^0,0,c
  4934  00171E  EF93  F00B         	goto	u4541
  4935  001722  EF95  F00B         	goto	u4540
  4936  001726                     u4541:
  4937  001726  EF96  F00B         	goto	l5978
  4938  00172A                     u4540:
  4939  00172A  8E38               	bsf	___fladd@grs^0,7,c
  4940  00172C                     l5978:
  4941  00172C  342C               	rlcf	(___fladd@b+3)^0,w,c
  4942  00172E  322C               	rrcf	(___fladd@b+3)^0,f,c
  4943  001730  322B               	rrcf	(___fladd@b+2)^0,f,c
  4944  001732  322A               	rrcf	(___fladd@b+1)^0,f,c
  4945  001734  3229               	rrcf	___fladd@b^0,f,c
  4946  001736  2A37               	incf	___fladd@bexp^0,f,c
  4947  001738                     l2339:
  4948  001738  5036               	movf	___fladd@aexp^0,w,c
  4949  00173A  5C37               	subwf	___fladd@bexp^0,w,c
  4950  00173C  A0D8               	btfss	status,0,c
  4951  00173E  EFA3  F00B         	goto	u4551
  4952  001742  EFA5  F00B         	goto	u4550
  4953  001746                     u4551:
  4954  001746  EF7F  F00B         	goto	l2340
  4955  00174A                     u4550:
  4956  00174A                     l2338:
  4957  00174A  BC35               	btfsc	___fladd@signs^0,6,c
  4958  00174C  EFAA  F00B         	goto	u4561
  4959  001750  EFAC  F00B         	goto	u4560
  4960  001754                     u4561:
  4961  001754  EFEC  F00B         	goto	l6006
  4962  001758                     u4560:
  4963  001758  5037               	movf	___fladd@bexp^0,w,c
  4964  00175A  A4D8               	btfss	status,2,c
  4965  00175C  EFB2  F00B         	goto	u4571
  4966  001760  EFB4  F00B         	goto	u4570
  4967  001764                     u4571:
  4968  001764  EFBE  F00B         	goto	l5988
  4969  001768                     u4570:
  4970  001768  0E00               	movlw	0
  4971  00176A  6E29               	movwf	?___fladd^0,c
  4972  00176C  0E00               	movlw	0
  4973  00176E  6E2A               	movwf	(?___fladd+1)^0,c
  4974  001770  0E00               	movlw	0
  4975  001772  6E2B               	movwf	(?___fladd+2)^0,c
  4976  001774  0E00               	movlw	0
  4977  001776  6E2C               	movwf	(?___fladd+3)^0,c
  4978  001778  EF0D  F00D         	goto	l2347
  4979  00177C                     l5988:
  4980  00177C  502D               	movf	___fladd@a^0,w,c
  4981  00177E  2629               	addwf	___fladd@b^0,f,c
  4982  001780  502E               	movf	(___fladd@a+1)^0,w,c
  4983  001782  222A               	addwfc	(___fladd@b+1)^0,f,c
  4984  001784  502F               	movf	(___fladd@a+2)^0,w,c
  4985  001786  222B               	addwfc	(___fladd@b+2)^0,f,c
  4986  001788  5030               	movf	(___fladd@a+3)^0,w,c
  4987  00178A  222C               	addwfc	(___fladd@b+3)^0,f,c
  4988  00178C  A02C               	btfss	(___fladd@b+3)^0,0,c
  4989  00178E  EFCB  F00B         	goto	u4581
  4990  001792  EFCD  F00B         	goto	u4580
  4991  001796                     u4581:
  4992  001796  EF79  F00C         	goto	l6042
  4993  00179A                     u4580:
  4994  00179A  A038               	btfss	___fladd@grs^0,0,c
  4995  00179C  EFD2  F00B         	goto	u4591
  4996  0017A0  EFD4  F00B         	goto	u4590
  4997  0017A4                     u4591:
  4998  0017A4  EFDA  F00B         	goto	l5996
  4999  0017A8                     u4590:
  5000  0017A8  90D8               	bcf	status,0,c
  5001  0017AA  3038               	rrcf	___fladd@grs^0,w,c
  5002  0017AC  0901               	iorlw	1
  5003  0017AE  6E38               	movwf	___fladd@grs^0,c
  5004  0017B0  EFDC  F00B         	goto	l5998
  5005  0017B4                     l5996:
  5006  0017B4  90D8               	bcf	status,0,c
  5007  0017B6  3238               	rrcf	___fladd@grs^0,f,c
  5008  0017B8                     l5998:
  5009  0017B8  A029               	btfss	___fladd@b^0,0,c
  5010  0017BA  EFE1  F00B         	goto	u4601
  5011  0017BE  EFE3  F00B         	goto	u4600
  5012  0017C2                     u4601:
  5013  0017C2  EFE4  F00B         	goto	l6002
  5014  0017C6                     u4600:
  5015  0017C6  8E38               	bsf	___fladd@grs^0,7,c
  5016  0017C8                     l6002:
  5017  0017C8  342C               	rlcf	(___fladd@b+3)^0,w,c
  5018  0017CA  322C               	rrcf	(___fladd@b+3)^0,f,c
  5019  0017CC  322B               	rrcf	(___fladd@b+2)^0,f,c
  5020  0017CE  322A               	rrcf	(___fladd@b+1)^0,f,c
  5021  0017D0  3229               	rrcf	___fladd@b^0,f,c
  5022  0017D2  2A37               	incf	___fladd@bexp^0,f,c
  5023  0017D4  EF79  F00C         	goto	l6042
  5024  0017D8                     l6006:
  5025  0017D8  502D               	movf	___fladd@a^0,w,c
  5026  0017DA  5C29               	subwf	___fladd@b^0,w,c
  5027  0017DC  502E               	movf	(___fladd@a+1)^0,w,c
  5028  0017DE  582A               	subwfb	(___fladd@b+1)^0,w,c
  5029  0017E0  502F               	movf	(___fladd@a+2)^0,w,c
  5030  0017E2  582B               	subwfb	(___fladd@b+2)^0,w,c
  5031  0017E4  502C               	movf	(___fladd@b+3)^0,w,c
  5032  0017E6  0A80               	xorlw	128
  5033  0017E8  6E31               	movwf	??___fladd^0,c
  5034  0017EA  5030               	movf	(___fladd@a+3)^0,w,c
  5035  0017EC  0A80               	xorlw	128
  5036  0017EE  5831               	subwfb	??___fladd^0,w,c
  5037  0017F0  B0D8               	btfsc	status,0,c
  5038  0017F2  EFFD  F00B         	goto	u4611
  5039  0017F6  EFFF  F00B         	goto	u4610
  5040  0017FA                     u4611:
  5041  0017FA  EF2A  F00C         	goto	l6016
  5042  0017FE                     u4610:
  5043  0017FE  5029               	movf	___fladd@b^0,w,c
  5044  001800  5C2D               	subwf	___fladd@a^0,w,c
  5045  001802  6E31               	movwf	??___fladd^0,c
  5046  001804  502A               	movf	(___fladd@b+1)^0,w,c
  5047  001806  582E               	subwfb	(___fladd@a+1)^0,w,c
  5048  001808  6E32               	movwf	(??___fladd+1)^0,c
  5049  00180A  502B               	movf	(___fladd@b+2)^0,w,c
  5050  00180C  582F               	subwfb	(___fladd@a+2)^0,w,c
  5051  00180E  6E33               	movwf	(??___fladd+2)^0,c
  5052  001810  502C               	movf	(___fladd@b+3)^0,w,c
  5053  001812  5830               	subwfb	(___fladd@a+3)^0,w,c
  5054  001814  6E34               	movwf	(??___fladd+3)^0,c
  5055  001816  0EFF               	movlw	255
  5056  001818  2431               	addwf	??___fladd^0,w,c
  5057  00181A  6E29               	movwf	___fladd@b^0,c
  5058  00181C  0EFF               	movlw	255
  5059  00181E  2032               	addwfc	(??___fladd+1)^0,w,c
  5060  001820  6E2A               	movwf	(___fladd@b+1)^0,c
  5061  001822  0EFF               	movlw	255
  5062  001824  2033               	addwfc	(??___fladd+2)^0,w,c
  5063  001826  6E2B               	movwf	(___fladd@b+2)^0,c
  5064  001828  0EFF               	movlw	255
  5065  00182A  2034               	addwfc	(??___fladd+3)^0,w,c
  5066  00182C  6E2C               	movwf	(___fladd@b+3)^0,c
  5067  00182E  0E80               	movlw	128
  5068  001830  1A35               	xorwf	___fladd@signs^0,f,c
  5069  001832  6C38               	negf	___fladd@grs^0,c
  5070  001834  5038               	movf	___fladd@grs^0,w,c
  5071  001836  A4D8               	btfss	status,2,c
  5072  001838  EF20  F00C         	goto	u4621
  5073  00183C  EF22  F00C         	goto	u4620
  5074  001840                     u4621:
  5075  001840  EF32  F00C         	goto	l2355
  5076  001844                     u4620:
  5077  001844  0E01               	movlw	1
  5078  001846  2629               	addwf	___fladd@b^0,f,c
  5079  001848  0E00               	movlw	0
  5080  00184A  222A               	addwfc	(___fladd@b+1)^0,f,c
  5081  00184C  222B               	addwfc	(___fladd@b+2)^0,f,c
  5082  00184E  222C               	addwfc	(___fladd@b+3)^0,f,c
  5083  001850  EF32  F00C         	goto	l2355
  5084  001854                     l6016:
  5085  001854  502D               	movf	___fladd@a^0,w,c
  5086  001856  5E29               	subwf	___fladd@b^0,f,c
  5087  001858  502E               	movf	(___fladd@a+1)^0,w,c
  5088  00185A  5A2A               	subwfb	(___fladd@b+1)^0,f,c
  5089  00185C  502F               	movf	(___fladd@a+2)^0,w,c
  5090  00185E  5A2B               	subwfb	(___fladd@b+2)^0,f,c
  5091  001860  5030               	movf	(___fladd@a+3)^0,w,c
  5092  001862  5A2C               	subwfb	(___fladd@b+3)^0,f,c
  5093  001864                     l2355:
  5094  001864  5029               	movf	___fladd@b^0,w,c
  5095  001866  102A               	iorwf	(___fladd@b+1)^0,w,c
  5096  001868  102B               	iorwf	(___fladd@b+2)^0,w,c
  5097  00186A  102C               	iorwf	(___fladd@b+3)^0,w,c
  5098  00186C  A4D8               	btfss	status,2,c
  5099  00186E  EF3B  F00C         	goto	u4631
  5100  001872  EF3D  F00C         	goto	u4630
  5101  001876                     u4631:
  5102  001876  EF72  F00C         	goto	l6040
  5103  00187A                     u4630:
  5104  00187A  5038               	movf	___fladd@grs^0,w,c
  5105  00187C  A4D8               	btfss	status,2,c
  5106  00187E  EF43  F00C         	goto	u4641
  5107  001882  EF45  F00C         	goto	u4640
  5108  001886                     u4641:
  5109  001886  EF72  F00C         	goto	l6040
  5110  00188A                     u4640:
  5111  00188A  0E00               	movlw	0
  5112  00188C  6E29               	movwf	?___fladd^0,c
  5113  00188E  0E00               	movlw	0
  5114  001890  6E2A               	movwf	(?___fladd+1)^0,c
  5115  001892  0E00               	movlw	0
  5116  001894  6E2B               	movwf	(?___fladd+2)^0,c
  5117  001896  0E00               	movlw	0
  5118  001898  6E2C               	movwf	(?___fladd+3)^0,c
  5119  00189A  EF0D  F00D         	goto	l2347
  5120  00189E                     l6024:
  5121  00189E  90D8               	bcf	status,0,c
  5122  0018A0  3629               	rlcf	___fladd@b^0,f,c
  5123  0018A2  362A               	rlcf	(___fladd@b+1)^0,f,c
  5124  0018A4  362B               	rlcf	(___fladd@b+2)^0,f,c
  5125  0018A6  362C               	rlcf	(___fladd@b+3)^0,f,c
  5126  0018A8  AE38               	btfss	___fladd@grs^0,7,c
  5127  0018AA  EF59  F00C         	goto	u4651
  5128  0018AE  EF5B  F00C         	goto	u4650
  5129  0018B2                     u4651:
  5130  0018B2  EF5C  F00C         	goto	l6030
  5131  0018B6                     u4650:
  5132  0018B6  8029               	bsf	___fladd@b^0,0,c
  5133  0018B8                     l6030:
  5134  0018B8  A038               	btfss	___fladd@grs^0,0,c
  5135  0018BA  EF61  F00C         	goto	u4661
  5136  0018BE  EF63  F00C         	goto	u4660
  5137  0018C2                     u4661:
  5138  0018C2  EF67  F00C         	goto	l6034
  5139  0018C6                     u4660:
  5140  0018C6  80D8               	bsf	status,0,c
  5141  0018C8  3638               	rlcf	___fladd@grs^0,f,c
  5142  0018CA  EF69  F00C         	goto	l6036
  5143  0018CE                     l6034:
  5144  0018CE  90D8               	bcf	status,0,c
  5145  0018D0  3638               	rlcf	___fladd@grs^0,f,c
  5146  0018D2                     l6036:
  5147  0018D2  5037               	movf	___fladd@bexp^0,w,c
  5148  0018D4  B4D8               	btfsc	status,2,c
  5149  0018D6  EF6F  F00C         	goto	u4671
  5150  0018DA  EF71  F00C         	goto	u4670
  5151  0018DE                     u4671:
  5152  0018DE  EF72  F00C         	goto	l6040
  5153  0018E2                     u4670:
  5154  0018E2  0637               	decf	___fladd@bexp^0,f,c
  5155  0018E4                     l6040:
  5156  0018E4  AE2B               	btfss	(___fladd@b+2)^0,7,c
  5157  0018E6  EF77  F00C         	goto	u4681
  5158  0018EA  EF79  F00C         	goto	u4680
  5159  0018EE                     u4681:
  5160  0018EE  EF4F  F00C         	goto	l6024
  5161  0018F2                     u4680:
  5162  0018F2                     l6042:
  5163  0018F2  0E00               	movlw	0
  5164  0018F4  6E36               	movwf	___fladd@aexp^0,c
  5165  0018F6  AE38               	btfss	___fladd@grs^0,7,c
  5166  0018F8  EF80  F00C         	goto	u4691
  5167  0018FC  EF82  F00C         	goto	u4690
  5168  001900                     u4691:
  5169  001900  EF9A  F00C         	goto	l2364
  5170  001904                     u4690:
  5171  001904  C038  F031         	movff	___fladd@grs,??___fladd
  5172  001908  0E7F               	movlw	127
  5173  00190A  1631               	andwf	??___fladd^0,f,c
  5174  00190C  B4D8               	btfsc	status,2,c
  5175  00190E  EF8B  F00C         	goto	u4701
  5176  001912  EF8D  F00C         	goto	u4700
  5177  001916                     u4701:
  5178  001916  EF91  F00C         	goto	l2365
  5179  00191A                     u4700:
  5180  00191A                     l6048:
  5181  00191A  0E01               	movlw	1
  5182  00191C  6E36               	movwf	___fladd@aexp^0,c
  5183  00191E  EF9A  F00C         	goto	l2364
  5184  001922                     l2365:
  5185  001922  A029               	btfss	___fladd@b^0,0,c
  5186  001924  EF96  F00C         	goto	u4711
  5187  001928  EF98  F00C         	goto	u4710
  5188  00192C                     u4711:
  5189  00192C  EF9A  F00C         	goto	l2364
  5190  001930                     u4710:
  5191  001930  EF8D  F00C         	goto	l6048
  5192  001934                     l2364:
  5193  001934  5036               	movf	___fladd@aexp^0,w,c
  5194  001936  B4D8               	btfsc	status,2,c
  5195  001938  EFA0  F00C         	goto	u4721
  5196  00193C  EFA2  F00C         	goto	u4720
  5197  001940                     u4721:
  5198  001940  EFCD  F00C         	goto	l6060
  5199  001944                     u4720:
  5200  001944  0E01               	movlw	1
  5201  001946  2629               	addwf	___fladd@b^0,f,c
  5202  001948  0E00               	movlw	0
  5203  00194A  222A               	addwfc	(___fladd@b+1)^0,f,c
  5204  00194C  222B               	addwfc	(___fladd@b+2)^0,f,c
  5205  00194E  222C               	addwfc	(___fladd@b+3)^0,f,c
  5206  001950  A02C               	btfss	(___fladd@b+3)^0,0,c
  5207  001952  EFAD  F00C         	goto	u4731
  5208  001956  EFAF  F00C         	goto	u4730
  5209  00195A                     u4731:
  5210  00195A  EFCD  F00C         	goto	l6060
  5211  00195E                     u4730:
  5212  00195E  C029  F031         	movff	___fladd@b,??___fladd
  5213  001962  C02A  F032         	movff	___fladd@b+1,??___fladd+1
  5214  001966  C02B  F033         	movff	___fladd@b+2,??___fladd+2
  5215  00196A  C02C  F034         	movff	___fladd@b+3,??___fladd+3
  5216  00196E  3434               	rlcf	(??___fladd+3)^0,w,c
  5217  001970  3234               	rrcf	(??___fladd+3)^0,f,c
  5218  001972  3233               	rrcf	(??___fladd+2)^0,f,c
  5219  001974  3232               	rrcf	(??___fladd+1)^0,f,c
  5220  001976  3231               	rrcf	??___fladd^0,f,c
  5221  001978  C031  F029         	movff	??___fladd,___fladd@b
  5222  00197C  C032  F02A         	movff	??___fladd+1,___fladd@b+1
  5223  001980  C033  F02B         	movff	??___fladd+2,___fladd@b+2
  5224  001984  C034  F02C         	movff	??___fladd+3,___fladd@b+3
  5225  001988  2837               	incf	___fladd@bexp^0,w,c
  5226  00198A  B4D8               	btfsc	status,2,c
  5227  00198C  EFCA  F00C         	goto	u4741
  5228  001990  EFCC  F00C         	goto	u4740
  5229  001994                     u4741:
  5230  001994  EFCD  F00C         	goto	l6060
  5231  001998                     u4740:
  5232  001998  2A37               	incf	___fladd@bexp^0,f,c
  5233  00199A                     l6060:
  5234  00199A  2837               	incf	___fladd@bexp^0,w,c
  5235  00199C  B4D8               	btfsc	status,2,c
  5236  00199E  EFD3  F00C         	goto	u4751
  5237  0019A2  EFD5  F00C         	goto	u4750
  5238  0019A6                     u4751:
  5239  0019A6  EFDD  F00C         	goto	l6064
  5240  0019AA                     u4750:
  5241  0019AA  5037               	movf	___fladd@bexp^0,w,c
  5242  0019AC  A4D8               	btfss	status,2,c
  5243  0019AE  EFDB  F00C         	goto	u4761
  5244  0019B2  EFDD  F00C         	goto	u4760
  5245  0019B6                     u4761:
  5246  0019B6  EFEF  F00C         	goto	l6068
  5247  0019BA                     u4760:
  5248  0019BA                     l6064:
  5249  0019BA  0E00               	movlw	0
  5250  0019BC  6E29               	movwf	___fladd@b^0,c
  5251  0019BE  0E00               	movlw	0
  5252  0019C0  6E2A               	movwf	(___fladd@b+1)^0,c
  5253  0019C2  0E00               	movlw	0
  5254  0019C4  6E2B               	movwf	(___fladd@b+2)^0,c
  5255  0019C6  0E00               	movlw	0
  5256  0019C8  6E2C               	movwf	(___fladd@b+3)^0,c
  5257  0019CA  5037               	movf	___fladd@bexp^0,w,c
  5258  0019CC  A4D8               	btfss	status,2,c
  5259  0019CE  EFEB  F00C         	goto	u4771
  5260  0019D2  EFED  F00C         	goto	u4770
  5261  0019D6                     u4771:
  5262  0019D6  EFEF  F00C         	goto	l6068
  5263  0019DA                     u4770:
  5264  0019DA  0E00               	movlw	0
  5265  0019DC  6E35               	movwf	___fladd@signs^0,c
  5266  0019DE                     l6068:
  5267  0019DE  A037               	btfss	___fladd@bexp^0,0,c
  5268  0019E0  EFF4  F00C         	goto	u4781
  5269  0019E4  EFF6  F00C         	goto	u4780
  5270  0019E8                     u4781:
  5271  0019E8  EFF9  F00C         	goto	l6072
  5272  0019EC                     u4780:
  5273  0019EC  8E2B               	bsf	(___fladd@b+2)^0,7,c
  5274  0019EE  EFFA  F00C         	goto	l6074
  5275  0019F2                     l6072:
  5276  0019F2  9E2B               	bcf	(___fladd@b+2)^0,7,c
  5277  0019F4                     l6074:
  5278  0019F4  90D8               	bcf	status,0,c
  5279  0019F6  3037               	rrcf	___fladd@bexp^0,w,c
  5280  0019F8  6E2C               	movwf	(___fladd@b+3)^0,c
  5281  0019FA  AE35               	btfss	___fladd@signs^0,7,c
  5282  0019FC  EF02  F00D         	goto	u4791
  5283  001A00  EF04  F00D         	goto	u4790
  5284  001A04                     u4791:
  5285  001A04  EF05  F00D         	goto	l6080
  5286  001A08                     u4790:
  5287  001A08  8E2C               	bsf	(___fladd@b+3)^0,7,c
  5288  001A0A                     l6080:
  5289  001A0A  C029  F029         	movff	___fladd@b,?___fladd
  5290  001A0E  C02A  F02A         	movff	___fladd@b+1,?___fladd+1
  5291  001A12  C02B  F02B         	movff	___fladd@b+2,?___fladd+2
  5292  001A16  C02C  F02C         	movff	___fladd@b+3,?___fladd+3
  5293  001A1A                     l2347:
  5294  001A1A  0012               	return		;funcret
  5295  001A1C                     __end_of___fladd:
  5296                           	callstack 0
  5297                           
  5298 ;; *************** function _EUSART_ASYNC_TX_Init *****************
  5299 ;; Defined at:
  5300 ;;		line 179 in file "MCAL_Layer/usart/hal_usart.c"
  5301 ;; Parameters:    Size  Location     Type
  5302 ;;  _eusart         2    1[COMRAM] PTR const struct .
  5303 ;;		 -> usart_1(18), 
  5304 ;; Auto vars:     Size  Location     Type
  5305 ;;		None
  5306 ;; Return value:  Size  Location     Type
  5307 ;;                  1    wreg      void 
  5308 ;; Registers used:
  5309 ;;		wreg, fsr2l, fsr2h, status,2, status,0
  5310 ;; Tracked objects:
  5311 ;;		On entry : 0/0
  5312 ;;		On exit  : 0/0
  5313 ;;		Unchanged: 0/0
  5314 ;; Data sizes:     COMRAM   BANK0   BANK1   BANK2   BANK3   BANK4   BANK5   BANK6   BANK7   BANK8   BANK9  BANK10  BANK1
      +1  BANK12  BANK13  BANK14  BANK15
  5315 ;;      Params:         2       0       0       0       0       0       0       0       0       0       0       0       
      +0       0       0       0       0
  5316 ;;      Locals:         0       0       0       0       0       0       0       0       0       0       0       0       
      +0       0       0       0       0
  5317 ;;      Temps:          0       0       0       0       0       0       0       0       0       0       0       0       
      +0       0       0       0       0
  5318 ;;      Totals:         2       0       0       0       0       0       0       0       0       0       0       0       
      +0       0       0       0       0
  5319 ;;Total ram usage:        2 bytes
  5320 ;; Hardware stack levels used: 1
  5321 ;; Hardware stack levels required when called: 2
  5322 ;; This function calls:
  5323 ;;		Nothing
  5324 ;; This function is called by:
  5325 ;;		_EUSART_ASYNC_Init
  5326 ;; This function uses a non-reentrant model
  5327 ;;
  5328                           
  5329                           	psect	text19
  5330  002F3A                     __ptext19:
  5331                           	callstack 0
  5332  002F3A                     _EUSART_ASYNC_TX_Init:
  5333                           	callstack 26
  5334  002F3A                     
  5335                           ;MCAL_Layer/usart/hal_usart.c: 180:     if(1 == _eusart->usart_tx_cfg.usart_tx_enable){
  5336  002F3A  EE20 F006          	lfsr	2,6
  5337  002F3E  5002               	movf	EUSART_ASYNC_TX_Init@_eusart^0,w,c
  5338  002F40  26D9               	addwf	fsr2l,f,c
  5339  002F42  5003               	movf	(EUSART_ASYNC_TX_Init@_eusart+1)^0,w,c
  5340  002F44  22DA               	addwfc	fsr2h,f,c
  5341  002F46  A0DF               	btfss	indf2,0,c
  5342  002F48  EFA8  F017         	goto	u5271
  5343  002F4C  EFAA  F017         	goto	u5270
  5344  002F50                     u5271:
  5345  002F50  EFF6  F017         	goto	l1674
  5346  002F54                     u5270:
  5347  002F54                     
  5348                           ;MCAL_Layer/usart/hal_usart.c: 181:         TXSTAbits.TXEN = 1;
  5349  002F54  8AAC               	bsf	172,5,c	;volatile
  5350  002F56                     
  5351                           ;MCAL_Layer/usart/hal_usart.c: 182:         EUSART_TxInterruptHandler = _eusart->EUSART_
      +                          TxDefaultInterruptHandler;
  5352  002F56  EE20 F00A          	lfsr	2,10
  5353  002F5A  5002               	movf	EUSART_ASYNC_TX_Init@_eusart^0,w,c
  5354  002F5C  26D9               	addwf	fsr2l,f,c
  5355  002F5E  5003               	movf	(EUSART_ASYNC_TX_Init@_eusart+1)^0,w,c
  5356  002F60  22DA               	addwfc	fsr2h,f,c
  5357  002F62  CFDE F0CA          	movff	postinc2,_EUSART_TxInterruptHandler
  5358  002F66  CFDD F0CB          	movff	postdec2,_EUSART_TxInterruptHandler+1
  5359                           
  5360                           ;MCAL_Layer/usart/hal_usart.c: 184:         if(1 == _eusart->usart_tx_cfg.usart_tx_inter
      +                          rupt_enable){
  5361  002F6A  EE20 F006          	lfsr	2,6
  5362  002F6E  5002               	movf	EUSART_ASYNC_TX_Init@_eusart^0,w,c
  5363  002F70  26D9               	addwf	fsr2l,f,c
  5364  002F72  5003               	movf	(EUSART_ASYNC_TX_Init@_eusart+1)^0,w,c
  5365  002F74  22DA               	addwfc	fsr2h,f,c
  5366  002F76  A2DF               	btfss	indf2,1,c
  5367  002F78  EFC0  F017         	goto	u5281
  5368  002F7C  EFC2  F017         	goto	u5280
  5369  002F80                     u5281:
  5370  002F80  EFC8  F017         	goto	l6418
  5371  002F84                     u5280:
  5372  002F84                     
  5373                           ;MCAL_Layer/usart/hal_usart.c: 185:             PIE1bits.TXIE = 1;
  5374  002F84  889D               	bsf	157,4,c	;volatile
  5375                           
  5376                           ;MCAL_Layer/usart/hal_usart.c: 188:             (PIE1bits.TXIE = 1);
  5377  002F86  889D               	bsf	157,4,c	;volatile
  5378                           
  5379                           ;MCAL_Layer/usart/hal_usart.c: 204:             (INTCONbits.GIE = 1);
  5380  002F88  8EF2               	bsf	242,7,c	;volatile
  5381                           
  5382                           ;MCAL_Layer/usart/hal_usart.c: 205:             (INTCONbits.PEIE = 1);
  5383  002F8A  8CF2               	bsf	242,6,c	;volatile
  5384                           
  5385                           ;MCAL_Layer/usart/hal_usart.c: 208:         }
  5386  002F8C  EFD6  F017         	goto	l6422
  5387  002F90                     l6418:
  5388  002F90  EE20 F006          	lfsr	2,6
  5389  002F94  5002               	movf	EUSART_ASYNC_TX_Init@_eusart^0,w,c
  5390  002F96  26D9               	addwf	fsr2l,f,c
  5391  002F98  5003               	movf	(EUSART_ASYNC_TX_Init@_eusart+1)^0,w,c
  5392  002F9A  22DA               	addwfc	fsr2h,f,c
  5393  002F9C  B2DF               	btfsc	indf2,1,c
  5394  002F9E  EFD3  F017         	goto	u5291
  5395  002FA2  EFD5  F017         	goto	u5290
  5396  002FA6                     u5291:
  5397  002FA6  EFD6  F017         	goto	l6422
  5398  002FAA                     u5290:
  5399  002FAA                     
  5400                           ;MCAL_Layer/usart/hal_usart.c: 210:             PIE1bits.TXIE = 0;
  5401  002FAA  989D               	bcf	157,4,c	;volatile
  5402  002FAC                     l6422:
  5403                           
  5404                           ;MCAL_Layer/usart/hal_usart.c: 215:         if(1 == _eusart->usart_tx_cfg.usart_tx_9bit_
      +                          enable){
  5405  002FAC  EE20 F006          	lfsr	2,6
  5406  002FB0  5002               	movf	EUSART_ASYNC_TX_Init@_eusart^0,w,c
  5407  002FB2  26D9               	addwf	fsr2l,f,c
  5408  002FB4  5003               	movf	(EUSART_ASYNC_TX_Init@_eusart+1)^0,w,c
  5409  002FB6  22DA               	addwfc	fsr2h,f,c
  5410  002FB8  A4DF               	btfss	indf2,2,c
  5411  002FBA  EFE1  F017         	goto	u5301
  5412  002FBE  EFE3  F017         	goto	u5300
  5413  002FC2                     u5301:
  5414  002FC2  EFE6  F017         	goto	l6426
  5415  002FC6                     u5300:
  5416  002FC6                     
  5417                           ;MCAL_Layer/usart/hal_usart.c: 216:             TXSTAbits.TX9 = 1;
  5418  002FC6  8CAC               	bsf	172,6,c	;volatile
  5419                           
  5420                           ;MCAL_Layer/usart/hal_usart.c: 217:         }
  5421  002FC8  EFF6  F017         	goto	l1674
  5422  002FCC                     l6426:
  5423  002FCC  EE20 F006          	lfsr	2,6
  5424  002FD0  5002               	movf	EUSART_ASYNC_TX_Init@_eusart^0,w,c
  5425  002FD2  26D9               	addwf	fsr2l,f,c
  5426  002FD4  5003               	movf	(EUSART_ASYNC_TX_Init@_eusart+1)^0,w,c
  5427  002FD6  22DA               	addwfc	fsr2h,f,c
  5428  002FD8  B4DF               	btfsc	indf2,2,c
  5429  002FDA  EFF1  F017         	goto	u5311
  5430  002FDE  EFF3  F017         	goto	u5310
  5431  002FE2                     u5311:
  5432  002FE2  EFF6  F017         	goto	l1670
  5433  002FE6                     u5310:
  5434  002FE6                     
  5435                           ;MCAL_Layer/usart/hal_usart.c: 219:             TXSTAbits.TX9 = 0;
  5436  002FE6  9CAC               	bcf	172,6,c	;volatile
  5437                           
  5438                           ;MCAL_Layer/usart/hal_usart.c: 220:         }
  5439  002FE8  EFF6  F017         	goto	l1674
  5440  002FEC                     l1670:
  5441  002FEC                     l1674:
  5442  002FEC  0012               	return		;funcret
  5443  002FEE                     __end_of_EUSART_ASYNC_TX_Init:
  5444                           	callstack 0
  5445                           
  5446 ;; *************** function _EUSART_ASYNC_RX_Init *****************
  5447 ;; Defined at:
  5448 ;;		line 226 in file "MCAL_Layer/usart/hal_usart.c"
  5449 ;; Parameters:    Size  Location     Type
  5450 ;;  _eusart         2    1[COMRAM] PTR const struct .
  5451 ;;		 -> usart_1(18), 
  5452 ;; Auto vars:     Size  Location     Type
  5453 ;;		None
  5454 ;; Return value:  Size  Location     Type
  5455 ;;                  1    wreg      void 
  5456 ;; Registers used:
  5457 ;;		wreg, fsr2l, fsr2h, status,2, status,0
  5458 ;; Tracked objects:
  5459 ;;		On entry : 0/0
  5460 ;;		On exit  : 0/0
  5461 ;;		Unchanged: 0/0
  5462 ;; Data sizes:     COMRAM   BANK0   BANK1   BANK2   BANK3   BANK4   BANK5   BANK6   BANK7   BANK8   BANK9  BANK10  BANK1
      +1  BANK12  BANK13  BANK14  BANK15
  5463 ;;      Params:         2       0       0       0       0       0       0       0       0       0       0       0       
      +0       0       0       0       0
  5464 ;;      Locals:         0       0       0       0       0       0       0       0       0       0       0       0       
      +0       0       0       0       0
  5465 ;;      Temps:          0       0       0       0       0       0       0       0       0       0       0       0       
      +0       0       0       0       0
  5466 ;;      Totals:         2       0       0       0       0       0       0       0       0       0       0       0       
      +0       0       0       0       0
  5467 ;;Total ram usage:        2 bytes
  5468 ;; Hardware stack levels used: 1
  5469 ;; Hardware stack levels required when called: 2
  5470 ;; This function calls:
  5471 ;;		Nothing
  5472 ;; This function is called by:
  5473 ;;		_EUSART_ASYNC_Init
  5474 ;; This function uses a non-reentrant model
  5475 ;;
  5476                           
  5477                           	psect	text20
  5478  002DA6                     __ptext20:
  5479                           	callstack 0
  5480  002DA6                     _EUSART_ASYNC_RX_Init:
  5481                           	callstack 26
  5482  002DA6                     
  5483                           ;MCAL_Layer/usart/hal_usart.c: 227:     if(1 == _eusart->usart_rx_cfg.usart_rx_enable){
  5484  002DA6  EE20 F008          	lfsr	2,8
  5485  002DAA  5002               	movf	EUSART_ASYNC_RX_Init@_eusart^0,w,c
  5486  002DAC  26D9               	addwf	fsr2l,f,c
  5487  002DAE  5003               	movf	(EUSART_ASYNC_RX_Init@_eusart+1)^0,w,c
  5488  002DB0  22DA               	addwfc	fsr2h,f,c
  5489  002DB2  A0DF               	btfss	indf2,0,c
  5490  002DB4  EFDE  F016         	goto	u5321
  5491  002DB8  EFE0  F016         	goto	u5320
  5492  002DBC                     u5321:
  5493  002DBC  EF40  F017         	goto	l1687
  5494  002DC0                     u5320:
  5495  002DC0                     
  5496                           ;MCAL_Layer/usart/hal_usart.c: 228:         RCSTAbits.CREN = 1;
  5497  002DC0  88AB               	bsf	171,4,c	;volatile
  5498  002DC2                     
  5499                           ;MCAL_Layer/usart/hal_usart.c: 229:         EUSART_RxInterruptHandler = _eusart->EUSART_
      +                          RxDefaultInterruptHandler;
  5500  002DC2  EE20 F00C          	lfsr	2,12
  5501  002DC6  5002               	movf	EUSART_ASYNC_RX_Init@_eusart^0,w,c
  5502  002DC8  26D9               	addwf	fsr2l,f,c
  5503  002DCA  5003               	movf	(EUSART_ASYNC_RX_Init@_eusart+1)^0,w,c
  5504  002DCC  22DA               	addwfc	fsr2h,f,c
  5505  002DCE  CFDE F0C8          	movff	postinc2,_EUSART_RxInterruptHandler
  5506  002DD2  CFDD F0C9          	movff	postdec2,_EUSART_RxInterruptHandler+1
  5507                           
  5508                           ;MCAL_Layer/usart/hal_usart.c: 230:         EUSART_FramingErrorHandler = _eusart->EUSART
      +                          _FramingErrorHandler;
  5509  002DD6  EE20 F00E          	lfsr	2,14
  5510  002DDA  5002               	movf	EUSART_ASYNC_RX_Init@_eusart^0,w,c
  5511  002DDC  26D9               	addwf	fsr2l,f,c
  5512  002DDE  5003               	movf	(EUSART_ASYNC_RX_Init@_eusart+1)^0,w,c
  5513  002DE0  22DA               	addwfc	fsr2h,f,c
  5514  002DE2  CFDE F0C6          	movff	postinc2,_EUSART_FramingErrorHandler
  5515  002DE6  CFDD F0C7          	movff	postdec2,_EUSART_FramingErrorHandler+1
  5516                           
  5517                           ;MCAL_Layer/usart/hal_usart.c: 231:         EUSART_OverrunErrorHandler = _eusart->EUSART
      +                          _OverrunErrorHandler;
  5518  002DEA  EE20 F010          	lfsr	2,16
  5519  002DEE  5002               	movf	EUSART_ASYNC_RX_Init@_eusart^0,w,c
  5520  002DF0  26D9               	addwf	fsr2l,f,c
  5521  002DF2  5003               	movf	(EUSART_ASYNC_RX_Init@_eusart+1)^0,w,c
  5522  002DF4  22DA               	addwfc	fsr2h,f,c
  5523  002DF6  CFDE F0C4          	movff	postinc2,_EUSART_OverrunErrorHandler
  5524  002DFA  CFDD F0C5          	movff	postdec2,_EUSART_OverrunErrorHandler+1
  5525                           
  5526                           ;MCAL_Layer/usart/hal_usart.c: 233:         if(1 == _eusart->usart_rx_cfg.usart_rx_inter
      +                          rupt_enable){
  5527  002DFE  EE20 F008          	lfsr	2,8
  5528  002E02  5002               	movf	EUSART_ASYNC_RX_Init@_eusart^0,w,c
  5529  002E04  26D9               	addwf	fsr2l,f,c
  5530  002E06  5003               	movf	(EUSART_ASYNC_RX_Init@_eusart+1)^0,w,c
  5531  002E08  22DA               	addwfc	fsr2h,f,c
  5532  002E0A  A2DF               	btfss	indf2,1,c
  5533  002E0C  EF0A  F017         	goto	u5331
  5534  002E10  EF0C  F017         	goto	u5330
  5535  002E14                     u5331:
  5536  002E14  EF12  F017         	goto	l6438
  5537  002E18                     u5330:
  5538  002E18                     
  5539                           ;MCAL_Layer/usart/hal_usart.c: 234:             PIE1bits.RCIE = 1;
  5540  002E18  8A9D               	bsf	157,5,c	;volatile
  5541                           
  5542                           ;MCAL_Layer/usart/hal_usart.c: 237:             (PIE1bits.RCIE = 1);
  5543  002E1A  8A9D               	bsf	157,5,c	;volatile
  5544                           
  5545                           ;MCAL_Layer/usart/hal_usart.c: 253:             (INTCONbits.GIE = 1);
  5546  002E1C  8EF2               	bsf	242,7,c	;volatile
  5547                           
  5548                           ;MCAL_Layer/usart/hal_usart.c: 254:             (INTCONbits.PEIE = 1);
  5549  002E1E  8CF2               	bsf	242,6,c	;volatile
  5550                           
  5551                           ;MCAL_Layer/usart/hal_usart.c: 257:         }
  5552  002E20  EF20  F017         	goto	l6442
  5553  002E24                     l6438:
  5554  002E24  EE20 F008          	lfsr	2,8
  5555  002E28  5002               	movf	EUSART_ASYNC_RX_Init@_eusart^0,w,c
  5556  002E2A  26D9               	addwf	fsr2l,f,c
  5557  002E2C  5003               	movf	(EUSART_ASYNC_RX_Init@_eusart+1)^0,w,c
  5558  002E2E  22DA               	addwfc	fsr2h,f,c
  5559  002E30  B2DF               	btfsc	indf2,1,c
  5560  002E32  EF1D  F017         	goto	u5341
  5561  002E36  EF1F  F017         	goto	u5340
  5562  002E3A                     u5341:
  5563  002E3A  EF20  F017         	goto	l6442
  5564  002E3E                     u5340:
  5565  002E3E                     
  5566                           ;MCAL_Layer/usart/hal_usart.c: 259:             PIE1bits.RCIE = 0;
  5567  002E3E  9A9D               	bcf	157,5,c	;volatile
  5568  002E40                     l6442:
  5569                           
  5570                           ;MCAL_Layer/usart/hal_usart.c: 264:         if(1 == _eusart->usart_rx_cfg.usart_rx_9bit_
      +                          enable){
  5571  002E40  EE20 F008          	lfsr	2,8
  5572  002E44  5002               	movf	EUSART_ASYNC_RX_Init@_eusart^0,w,c
  5573  002E46  26D9               	addwf	fsr2l,f,c
  5574  002E48  5003               	movf	(EUSART_ASYNC_RX_Init@_eusart+1)^0,w,c
  5575  002E4A  22DA               	addwfc	fsr2h,f,c
  5576  002E4C  A4DF               	btfss	indf2,2,c
  5577  002E4E  EF2B  F017         	goto	u5351
  5578  002E52  EF2D  F017         	goto	u5350
  5579  002E56                     u5351:
  5580  002E56  EF30  F017         	goto	l6446
  5581  002E5A                     u5350:
  5582  002E5A                     
  5583                           ;MCAL_Layer/usart/hal_usart.c: 265:             RCSTAbits.RX9 = 1;
  5584  002E5A  8CAB               	bsf	171,6,c	;volatile
  5585                           
  5586                           ;MCAL_Layer/usart/hal_usart.c: 266:         }
  5587  002E5C  EF40  F017         	goto	l1687
  5588  002E60                     l6446:
  5589  002E60  EE20 F008          	lfsr	2,8
  5590  002E64  5002               	movf	EUSART_ASYNC_RX_Init@_eusart^0,w,c
  5591  002E66  26D9               	addwf	fsr2l,f,c
  5592  002E68  5003               	movf	(EUSART_ASYNC_RX_Init@_eusart+1)^0,w,c
  5593  002E6A  22DA               	addwfc	fsr2h,f,c
  5594  002E6C  B4DF               	btfsc	indf2,2,c
  5595  002E6E  EF3B  F017         	goto	u5361
  5596  002E72  EF3D  F017         	goto	u5360
  5597  002E76                     u5361:
  5598  002E76  EF40  F017         	goto	l1683
  5599  002E7A                     u5360:
  5600  002E7A                     
  5601                           ;MCAL_Layer/usart/hal_usart.c: 268:             RCSTAbits.RX9 = 0;
  5602  002E7A  9CAB               	bcf	171,6,c	;volatile
  5603                           
  5604                           ;MCAL_Layer/usart/hal_usart.c: 269:         }
  5605  002E7C  EF40  F017         	goto	l1687
  5606  002E80                     l1683:
  5607  002E80                     l1687:
  5608  002E80  0012               	return		;funcret
  5609  002E82                     __end_of_EUSART_ASYNC_RX_Init:
  5610                           	callstack 0
  5611                           
  5612 ;; *************** function _WelcomingMessage *****************
  5613 ;; Defined at:
  5614 ;;		line 274 in file "application.c"
  5615 ;; Parameters:    Size  Location     Type
  5616 ;;		None
  5617 ;; Auto vars:     Size  Location     Type
  5618 ;;		None
  5619 ;; Return value:  Size  Location     Type
  5620 ;;                  1    wreg      void 
  5621 ;; Registers used:
  5622 ;;		wreg, fsr2l, fsr2h, status,2, status,0, tblptrl, tblptrh, tblptru, prodl, prodh, cstack
  5623 ;; Tracked objects:
  5624 ;;		On entry : 0/0
  5625 ;;		On exit  : 0/0
  5626 ;;		Unchanged: 0/0
  5627 ;; Data sizes:     COMRAM   BANK0   BANK1   BANK2   BANK3   BANK4   BANK5   BANK6   BANK7   BANK8   BANK9  BANK10  BANK1
      +1  BANK12  BANK13  BANK14  BANK15
  5628 ;;      Params:         0       0       0       0       0       0       0       0       0       0       0       0       
      +0       0       0       0       0
  5629 ;;      Locals:         0       0       0       0       0       0       0       0       0       0       0       0       
      +0       0       0       0       0
  5630 ;;      Temps:          2       0       0       0       0       0       0       0       0       0       0       0       
      +0       0       0       0       0
  5631 ;;      Totals:         2       0       0       0       0       0       0       0       0       0       0       0       
      +0       0       0       0       0
  5632 ;;Total ram usage:        2 bytes
  5633 ;; Hardware stack levels used: 1
  5634 ;; Hardware stack levels required when called: 7
  5635 ;; This function calls:
  5636 ;;		_lcd_4bit_send_command
  5637 ;;		_lcd_4bit_send_string_pos
  5638 ;; This function is called by:
  5639 ;;		_main
  5640 ;; This function uses a non-reentrant model
  5641 ;;
  5642                           
  5643                           	psect	text21
  5644  0034EC                     __ptext21:
  5645                           	callstack 0
  5646  0034EC                     _WelcomingMessage:
  5647                           	callstack 23
  5648  0034EC                     
  5649                           ;application.c: 276:     ret = lcd_4bit_send_string_pos(&lcd_1, 2, 7, "Welcome.");
  5650  0034EC  0E75               	movlw	low _lcd_1
  5651  0034EE  6E1B               	movwf	lcd_4bit_send_string_pos@lcd^0,c
  5652  0034F0  0E00               	movlw	high _lcd_1
  5653  0034F2  6E1C               	movwf	(lcd_4bit_send_string_pos@lcd+1)^0,c
  5654  0034F4  0E02               	movlw	2
  5655  0034F6  6E1D               	movwf	lcd_4bit_send_string_pos@row^0,c
  5656  0034F8  0E07               	movlw	7
  5657  0034FA  6E1E               	movwf	lcd_4bit_send_string_pos@column^0,c
  5658  0034FC  0E6B               	movlw	low STR_11
  5659  0034FE  6E1F               	movwf	lcd_4bit_send_string_pos@str^0,c
  5660  003500  0E10               	movlw	high STR_11
  5661  003502  6E20               	movwf	(lcd_4bit_send_string_pos@str+1)^0,c
  5662  003504  ECE1  F018         	call	_lcd_4bit_send_string_pos	;wreg free
  5663  003508  6E7C               	movwf	_ret^0,c
  5664  00350A                     
  5665                           ;application.c: 277:     _delay((unsigned long)((1000)*(8000000UL/4000.0)));
  5666  00350A  0E0B               	movlw	11
  5667  00350C  6E23               	movwf	(??_WelcomingMessage+1)^0,c
  5668  00350E  0E26               	movlw	38
  5669  003510  6E22               	movwf	??_WelcomingMessage^0,c
  5670  003512  0E5E               	movlw	94
  5671  003514                     u7757:
  5672  003514  2EE8               	decfsz	wreg,f,c
  5673  003516  D7FE               	bra	u7757
  5674  003518  2E22               	decfsz	??_WelcomingMessage^0,f,c
  5675  00351A  D7FC               	bra	u7757
  5676  00351C  2E23               	decfsz	(??_WelcomingMessage+1)^0,f,c
  5677  00351E  D7FA               	bra	u7757
  5678  003520                     
  5679                           ;application.c: 278:     ret = lcd_4bit_send_command(&lcd_1, 0X01);
  5680  003520  0E75               	movlw	low _lcd_1
  5681  003522  6E10               	movwf	lcd_4bit_send_command@lcd^0,c
  5682  003524  0E00               	movlw	high _lcd_1
  5683  003526  6E11               	movwf	(lcd_4bit_send_command@lcd+1)^0,c
  5684  003528  0E01               	movlw	1
  5685  00352A  6E12               	movwf	lcd_4bit_send_command@command^0,c
  5686  00352C  EC1D  F019         	call	_lcd_4bit_send_command	;wreg free
  5687  003530  6E7C               	movwf	_ret^0,c
  5688  003532  0012               	return		;funcret
  5689  003534                     __end_of_WelcomingMessage:
  5690                           	callstack 0
  5691                           
  5692 ;; *************** function _TimeValidation *****************
  5693 ;; Defined at:
  5694 ;;		line 174 in file "application.c"
  5695 ;; Parameters:    Size  Location     Type
  5696 ;;		None
  5697 ;; Auto vars:     Size  Location     Type
  5698 ;;		None
  5699 ;; Return value:  Size  Location     Type
  5700 ;;                  1    wreg      void 
  5701 ;; Registers used:
  5702 ;;		wreg, fsr2l, fsr2h, status,2, status,0, tblptrl, tblptrh, tblptru, prodl, prodh, cstack
  5703 ;; Tracked objects:
  5704 ;;		On entry : 0/0
  5705 ;;		On exit  : 0/0
  5706 ;;		Unchanged: 0/0
  5707 ;; Data sizes:     COMRAM   BANK0   BANK1   BANK2   BANK3   BANK4   BANK5   BANK6   BANK7   BANK8   BANK9  BANK10  BANK1
      +1  BANK12  BANK13  BANK14  BANK15
  5708 ;;      Params:         0       0       0       0       0       0       0       0       0       0       0       0       
      +0       0       0       0       0
  5709 ;;      Locals:         0       0       0       0       0       0       0       0       0       0       0       0       
      +0       0       0       0       0
  5710 ;;      Temps:          2       0       0       0       0       0       0       0       0       0       0       0       
      +0       0       0       0       0
  5711 ;;      Totals:         2       0       0       0       0       0       0       0       0       0       0       0       
      +0       0       0       0       0
  5712 ;;Total ram usage:        2 bytes
  5713 ;; Hardware stack levels used: 1
  5714 ;; Hardware stack levels required when called: 7
  5715 ;; This function calls:
  5716 ;;		_lcd_4bit_send_command
  5717 ;;		_lcd_4bit_send_string_pos
  5718 ;;		_usartSend
  5719 ;; This function is called by:
  5720 ;;		_main
  5721 ;; This function uses a non-reentrant model
  5722 ;;
  5723                           
  5724                           	psect	text22
  5725  002FEE                     __ptext22:
  5726                           	callstack 0
  5727  002FEE                     _TimeValidation:
  5728                           	callstack 23
  5729  002FEE                     
  5730                           ;application.c: 176:     if((hour>24) || (min>60) || (sec>60))
  5731  002FEE  0E19               	movlw	25
  5732  002FF0  6069               	cpfslt	_hour^0,c
  5733  002FF2  EFFD  F017         	goto	u5721
  5734  002FF6  EFFF  F017         	goto	u5720
  5735  002FFA                     u5721:
  5736  002FFA  EF0F  F018         	goto	l6956
  5737  002FFE                     u5720:
  5738  002FFE  0E3D               	movlw	61
  5739  003000  6068               	cpfslt	_min^0,c
  5740  003002  EF05  F018         	goto	u5731
  5741  003006  EF07  F018         	goto	u5730
  5742  00300A                     u5731:
  5743  00300A  EF0F  F018         	goto	l6956
  5744  00300E                     u5730:
  5745  00300E  0E3C               	movlw	60
  5746  003010  6467               	cpfsgt	_sec^0,c
  5747  003012  EF0D  F018         	goto	u5741
  5748  003016  EF0F  F018         	goto	u5740
  5749  00301A                     u5741:
  5750  00301A  EF37  F018         	goto	l6962
  5751  00301E                     u5740:
  5752  00301E                     l6956:
  5753                           
  5754                           ;application.c: 177:     {;application.c: 178:         ret = ret = lcd_4bit_send_string_
      +                          pos(&lcd_1, 2, 2, "Wrong Timing !");
  5755  00301E  0E75               	movlw	low _lcd_1
  5756  003020  6E1B               	movwf	lcd_4bit_send_string_pos@lcd^0,c
  5757  003022  0E00               	movlw	high _lcd_1
  5758  003024  6E1C               	movwf	(lcd_4bit_send_string_pos@lcd+1)^0,c
  5759  003026  0E02               	movlw	2
  5760  003028  6E1D               	movwf	lcd_4bit_send_string_pos@row^0,c
  5761  00302A  0E02               	movlw	2
  5762  00302C  6E1E               	movwf	lcd_4bit_send_string_pos@column^0,c
  5763  00302E  0E3C               	movlw	low STR_6
  5764  003030  6E1F               	movwf	lcd_4bit_send_string_pos@str^0,c
  5765  003032  0E10               	movlw	high STR_6
  5766  003034  6E20               	movwf	(lcd_4bit_send_string_pos@str+1)^0,c
  5767  003036  ECE1  F018         	call	_lcd_4bit_send_string_pos	;wreg free
  5768  00303A  6E7C               	movwf	_ret^0,c
  5769  00303C  C07C  F07C         	movff	_ret,_ret
  5770  003040                     l6958:
  5771                           
  5772                           ;application.c: 179:         _delay((unsigned long)((2000)*(8000000UL/4000.0)));
  5773  003040  0E15               	movlw	21
  5774  003042  6E23               	movwf	(??_TimeValidation+1)^0,c
  5775  003044  0E4B               	movlw	75
  5776  003046  6E22               	movwf	??_TimeValidation^0,c
  5777  003048  0EBE               	movlw	190
  5778  00304A                     u7767:
  5779  00304A  2EE8               	decfsz	wreg,f,c
  5780  00304C  D7FE               	bra	u7767
  5781  00304E  2E22               	decfsz	??_TimeValidation^0,f,c
  5782  003050  D7FC               	bra	u7767
  5783  003052  2E23               	decfsz	(??_TimeValidation+1)^0,f,c
  5784  003054  D7FA               	bra	u7767
  5785  003056  D000               	nop2	
  5786  003058                     
  5787                           ;application.c: 180:         ret = lcd_4bit_send_command(&lcd_1, 0X01);
  5788  003058  0E75               	movlw	low _lcd_1
  5789  00305A  6E10               	movwf	lcd_4bit_send_command@lcd^0,c
  5790  00305C  0E00               	movlw	high _lcd_1
  5791  00305E  6E11               	movwf	(lcd_4bit_send_command@lcd+1)^0,c
  5792  003060  0E01               	movlw	1
  5793  003062  6E12               	movwf	lcd_4bit_send_command@command^0,c
  5794  003064  EC1D  F019         	call	_lcd_4bit_send_command	;wreg free
  5795  003068  6E7C               	movwf	_ret^0,c
  5796                           
  5797                           ;application.c: 181:     }
  5798  00306A  EF4C  F018         	goto	l1777
  5799  00306E                     l6962:
  5800                           
  5801                           ;application.c: 183:     {;application.c: 184:         usartSend();
  5802  00306E  ECF7  F01A         	call	_usartSend	;wreg free
  5803  003072                     
  5804                           ;application.c: 185:         ret = ret = lcd_4bit_send_string_pos(&lcd_1, 2, 2, "Done.")
      +                          ;
  5805  003072  0E75               	movlw	low _lcd_1
  5806  003074  6E1B               	movwf	lcd_4bit_send_string_pos@lcd^0,c
  5807  003076  0E00               	movlw	high _lcd_1
  5808  003078  6E1C               	movwf	(lcd_4bit_send_string_pos@lcd+1)^0,c
  5809  00307A  0E02               	movlw	2
  5810  00307C  6E1D               	movwf	lcd_4bit_send_string_pos@row^0,c
  5811  00307E  0E02               	movlw	2
  5812  003080  6E1E               	movwf	lcd_4bit_send_string_pos@column^0,c
  5813  003082  0E74               	movlw	low STR_7
  5814  003084  6E1F               	movwf	lcd_4bit_send_string_pos@str^0,c
  5815  003086  0E10               	movlw	high STR_7
  5816  003088  6E20               	movwf	(lcd_4bit_send_string_pos@str+1)^0,c
  5817  00308A  ECE1  F018         	call	_lcd_4bit_send_string_pos	;wreg free
  5818  00308E  6E7C               	movwf	_ret^0,c
  5819  003090  C07C  F07C         	movff	_ret,_ret
  5820  003094  EF20  F018         	goto	l6958
  5821  003098                     l1777:
  5822  003098  0012               	return		;funcret
  5823  00309A                     __end_of_TimeValidation:
  5824                           	callstack 0
  5825                           
  5826 ;; *************** function _usartSend *****************
  5827 ;; Defined at:
  5828 ;;		line 289 in file "application.c"
  5829 ;; Parameters:    Size  Location     Type
  5830 ;;		None
  5831 ;; Auto vars:     Size  Location     Type
  5832 ;;  arrayTime       4    9[COMRAM] unsigned char [4]
  5833 ;; Return value:  Size  Location     Type
  5834 ;;                  1    wreg      void 
  5835 ;; Registers used:
  5836 ;;		wreg, fsr2l, fsr2h, status,2, status,0, cstack
  5837 ;; Tracked objects:
  5838 ;;		On entry : 0/0
  5839 ;;		On exit  : 0/0
  5840 ;;		Unchanged: 0/0
  5841 ;; Data sizes:     COMRAM   BANK0   BANK1   BANK2   BANK3   BANK4   BANK5   BANK6   BANK7   BANK8   BANK9  BANK10  BANK1
      +1  BANK12  BANK13  BANK14  BANK15
  5842 ;;      Params:         0       0       0       0       0       0       0       0       0       0       0       0       
      +0       0       0       0       0
  5843 ;;      Locals:         4       0       0       0       0       0       0       0       0       0       0       0       
      +0       0       0       0       0
  5844 ;;      Temps:          0       0       0       0       0       0       0       0       0       0       0       0       
      +0       0       0       0       0
  5845 ;;      Totals:         4       0       0       0       0       0       0       0       0       0       0       0       
      +0       0       0       0       0
  5846 ;;Total ram usage:        4 bytes
  5847 ;; Hardware stack levels used: 1
  5848 ;; Hardware stack levels required when called: 4
  5849 ;; This function calls:
  5850 ;;		_EUSART_ASYNC_WriteStringBlocking
  5851 ;; This function is called by:
  5852 ;;		_TimeValidation
  5853 ;; This function uses a non-reentrant model
  5854 ;;
  5855                           
  5856                           	psect	text23
  5857  0035EE                     __ptext23:
  5858                           	callstack 0
  5859  0035EE                     _usartSend:
  5860                           	callstack 25
  5861  0035EE                     
  5862                           ;application.c: 291:     uint8 arrayTime[4];;application.c: 292:     arrayTime[0] = hour
      +                           + '0';
  5863  0035EE  5069               	movf	_hour^0,w,c
  5864  0035F0  0F30               	addlw	48
  5865  0035F2  6E0A               	movwf	usartSend@arrayTime^0,c
  5866                           
  5867                           ;application.c: 293:     arrayTime[1] = min + '0';
  5868  0035F4  5068               	movf	_min^0,w,c
  5869  0035F6  0F30               	addlw	48
  5870  0035F8  6E0B               	movwf	(usartSend@arrayTime+1)^0,c
  5871                           
  5872                           ;application.c: 294:     arrayTime[2] = sec + '0';
  5873  0035FA  5067               	movf	_sec^0,w,c
  5874  0035FC  0F30               	addlw	48
  5875  0035FE  6E0C               	movwf	(usartSend@arrayTime+2)^0,c
  5876  003600                     
  5877                           ;application.c: 295:     arrayTime[3] = '\0' ;
  5878  003600  0E00               	movlw	0
  5879  003602  6E0D               	movwf	(usartSend@arrayTime+3)^0,c
  5880  003604                     
  5881                           ;application.c: 296:     ret = EUSART_ASYNC_WriteStringBlocking(&arrayTime, 4);
  5882  003604  0E0A               	movlw	low usartSend@arrayTime
  5883  003606  6E03               	movwf	EUSART_ASYNC_WriteStringBlocking@_data^0,c
  5884  003608  0E00               	movlw	high usartSend@arrayTime
  5885  00360A  6E04               	movwf	(EUSART_ASYNC_WriteStringBlocking@_data+1)^0,c
  5886  00360C  0E00               	movlw	0
  5887  00360E  6E06               	movwf	(EUSART_ASYNC_WriteStringBlocking@str_len+1)^0,c
  5888  003610  0E04               	movlw	4
  5889  003612  6E05               	movwf	EUSART_ASYNC_WriteStringBlocking@str_len^0,c
  5890  003614  EC51  F01A         	call	_EUSART_ASYNC_WriteStringBlocking	;wreg free
  5891  003618  6E7C               	movwf	_ret^0,c
  5892  00361A  0012               	return		;funcret
  5893  00361C                     __end_of_usartSend:
  5894                           	callstack 0
  5895                           
  5896 ;; *************** function _EUSART_ASYNC_WriteStringBlocking *****************
  5897 ;; Defined at:
  5898 ;;		line 87 in file "MCAL_Layer/usart/hal_usart.c"
  5899 ;; Parameters:    Size  Location     Type
  5900 ;;  _data           2    2[COMRAM] PTR unsigned char 
  5901 ;;		 -> usartSend@arrayTime(4), 
  5902 ;;  str_len         2    4[COMRAM] unsigned short 
  5903 ;; Auto vars:     Size  Location     Type
  5904 ;;  char_counter    2    7[COMRAM] unsigned short 
  5905 ;;  ret             1    6[COMRAM] unsigned char 
  5906 ;; Return value:  Size  Location     Type
  5907 ;;                  1    wreg      unsigned char 
  5908 ;; Registers used:
  5909 ;;		wreg, fsr2l, fsr2h, status,2, status,0, cstack
  5910 ;; Tracked objects:
  5911 ;;		On entry : 0/0
  5912 ;;		On exit  : 0/0
  5913 ;;		Unchanged: 0/0
  5914 ;; Data sizes:     COMRAM   BANK0   BANK1   BANK2   BANK3   BANK4   BANK5   BANK6   BANK7   BANK8   BANK9  BANK10  BANK1
      +1  BANK12  BANK13  BANK14  BANK15
  5915 ;;      Params:         4       0       0       0       0       0       0       0       0       0       0       0       
      +0       0       0       0       0
  5916 ;;      Locals:         3       0       0       0       0       0       0       0       0       0       0       0       
      +0       0       0       0       0
  5917 ;;      Temps:          0       0       0       0       0       0       0       0       0       0       0       0       
      +0       0       0       0       0
  5918 ;;      Totals:         7       0       0       0       0       0       0       0       0       0       0       0       
      +0       0       0       0       0
  5919 ;;Total ram usage:        7 bytes
  5920 ;; Hardware stack levels used: 1
  5921 ;; Hardware stack levels required when called: 3
  5922 ;; This function calls:
  5923 ;;		_EUSART_ASYNC_WriteByteBlocking
  5924 ;; This function is called by:
  5925 ;;		_usartSend
  5926 ;; This function uses a non-reentrant model
  5927 ;;
  5928                           
  5929                           	psect	text24
  5930  0034A2                     __ptext24:
  5931                           	callstack 0
  5932  0034A2                     _EUSART_ASYNC_WriteStringBlocking:
  5933                           	callstack 25
  5934  0034A2                     
  5935                           ;MCAL_Layer/usart/hal_usart.c: 88:     Std_ReturnType ret = (Std_ReturnType)0x01;
  5936  0034A2  0E01               	movlw	1
  5937  0034A4  6E07               	movwf	EUSART_ASYNC_WriteStringBlocking@ret^0,c
  5938                           
  5939                           ;MCAL_Layer/usart/hal_usart.c: 89:     uint16 char_counter = 0;
  5940  0034A6  0E00               	movlw	0
  5941  0034A8  6E09               	movwf	(EUSART_ASYNC_WriteStringBlocking@char_counter+1)^0,c
  5942  0034AA  0E00               	movlw	0
  5943  0034AC  6E08               	movwf	EUSART_ASYNC_WriteStringBlocking@char_counter^0,c
  5944                           
  5945                           ;MCAL_Layer/usart/hal_usart.c: 90:     for(char_counter=0; char_counter < str_len; char_
      +                          counter++){
  5946  0034AE  0E00               	movlw	0
  5947  0034B0  6E09               	movwf	(EUSART_ASYNC_WriteStringBlocking@char_counter+1)^0,c
  5948  0034B2  0E00               	movlw	0
  5949  0034B4  6E08               	movwf	EUSART_ASYNC_WriteStringBlocking@char_counter^0,c
  5950  0034B6  EF69  F01A         	goto	l6456
  5951  0034BA                     l6452:
  5952                           
  5953                           ;MCAL_Layer/usart/hal_usart.c: 91:         ret = EUSART_ASYNC_WriteByteBlocking(_data[ch
      +                          ar_counter]);
  5954  0034BA  5008               	movf	EUSART_ASYNC_WriteStringBlocking@char_counter^0,w,c
  5955  0034BC  2403               	addwf	EUSART_ASYNC_WriteStringBlocking@_data^0,w,c
  5956  0034BE  6ED9               	movwf	fsr2l,c
  5957  0034C0  5009               	movf	(EUSART_ASYNC_WriteStringBlocking@char_counter+1)^0,w,c
  5958  0034C2  2004               	addwfc	(EUSART_ASYNC_WriteStringBlocking@_data+1)^0,w,c
  5959  0034C4  6EDA               	movwf	fsr2h,c
  5960  0034C6  50DF               	movf	indf2,w,c
  5961  0034C8  EC35  F01B         	call	_EUSART_ASYNC_WriteByteBlocking
  5962  0034CC  6E07               	movwf	EUSART_ASYNC_WriteStringBlocking@ret^0,c
  5963  0034CE                     
  5964                           ;MCAL_Layer/usart/hal_usart.c: 92:     }
  5965  0034CE  4A08               	infsnz	EUSART_ASYNC_WriteStringBlocking@char_counter^0,f,c
  5966  0034D0  2A09               	incf	(EUSART_ASYNC_WriteStringBlocking@char_counter+1)^0,f,c
  5967  0034D2                     l6456:
  5968  0034D2  5005               	movf	EUSART_ASYNC_WriteStringBlocking@str_len^0,w,c
  5969  0034D4  5C08               	subwf	EUSART_ASYNC_WriteStringBlocking@char_counter^0,w,c
  5970  0034D6  5006               	movf	(EUSART_ASYNC_WriteStringBlocking@str_len+1)^0,w,c
  5971  0034D8  5809               	subwfb	(EUSART_ASYNC_WriteStringBlocking@char_counter+1)^0,w,c
  5972  0034DA  A0D8               	btfss	status,0,c
  5973  0034DC  EF72  F01A         	goto	u5371
  5974  0034E0  EF74  F01A         	goto	u5370
  5975  0034E4                     u5371:
  5976  0034E4  EF5D  F01A         	goto	l6452
  5977  0034E8                     u5370:
  5978  0034E8                     
  5979                           ;MCAL_Layer/usart/hal_usart.c: 93:     return ret;
  5980  0034E8  5007               	movf	EUSART_ASYNC_WriteStringBlocking@ret^0,w,c
  5981  0034EA  0012               	return		;funcret
  5982  0034EC                     __end_of_EUSART_ASYNC_WriteStringBlocking:
  5983                           	callstack 0
  5984                           
  5985 ;; *************** function _EUSART_ASYNC_WriteByteBlocking *****************
  5986 ;; Defined at:
  5987 ;;		line 77 in file "MCAL_Layer/usart/hal_usart.c"
  5988 ;; Parameters:    Size  Location     Type
  5989 ;;  _data           1    wreg     unsigned char 
  5990 ;; Auto vars:     Size  Location     Type
  5991 ;;  _data           1    1[COMRAM] unsigned char 
  5992 ;;  ret             1    0        unsigned char 
  5993 ;; Return value:  Size  Location     Type
  5994 ;;                  1    wreg      unsigned char 
  5995 ;; Registers used:
  5996 ;;		wreg, status,2
  5997 ;; Tracked objects:
  5998 ;;		On entry : 0/0
  5999 ;;		On exit  : 0/0
  6000 ;;		Unchanged: 0/0
  6001 ;; Data sizes:     COMRAM   BANK0   BANK1   BANK2   BANK3   BANK4   BANK5   BANK6   BANK7   BANK8   BANK9  BANK10  BANK1
      +1  BANK12  BANK13  BANK14  BANK15
  6002 ;;      Params:         0       0       0       0       0       0       0       0       0       0       0       0       
      +0       0       0       0       0
  6003 ;;      Locals:         1       0       0       0       0       0       0       0       0       0       0       0       
      +0       0       0       0       0
  6004 ;;      Temps:          0       0       0       0       0       0       0       0       0       0       0       0       
      +0       0       0       0       0
  6005 ;;      Totals:         1       0       0       0       0       0       0       0       0       0       0       0       
      +0       0       0       0       0
  6006 ;;Total ram usage:        1 bytes
  6007 ;; Hardware stack levels used: 1
  6008 ;; Hardware stack levels required when called: 2
  6009 ;; This function calls:
  6010 ;;		Nothing
  6011 ;; This function is called by:
  6012 ;;		_EUSART_ASYNC_WriteStringBlocking
  6013 ;; This function uses a non-reentrant model
  6014 ;;
  6015                           
  6016                           	psect	text25
  6017  00366A                     __ptext25:
  6018                           	callstack 0
  6019  00366A                     _EUSART_ASYNC_WriteByteBlocking:
  6020                           	callstack 25
  6021                           
  6022                           ;incstack = 0
  6023                           ;EUSART_ASYNC_WriteByteBlocking@_data stored from wreg
  6024  00366A  6E02               	movwf	EUSART_ASYNC_WriteByteBlocking@_data^0,c
  6025  00366C                     l1625:
  6026  00366C  A2AC               	btfss	172,1,c	;volatile
  6027  00366E  EF3B  F01B         	goto	u4401
  6028  003672  EF3D  F01B         	goto	u4400
  6029  003676                     u4401:
  6030  003676  EF36  F01B         	goto	l1625
  6031  00367A                     u4400:
  6032  00367A                     
  6033                           ;MCAL_Layer/usart/hal_usart.c: 81:     (PIE1bits.TXIE = 1);
  6034  00367A  889D               	bsf	157,4,c	;volatile
  6035  00367C                     
  6036                           ;MCAL_Layer/usart/hal_usart.c: 83:     TXREG = _data;
  6037  00367C  C002  FFAD         	movff	EUSART_ASYNC_WriteByteBlocking@_data,4013	;volatile
  6038  003680                     
  6039                           ;MCAL_Layer/usart/hal_usart.c: 84:     return ret;
  6040  003680  0E01               	movlw	1
  6041  003682  0012               	return		;funcret
  6042  003684                     __end_of_EUSART_ASYNC_WriteByteBlocking:
  6043                           	callstack 0
  6044                           
  6045 ;; *************** function _lcd_4bit_send_string_pos *****************
  6046 ;; Defined at:
  6047 ;;		line 163 in file "ECU_Layer/Chr_LCD/ecu_chr_lcd.c"
  6048 ;; Parameters:    Size  Location     Type
  6049 ;;  lcd             2   26[COMRAM] PTR const struct .
  6050 ;;		 -> lcd_1(6), 
  6051 ;;  row             1   28[COMRAM] unsigned char 
  6052 ;;  column          1   29[COMRAM] unsigned char 
  6053 ;;  str             2   30[COMRAM] PTR unsigned char 
  6054 ;;		 -> STR_11(9), STR_10(11), STR_9(11), STR_8(10), 
  6055 ;;		 -> STR_7(6), STR_6(15), STR_5(15), STR_4(28), 
  6056 ;; Auto vars:     Size  Location     Type
  6057 ;;  ret             1   32[COMRAM] unsigned char 
  6058 ;; Return value:  Size  Location     Type
  6059 ;;                  1    wreg      unsigned char 
  6060 ;; Registers used:
  6061 ;;		wreg, fsr2l, fsr2h, status,2, status,0, tblptrl, tblptrh, tblptru, prodl, prodh, cstack
  6062 ;; Tracked objects:
  6063 ;;		On entry : 0/0
  6064 ;;		On exit  : 0/0
  6065 ;;		Unchanged: 0/0
  6066 ;; Data sizes:     COMRAM   BANK0   BANK1   BANK2   BANK3   BANK4   BANK5   BANK6   BANK7   BANK8   BANK9  BANK10  BANK1
      +1  BANK12  BANK13  BANK14  BANK15
  6067 ;;      Params:         6       0       0       0       0       0       0       0       0       0       0       0       
      +0       0       0       0       0
  6068 ;;      Locals:         1       0       0       0       0       0       0       0       0       0       0       0       
      +0       0       0       0       0
  6069 ;;      Temps:          0       0       0       0       0       0       0       0       0       0       0       0       
      +0       0       0       0       0
  6070 ;;      Totals:         7       0       0       0       0       0       0       0       0       0       0       0       
      +0       0       0       0       0
  6071 ;;Total ram usage:        7 bytes
  6072 ;; Hardware stack levels used: 1
  6073 ;; Hardware stack levels required when called: 6
  6074 ;; This function calls:
  6075 ;;		_lcd_4bit_send_char_data
  6076 ;;		_lcd_4bit_set_cursor
  6077 ;; This function is called by:
  6078 ;;		_main
  6079 ;;		_TimeValidation
  6080 ;;		_getHoures
  6081 ;;		_getMinutes
  6082 ;;		_getSeconds
  6083 ;;		_WelcomingMessage
  6084 ;; This function uses a non-reentrant model
  6085 ;;
  6086                           
  6087                           	psect	text26
  6088  0031C2                     __ptext26:
  6089                           	callstack 0
  6090  0031C2                     _lcd_4bit_send_string_pos:
  6091                           	callstack 24
  6092  0031C2                     
  6093                           ;ECU_Layer/Chr_LCD/ecu_chr_lcd.c: 165:     if(((void*)0) == lcd){
  6094  0031C2  501B               	movf	lcd_4bit_send_string_pos@lcd^0,w,c
  6095  0031C4  101C               	iorwf	(lcd_4bit_send_string_pos@lcd+1)^0,w,c
  6096  0031C6  A4D8               	btfss	status,2,c
  6097  0031C8  EFE8  F018         	goto	u5411
  6098  0031CC  EFEA  F018         	goto	u5410
  6099  0031D0                     u5411:
  6100  0031D0  EFEE  F018         	goto	l6526
  6101  0031D4                     u5410:
  6102  0031D4                     
  6103                           ;ECU_Layer/Chr_LCD/ecu_chr_lcd.c: 166:         ret = (Std_ReturnType)0x00;
  6104  0031D4  0E00               	movlw	0
  6105  0031D6  6E21               	movwf	lcd_4bit_send_string_pos@ret^0,c
  6106                           
  6107                           ;ECU_Layer/Chr_LCD/ecu_chr_lcd.c: 167:     }
  6108  0031D8  EF1B  F019         	goto	l6534
  6109  0031DC                     l6526:
  6110                           
  6111                           ;ECU_Layer/Chr_LCD/ecu_chr_lcd.c: 169:         ret = lcd_4bit_set_cursor(lcd, row, colum
      +                          n);
  6112  0031DC  C01B  F014         	movff	lcd_4bit_send_string_pos@lcd,lcd_4bit_set_cursor@lcd
  6113  0031E0  C01C  F015         	movff	lcd_4bit_send_string_pos@lcd+1,lcd_4bit_set_cursor@lcd+1
  6114  0031E4  C01D  F016         	movff	lcd_4bit_send_string_pos@row,lcd_4bit_set_cursor@row
  6115  0031E8  C01E  F017         	movff	lcd_4bit_send_string_pos@column,lcd_4bit_set_cursor@coulmn
  6116  0031EC  EC4D  F018         	call	_lcd_4bit_set_cursor	;wreg free
  6117  0031F0  6E21               	movwf	lcd_4bit_send_string_pos@ret^0,c
  6118                           
  6119                           ;ECU_Layer/Chr_LCD/ecu_chr_lcd.c: 170:         while(*str){
  6120  0031F2  EF0C  F019         	goto	l6532
  6121  0031F6                     l6528:
  6122                           
  6123                           ;ECU_Layer/Chr_LCD/ecu_chr_lcd.c: 171:             ret = lcd_4bit_send_char_data(lcd, *s
      +                          tr++);
  6124  0031F6  C01B  F010         	movff	lcd_4bit_send_string_pos@lcd,lcd_4bit_send_char_data@lcd
  6125  0031FA  C01C  F011         	movff	lcd_4bit_send_string_pos@lcd+1,lcd_4bit_send_char_data@lcd+1
  6126  0031FE  C01F  FFF6         	movff	lcd_4bit_send_string_pos@str,tblptrl
  6127  003202  C020  FFF7         	movff	lcd_4bit_send_string_pos@str+1,tblptrh
  6128  003206                     	if	1	;Program memory is < 0x10000, tblptru is always zero
  6129  003206  6AF8               	clrf	tblptru,c
  6130  003208                     	endif
  6131  003208                     	if	0	;tblptru may be non-zero
  6132  003208                     	endif
  6133  003208  0008               	tblrd		*
  6134  00320A  CFF5 F012          	movff	tablat,lcd_4bit_send_char_data@data
  6135  00320E  EC56  F019         	call	_lcd_4bit_send_char_data	;wreg free
  6136  003212  6E21               	movwf	lcd_4bit_send_string_pos@ret^0,c
  6137  003214  4A1F               	infsnz	lcd_4bit_send_string_pos@str^0,f,c
  6138  003216  2A20               	incf	(lcd_4bit_send_string_pos@str+1)^0,f,c
  6139  003218                     l6532:
  6140                           
  6141                           ;ECU_Layer/Chr_LCD/ecu_chr_lcd.c: 170:         while(*str){
  6142  003218  C01F  FFF6         	movff	lcd_4bit_send_string_pos@str,tblptrl
  6143  00321C  C020  FFF7         	movff	lcd_4bit_send_string_pos@str+1,tblptrh
  6144  003220                     	if	1	;Program memory is < 0x10000, tblptru is always zero
  6145  003220  6AF8               	clrf	tblptru,c
  6146  003222                     	endif
  6147  003222                     	if	0	;tblptru may be non-zero
  6148  003222                     	endif
  6149  003222  0008               	tblrd		*
  6150  003224  50F5               	movf	tablat,w,c
  6151  003226  0900               	iorlw	0
  6152  003228  A4D8               	btfss	status,2,c
  6153  00322A  EF19  F019         	goto	u5421
  6154  00322E  EF1B  F019         	goto	u5420
  6155  003232                     u5421:
  6156  003232  EFFB  F018         	goto	l6528
  6157  003236                     u5420:
  6158  003236                     l6534:
  6159                           
  6160                           ;ECU_Layer/Chr_LCD/ecu_chr_lcd.c: 174:     return ret;
  6161  003236  5021               	movf	lcd_4bit_send_string_pos@ret^0,w,c
  6162  003238  0012               	return		;funcret
  6163  00323A                     __end_of_lcd_4bit_send_string_pos:
  6164                           	callstack 0
  6165                           
  6166 ;; *************** function _lcd_4bit_set_cursor *****************
  6167 ;; Defined at:
  6168 ;;		line 535 in file "ECU_Layer/Chr_LCD/ecu_chr_lcd.c"
  6169 ;; Parameters:    Size  Location     Type
  6170 ;;  lcd             2   19[COMRAM] PTR const struct .
  6171 ;;		 -> lcd_1(6), 
  6172 ;;  row             1   21[COMRAM] unsigned char 
  6173 ;;  coulmn          1   22[COMRAM] unsigned char 
  6174 ;; Auto vars:     Size  Location     Type
  6175 ;;  ret             1   25[COMRAM] unsigned char 
  6176 ;; Return value:  Size  Location     Type
  6177 ;;                  1    wreg      unsigned char 
  6178 ;; Registers used:
  6179 ;;		wreg, fsr2l, fsr2h, status,2, status,0, prodl, prodh, cstack
  6180 ;; Tracked objects:
  6181 ;;		On entry : 0/0
  6182 ;;		On exit  : 0/0
  6183 ;;		Unchanged: 0/0
  6184 ;; Data sizes:     COMRAM   BANK0   BANK1   BANK2   BANK3   BANK4   BANK5   BANK6   BANK7   BANK8   BANK9  BANK10  BANK1
      +1  BANK12  BANK13  BANK14  BANK15
  6185 ;;      Params:         4       0       0       0       0       0       0       0       0       0       0       0       
      +0       0       0       0       0
  6186 ;;      Locals:         1       0       0       0       0       0       0       0       0       0       0       0       
      +0       0       0       0       0
  6187 ;;      Temps:          2       0       0       0       0       0       0       0       0       0       0       0       
      +0       0       0       0       0
  6188 ;;      Totals:         7       0       0       0       0       0       0       0       0       0       0       0       
      +0       0       0       0       0
  6189 ;;Total ram usage:        7 bytes
  6190 ;; Hardware stack levels used: 1
  6191 ;; Hardware stack levels required when called: 5
  6192 ;; This function calls:
  6193 ;;		_lcd_4bit_send_command
  6194 ;; This function is called by:
  6195 ;;		_lcd_4bit_send_char_data_pos
  6196 ;;		_lcd_4bit_send_string_pos
  6197 ;; This function uses a non-reentrant model
  6198 ;;
  6199                           
  6200                           	psect	text27
  6201  00309A                     __ptext27:
  6202                           	callstack 0
  6203  00309A                     _lcd_4bit_set_cursor:
  6204                           	callstack 24
  6205  00309A                     
  6206                           ;ECU_Layer/Chr_LCD/ecu_chr_lcd.c: 536:     Std_ReturnType ret = (Std_ReturnType)0x01;
  6207  00309A  0E01               	movlw	1
  6208  00309C  6E1A               	movwf	lcd_4bit_set_cursor@ret^0,c
  6209  00309E                     
  6210                           ;ECU_Layer/Chr_LCD/ecu_chr_lcd.c: 537:     coulmn--;
  6211  00309E  0617               	decf	lcd_4bit_set_cursor@coulmn^0,f,c
  6212                           
  6213                           ;ECU_Layer/Chr_LCD/ecu_chr_lcd.c: 538:     switch(row){
  6214  0030A0  EF82  F018         	goto	l6366
  6215  0030A4                     l6358:
  6216  0030A4  C014  F010         	movff	lcd_4bit_set_cursor@lcd,lcd_4bit_send_command@lcd
  6217  0030A8  C015  F011         	movff	lcd_4bit_set_cursor@lcd+1,lcd_4bit_send_command@lcd+1
  6218  0030AC  5017               	movf	lcd_4bit_set_cursor@coulmn^0,w,c
  6219  0030AE  0F80               	addlw	128
  6220  0030B0  6E12               	movwf	lcd_4bit_send_command@command^0,c
  6221  0030B2  EC1D  F019         	call	_lcd_4bit_send_command	;wreg free
  6222  0030B6  6E1A               	movwf	lcd_4bit_set_cursor@ret^0,c
  6223  0030B8  EF9F  F018         	goto	l6368
  6224  0030BC                     l6360:
  6225  0030BC  C014  F010         	movff	lcd_4bit_set_cursor@lcd,lcd_4bit_send_command@lcd
  6226  0030C0  C015  F011         	movff	lcd_4bit_set_cursor@lcd+1,lcd_4bit_send_command@lcd+1
  6227  0030C4  5017               	movf	lcd_4bit_set_cursor@coulmn^0,w,c
  6228  0030C6  0FC0               	addlw	192
  6229  0030C8  6E12               	movwf	lcd_4bit_send_command@command^0,c
  6230  0030CA  EC1D  F019         	call	_lcd_4bit_send_command	;wreg free
  6231  0030CE  6E1A               	movwf	lcd_4bit_set_cursor@ret^0,c
  6232  0030D0  EF9F  F018         	goto	l6368
  6233  0030D4                     l6362:
  6234  0030D4  C014  F010         	movff	lcd_4bit_set_cursor@lcd,lcd_4bit_send_command@lcd
  6235  0030D8  C015  F011         	movff	lcd_4bit_set_cursor@lcd+1,lcd_4bit_send_command@lcd+1
  6236  0030DC  5017               	movf	lcd_4bit_set_cursor@coulmn^0,w,c
  6237  0030DE  0F94               	addlw	148
  6238  0030E0  6E12               	movwf	lcd_4bit_send_command@command^0,c
  6239  0030E2  EC1D  F019         	call	_lcd_4bit_send_command	;wreg free
  6240  0030E6  6E1A               	movwf	lcd_4bit_set_cursor@ret^0,c
  6241  0030E8  EF9F  F018         	goto	l6368
  6242  0030EC                     l6364:
  6243  0030EC  C014  F010         	movff	lcd_4bit_set_cursor@lcd,lcd_4bit_send_command@lcd
  6244  0030F0  C015  F011         	movff	lcd_4bit_set_cursor@lcd+1,lcd_4bit_send_command@lcd+1
  6245  0030F4  5017               	movf	lcd_4bit_set_cursor@coulmn^0,w,c
  6246  0030F6  0FD4               	addlw	212
  6247  0030F8  6E12               	movwf	lcd_4bit_send_command@command^0,c
  6248  0030FA  EC1D  F019         	call	_lcd_4bit_send_command	;wreg free
  6249  0030FE  6E1A               	movwf	lcd_4bit_set_cursor@ret^0,c
  6250  003100  EF9F  F018         	goto	l6368
  6251  003104                     l6366:
  6252  003104  5016               	movf	lcd_4bit_set_cursor@row^0,w,c
  6253  003106  6E18               	movwf	??_lcd_4bit_set_cursor^0,c
  6254  003108  6A19               	clrf	(??_lcd_4bit_set_cursor+1)^0,c
  6255                           
  6256                           ; Switch on 2 bytes has been partitioned into a top level switch of size 1, and 1 sub-sw
      +                          itches
  6257                           ; Switch size 1, requested type "simple"
  6258                           ; Number of cases is 1, Range of values is 0 to 0
  6259                           ; switch strategies available:
  6260                           ; Name         Instructions Cycles
  6261                           ; simple_byte            4     3 (average)
  6262                           ;	Chosen strategy is simple_byte
  6263  00310A  5019               	movf	(??_lcd_4bit_set_cursor+1)^0,w,c
  6264  00310C  0A00               	xorlw	0	; case 0
  6265  00310E  B4D8               	btfsc	status,2,c
  6266  003110  EF8C  F018         	goto	l8350
  6267  003114  EF9F  F018         	goto	l6368
  6268  003118                     l8350:
  6269                           
  6270                           ; Switch size 1, requested type "simple"
  6271                           ; Number of cases is 4, Range of values is 1 to 4
  6272                           ; switch strategies available:
  6273                           ; Name         Instructions Cycles
  6274                           ; simple_byte           13     7 (average)
  6275                           ;	Chosen strategy is simple_byte
  6276  003118  5018               	movf	??_lcd_4bit_set_cursor^0,w,c
  6277  00311A  0A01               	xorlw	1	; case 1
  6278  00311C  B4D8               	btfsc	status,2,c
  6279  00311E  EF52  F018         	goto	l6358
  6280  003122  0A03               	xorlw	3	; case 2
  6281  003124  B4D8               	btfsc	status,2,c
  6282  003126  EF5E  F018         	goto	l6360
  6283  00312A  0A01               	xorlw	1	; case 3
  6284  00312C  B4D8               	btfsc	status,2,c
  6285  00312E  EF6A  F018         	goto	l6362
  6286  003132  0A07               	xorlw	7	; case 4
  6287  003134  B4D8               	btfsc	status,2,c
  6288  003136  EF76  F018         	goto	l6364
  6289  00313A  EF9F  F018         	goto	l6368
  6290  00313E                     l6368:
  6291                           
  6292                           ;ECU_Layer/Chr_LCD/ecu_chr_lcd.c: 545:     return ret;
  6293  00313E  501A               	movf	lcd_4bit_set_cursor@ret^0,w,c
  6294  003140  0012               	return		;funcret
  6295  003142                     __end_of_lcd_4bit_set_cursor:
  6296                           	callstack 0
  6297                           
  6298 ;; *************** function _lcd_4bit_send_command *****************
  6299 ;; Defined at:
  6300 ;;		line 60 in file "ECU_Layer/Chr_LCD/ecu_chr_lcd.c"
  6301 ;; Parameters:    Size  Location     Type
  6302 ;;  lcd             2   15[COMRAM] PTR const struct .
  6303 ;;		 -> lcd_1(6), 
  6304 ;;  command         1   17[COMRAM] unsigned char 
  6305 ;; Auto vars:     Size  Location     Type
  6306 ;;  ret             1   18[COMRAM] unsigned char 
  6307 ;; Return value:  Size  Location     Type
  6308 ;;                  1    wreg      unsigned char 
  6309 ;; Registers used:
  6310 ;;		wreg, fsr2l, fsr2h, status,2, status,0, prodl, prodh, cstack
  6311 ;; Tracked objects:
  6312 ;;		On entry : 0/0
  6313 ;;		On exit  : 0/0
  6314 ;;		Unchanged: 0/0
  6315 ;; Data sizes:     COMRAM   BANK0   BANK1   BANK2   BANK3   BANK4   BANK5   BANK6   BANK7   BANK8   BANK9  BANK10  BANK1
      +1  BANK12  BANK13  BANK14  BANK15
  6316 ;;      Params:         3       0       0       0       0       0       0       0       0       0       0       0       
      +0       0       0       0       0
  6317 ;;      Locals:         1       0       0       0       0       0       0       0       0       0       0       0       
      +0       0       0       0       0
  6318 ;;      Temps:          0       0       0       0       0       0       0       0       0       0       0       0       
      +0       0       0       0       0
  6319 ;;      Totals:         4       0       0       0       0       0       0       0       0       0       0       0       
      +0       0       0       0       0
  6320 ;;Total ram usage:        4 bytes
  6321 ;; Hardware stack levels used: 1
  6322 ;; Hardware stack levels required when called: 4
  6323 ;; This function calls:
  6324 ;;		_gpio_pin_write_logic
  6325 ;;		_lcd_4bit_send_enable_signal
  6326 ;;		_lcd_send_4bits
  6327 ;; This function is called by:
  6328 ;;		_lcd_4bit_intialize
  6329 ;;		_lcd_4bit_set_cursor
  6330 ;;		_main
  6331 ;;		_TimeValidation
  6332 ;;		_getHoures
  6333 ;;		_getMinutes
  6334 ;;		_getSeconds
  6335 ;;		_WelcomingMessage
  6336 ;;		_lcd_4bit_send_custom_char
  6337 ;; This function uses a non-reentrant model
  6338 ;;
  6339                           
  6340                           	psect	text28
  6341  00323A                     __ptext28:
  6342                           	callstack 0
  6343  00323A                     _lcd_4bit_send_command:
  6344                           	callstack 24
  6345  00323A                     
  6346                           ;ECU_Layer/Chr_LCD/ecu_chr_lcd.c: 62:     if(((void*)0) == lcd){
  6347  00323A  5010               	movf	lcd_4bit_send_command@lcd^0,w,c
  6348  00323C  1011               	iorwf	(lcd_4bit_send_command@lcd+1)^0,w,c
  6349  00323E  A4D8               	btfss	status,2,c
  6350  003240  EF24  F019         	goto	u4391
  6351  003244  EF26  F019         	goto	u4390
  6352  003248                     u4391:
  6353  003248  EF2A  F019         	goto	l5868
  6354  00324C                     u4390:
  6355  00324C                     
  6356                           ;ECU_Layer/Chr_LCD/ecu_chr_lcd.c: 63:         ret = (Std_ReturnType)0x00;
  6357  00324C  0E00               	movlw	0
  6358  00324E  6E13               	movwf	lcd_4bit_send_command@ret^0,c
  6359                           
  6360                           ;ECU_Layer/Chr_LCD/ecu_chr_lcd.c: 64:     }
  6361  003250  EF54  F019         	goto	l5870
  6362  003254                     l5868:
  6363                           
  6364                           ;ECU_Layer/Chr_LCD/ecu_chr_lcd.c: 68:         ret = gpio_pin_write_logic(&(lcd->lcd_rs),
      +                           GPIO_LOW);
  6365  003254  C010  F002         	movff	lcd_4bit_send_command@lcd,gpio_pin_write_logic@_pin_config
  6366  003258  C011  F003         	movff	lcd_4bit_send_command@lcd+1,gpio_pin_write_logic@_pin_config+1
  6367  00325C  0E00               	movlw	0
  6368  00325E  6E04               	movwf	gpio_pin_write_logic@logic^0,c
  6369  003260  ECF0  F012         	call	_gpio_pin_write_logic	;wreg free
  6370  003264  6E13               	movwf	lcd_4bit_send_command@ret^0,c
  6371                           
  6372                           ;ECU_Layer/Chr_LCD/ecu_chr_lcd.c: 70:         ret = lcd_send_4bits(lcd, command >> 4);
  6373  003266  C010  F00C         	movff	lcd_4bit_send_command@lcd,lcd_send_4bits@lcd
  6374  00326A  C011  F00D         	movff	lcd_4bit_send_command@lcd+1,lcd_send_4bits@lcd+1
  6375  00326E  3812               	swapf	lcd_4bit_send_command@command^0,w,c
  6376  003270  0B0F               	andlw	15
  6377  003272  6E0E               	movwf	lcd_send_4bits@_data_command^0,c
  6378  003274  ECC5  F019         	call	_lcd_send_4bits	;wreg free
  6379  003278  6E13               	movwf	lcd_4bit_send_command@ret^0,c
  6380                           
  6381                           ;ECU_Layer/Chr_LCD/ecu_chr_lcd.c: 72:         ret = lcd_4bit_send_enable_signal(lcd);
  6382  00327A  C010  F00C         	movff	lcd_4bit_send_command@lcd,lcd_4bit_send_enable_signal@lcd
  6383  00327E  C011  F00D         	movff	lcd_4bit_send_command@lcd+1,lcd_4bit_send_enable_signal@lcd+1
  6384  003282  ECDC  F01A         	call	_lcd_4bit_send_enable_signal	;wreg free
  6385  003286  6E13               	movwf	lcd_4bit_send_command@ret^0,c
  6386                           
  6387                           ;ECU_Layer/Chr_LCD/ecu_chr_lcd.c: 74:         ret = lcd_send_4bits(lcd, command);
  6388  003288  C010  F00C         	movff	lcd_4bit_send_command@lcd,lcd_send_4bits@lcd
  6389  00328C  C011  F00D         	movff	lcd_4bit_send_command@lcd+1,lcd_send_4bits@lcd+1
  6390  003290  C012  F00E         	movff	lcd_4bit_send_command@command,lcd_send_4bits@_data_command
  6391  003294  ECC5  F019         	call	_lcd_send_4bits	;wreg free
  6392  003298  6E13               	movwf	lcd_4bit_send_command@ret^0,c
  6393                           
  6394                           ;ECU_Layer/Chr_LCD/ecu_chr_lcd.c: 76:         ret = lcd_4bit_send_enable_signal(lcd);
  6395  00329A  C010  F00C         	movff	lcd_4bit_send_command@lcd,lcd_4bit_send_enable_signal@lcd
  6396  00329E  C011  F00D         	movff	lcd_4bit_send_command@lcd+1,lcd_4bit_send_enable_signal@lcd+1
  6397  0032A2  ECDC  F01A         	call	_lcd_4bit_send_enable_signal	;wreg free
  6398  0032A6  6E13               	movwf	lcd_4bit_send_command@ret^0,c
  6399  0032A8                     l5870:
  6400                           
  6401                           ;ECU_Layer/Chr_LCD/ecu_chr_lcd.c: 78:     return ret;
  6402  0032A8  5013               	movf	lcd_4bit_send_command@ret^0,w,c
  6403  0032AA  0012               	return		;funcret
  6404  0032AC                     __end_of_lcd_4bit_send_command:
  6405                           	callstack 0
  6406                           
  6407 ;; *************** function _lcd_4bit_send_char_data *****************
  6408 ;; Defined at:
  6409 ;;		line 89 in file "ECU_Layer/Chr_LCD/ecu_chr_lcd.c"
  6410 ;; Parameters:    Size  Location     Type
  6411 ;;  lcd             2   15[COMRAM] PTR const struct .
  6412 ;;		 -> lcd_1(6), 
  6413 ;;  data            1   17[COMRAM] unsigned char 
  6414 ;; Auto vars:     Size  Location     Type
  6415 ;;  ret             1   18[COMRAM] unsigned char 
  6416 ;; Return value:  Size  Location     Type
  6417 ;;                  1    wreg      unsigned char 
  6418 ;; Registers used:
  6419 ;;		wreg, fsr2l, fsr2h, status,2, status,0, prodl, prodh, cstack
  6420 ;; Tracked objects:
  6421 ;;		On entry : 0/0
  6422 ;;		On exit  : 0/0
  6423 ;;		Unchanged: 0/0
  6424 ;; Data sizes:     COMRAM   BANK0   BANK1   BANK2   BANK3   BANK4   BANK5   BANK6   BANK7   BANK8   BANK9  BANK10  BANK1
      +1  BANK12  BANK13  BANK14  BANK15
  6425 ;;      Params:         3       0       0       0       0       0       0       0       0       0       0       0       
      +0       0       0       0       0
  6426 ;;      Locals:         1       0       0       0       0       0       0       0       0       0       0       0       
      +0       0       0       0       0
  6427 ;;      Temps:          0       0       0       0       0       0       0       0       0       0       0       0       
      +0       0       0       0       0
  6428 ;;      Totals:         4       0       0       0       0       0       0       0       0       0       0       0       
      +0       0       0       0       0
  6429 ;;Total ram usage:        4 bytes
  6430 ;; Hardware stack levels used: 1
  6431 ;; Hardware stack levels required when called: 4
  6432 ;; This function calls:
  6433 ;;		_gpio_pin_write_logic
  6434 ;;		_lcd_4bit_send_enable_signal
  6435 ;;		_lcd_send_4bits
  6436 ;; This function is called by:
  6437 ;;		_lcd_4bit_send_char_data_pos
  6438 ;;		_lcd_4bit_send_string_pos
  6439 ;;		_lcd_4bit_send_string
  6440 ;;		_lcd_4bit_send_custom_char
  6441 ;; This function uses a non-reentrant model
  6442 ;;
  6443                           
  6444                           	psect	text29
  6445  0032AC                     __ptext29:
  6446                           	callstack 0
  6447  0032AC                     _lcd_4bit_send_char_data:
  6448                           	callstack 25
  6449  0032AC                     
  6450                           ;ECU_Layer/Chr_LCD/ecu_chr_lcd.c: 91:     if(((void*)0) == lcd){
  6451  0032AC  5010               	movf	lcd_4bit_send_char_data@lcd^0,w,c
  6452  0032AE  1011               	iorwf	(lcd_4bit_send_char_data@lcd+1)^0,w,c
  6453  0032B0  A4D8               	btfss	status,2,c
  6454  0032B2  EF5D  F019         	goto	u5261
  6455  0032B6  EF5F  F019         	goto	u5260
  6456  0032BA                     u5261:
  6457  0032BA  EF63  F019         	goto	l6348
  6458  0032BE                     u5260:
  6459  0032BE                     
  6460                           ;ECU_Layer/Chr_LCD/ecu_chr_lcd.c: 92:         ret = (Std_ReturnType)0x00;
  6461  0032BE  0E00               	movlw	0
  6462  0032C0  6E13               	movwf	lcd_4bit_send_char_data@ret^0,c
  6463                           
  6464                           ;ECU_Layer/Chr_LCD/ecu_chr_lcd.c: 93:     }
  6465  0032C2  EF8D  F019         	goto	l6350
  6466  0032C6                     l6348:
  6467                           
  6468                           ;ECU_Layer/Chr_LCD/ecu_chr_lcd.c: 97:         ret = gpio_pin_write_logic(&(lcd->lcd_rs),
      +                           GPIO_HIGH);
  6469  0032C6  C010  F002         	movff	lcd_4bit_send_char_data@lcd,gpio_pin_write_logic@_pin_config
  6470  0032CA  C011  F003         	movff	lcd_4bit_send_char_data@lcd+1,gpio_pin_write_logic@_pin_config+1
  6471  0032CE  0E01               	movlw	1
  6472  0032D0  6E04               	movwf	gpio_pin_write_logic@logic^0,c
  6473  0032D2  ECF0  F012         	call	_gpio_pin_write_logic	;wreg free
  6474  0032D6  6E13               	movwf	lcd_4bit_send_char_data@ret^0,c
  6475                           
  6476                           ;ECU_Layer/Chr_LCD/ecu_chr_lcd.c: 99:         ret = lcd_send_4bits(lcd, data >> 4);
  6477  0032D8  C010  F00C         	movff	lcd_4bit_send_char_data@lcd,lcd_send_4bits@lcd
  6478  0032DC  C011  F00D         	movff	lcd_4bit_send_char_data@lcd+1,lcd_send_4bits@lcd+1
  6479  0032E0  3812               	swapf	lcd_4bit_send_char_data@data^0,w,c
  6480  0032E2  0B0F               	andlw	15
  6481  0032E4  6E0E               	movwf	lcd_send_4bits@_data_command^0,c
  6482  0032E6  ECC5  F019         	call	_lcd_send_4bits	;wreg free
  6483  0032EA  6E13               	movwf	lcd_4bit_send_char_data@ret^0,c
  6484                           
  6485                           ;ECU_Layer/Chr_LCD/ecu_chr_lcd.c: 101:         ret = lcd_4bit_send_enable_signal(lcd);
  6486  0032EC  C010  F00C         	movff	lcd_4bit_send_char_data@lcd,lcd_4bit_send_enable_signal@lcd
  6487  0032F0  C011  F00D         	movff	lcd_4bit_send_char_data@lcd+1,lcd_4bit_send_enable_signal@lcd+1
  6488  0032F4  ECDC  F01A         	call	_lcd_4bit_send_enable_signal	;wreg free
  6489  0032F8  6E13               	movwf	lcd_4bit_send_char_data@ret^0,c
  6490                           
  6491                           ;ECU_Layer/Chr_LCD/ecu_chr_lcd.c: 103:         ret = lcd_send_4bits(lcd, data);
  6492  0032FA  C010  F00C         	movff	lcd_4bit_send_char_data@lcd,lcd_send_4bits@lcd
  6493  0032FE  C011  F00D         	movff	lcd_4bit_send_char_data@lcd+1,lcd_send_4bits@lcd+1
  6494  003302  C012  F00E         	movff	lcd_4bit_send_char_data@data,lcd_send_4bits@_data_command
  6495  003306  ECC5  F019         	call	_lcd_send_4bits	;wreg free
  6496  00330A  6E13               	movwf	lcd_4bit_send_char_data@ret^0,c
  6497                           
  6498                           ;ECU_Layer/Chr_LCD/ecu_chr_lcd.c: 105:         ret = lcd_4bit_send_enable_signal(lcd);
  6499  00330C  C010  F00C         	movff	lcd_4bit_send_char_data@lcd,lcd_4bit_send_enable_signal@lcd
  6500  003310  C011  F00D         	movff	lcd_4bit_send_char_data@lcd+1,lcd_4bit_send_enable_signal@lcd+1
  6501  003314  ECDC  F01A         	call	_lcd_4bit_send_enable_signal	;wreg free
  6502  003318  6E13               	movwf	lcd_4bit_send_char_data@ret^0,c
  6503  00331A                     l6350:
  6504                           
  6505                           ;ECU_Layer/Chr_LCD/ecu_chr_lcd.c: 107:     return ret;
  6506  00331A  5013               	movf	lcd_4bit_send_char_data@ret^0,w,c
  6507  00331C  0012               	return		;funcret
  6508  00331E                     __end_of_lcd_4bit_send_char_data:
  6509                           	callstack 0
  6510                           
  6511 ;; *************** function _lcd_send_4bits *****************
  6512 ;; Defined at:
  6513 ;;		line 465 in file "ECU_Layer/Chr_LCD/ecu_chr_lcd.c"
  6514 ;; Parameters:    Size  Location     Type
  6515 ;;  lcd             2   11[COMRAM] PTR const struct .
  6516 ;;		 -> lcd_1(6), 
  6517 ;;  _data_comman    1   13[COMRAM] unsigned char 
  6518 ;; Auto vars:     Size  Location     Type
  6519 ;;  ret             1   14[COMRAM] unsigned char 
  6520 ;; Return value:  Size  Location     Type
  6521 ;;                  1    wreg      unsigned char 
  6522 ;; Registers used:
  6523 ;;		wreg, fsr2l, fsr2h, status,2, status,0, prodl, prodh, cstack
  6524 ;; Tracked objects:
  6525 ;;		On entry : 0/0
  6526 ;;		On exit  : 0/0
  6527 ;;		Unchanged: 0/0
  6528 ;; Data sizes:     COMRAM   BANK0   BANK1   BANK2   BANK3   BANK4   BANK5   BANK6   BANK7   BANK8   BANK9  BANK10  BANK1
      +1  BANK12  BANK13  BANK14  BANK15
  6529 ;;      Params:         3       0       0       0       0       0       0       0       0       0       0       0       
      +0       0       0       0       0
  6530 ;;      Locals:         1       0       0       0       0       0       0       0       0       0       0       0       
      +0       0       0       0       0
  6531 ;;      Temps:          0       0       0       0       0       0       0       0       0       0       0       0       
      +0       0       0       0       0
  6532 ;;      Totals:         4       0       0       0       0       0       0       0       0       0       0       0       
      +0       0       0       0       0
  6533 ;;Total ram usage:        4 bytes
  6534 ;; Hardware stack levels used: 1
  6535 ;; Hardware stack levels required when called: 3
  6536 ;; This function calls:
  6537 ;;		_gpio_pin_write_logic
  6538 ;; This function is called by:
  6539 ;;		_lcd_4bit_send_command
  6540 ;;		_lcd_4bit_send_char_data
  6541 ;; This function uses a non-reentrant model
  6542 ;;
  6543                           
  6544                           	psect	text30
  6545  00338A                     __ptext30:
  6546                           	callstack 0
  6547  00338A                     _lcd_send_4bits:
  6548                           	callstack 24
  6549  00338A  0E02               	movlw	2
  6550  00338C  240C               	addwf	lcd_send_4bits@lcd^0,w,c
  6551  00338E  6E02               	movwf	gpio_pin_write_logic@_pin_config^0,c
  6552  003390  0E00               	movlw	0
  6553  003392  200D               	addwfc	(lcd_send_4bits@lcd+1)^0,w,c
  6554  003394  6E03               	movwf	(gpio_pin_write_logic@_pin_config+1)^0,c
  6555  003396  500E               	movf	lcd_send_4bits@_data_command^0,w,c
  6556  003398  0B01               	andlw	1
  6557  00339A  6E04               	movwf	gpio_pin_write_logic@logic^0,c
  6558  00339C  ECF0  F012         	call	_gpio_pin_write_logic	;wreg free
  6559  0033A0  0E03               	movlw	3
  6560  0033A2  240C               	addwf	lcd_send_4bits@lcd^0,w,c
  6561  0033A4  6E02               	movwf	gpio_pin_write_logic@_pin_config^0,c
  6562  0033A6  0E00               	movlw	0
  6563  0033A8  200D               	addwfc	(lcd_send_4bits@lcd+1)^0,w,c
  6564  0033AA  6E03               	movwf	(gpio_pin_write_logic@_pin_config+1)^0,c
  6565  0033AC  90D8               	bcf	status,0,c
  6566  0033AE  300E               	rrcf	lcd_send_4bits@_data_command^0,w,c
  6567  0033B0  0B01               	andlw	1
  6568  0033B2  6E04               	movwf	gpio_pin_write_logic@logic^0,c
  6569  0033B4  ECF0  F012         	call	_gpio_pin_write_logic	;wreg free
  6570  0033B8  0E04               	movlw	4
  6571  0033BA  240C               	addwf	lcd_send_4bits@lcd^0,w,c
  6572  0033BC  6E02               	movwf	gpio_pin_write_logic@_pin_config^0,c
  6573  0033BE  0E00               	movlw	0
  6574  0033C0  200D               	addwfc	(lcd_send_4bits@lcd+1)^0,w,c
  6575  0033C2  6E03               	movwf	(gpio_pin_write_logic@_pin_config+1)^0,c
  6576  0033C4  400E               	rrncf	lcd_send_4bits@_data_command^0,w,c
  6577  0033C6  42E8               	rrncf	wreg,f,c
  6578  0033C8  0B3F               	andlw	63
  6579  0033CA  0B01               	andlw	1
  6580  0033CC  6E04               	movwf	gpio_pin_write_logic@logic^0,c
  6581  0033CE  ECF0  F012         	call	_gpio_pin_write_logic	;wreg free
  6582  0033D2                     
  6583                           ;ECU_Layer/Chr_LCD/ecu_chr_lcd.c: 470:     ret = gpio_pin_write_logic(&(lcd->lcd_data[3]
      +                          ), (_data_command >> 3) & (uint8)0x01);
  6584  0033D2  0E05               	movlw	5
  6585  0033D4  240C               	addwf	lcd_send_4bits@lcd^0,w,c
  6586  0033D6  6E02               	movwf	gpio_pin_write_logic@_pin_config^0,c
  6587  0033D8  0E00               	movlw	0
  6588  0033DA  200D               	addwfc	(lcd_send_4bits@lcd+1)^0,w,c
  6589  0033DC  6E03               	movwf	(gpio_pin_write_logic@_pin_config+1)^0,c
  6590  0033DE  380E               	swapf	lcd_send_4bits@_data_command^0,w,c
  6591  0033E0  46E8               	rlncf	wreg,f,c
  6592  0033E2  0B1F               	andlw	31
  6593  0033E4  0B01               	andlw	1
  6594  0033E6  6E04               	movwf	gpio_pin_write_logic@logic^0,c
  6595  0033E8  ECF0  F012         	call	_gpio_pin_write_logic	;wreg free
  6596  0033EC  6E0F               	movwf	lcd_send_4bits@ret^0,c
  6597                           
  6598                           ;ECU_Layer/Chr_LCD/ecu_chr_lcd.c: 471:     return ret;
  6599  0033EE  500F               	movf	lcd_send_4bits@ret^0,w,c
  6600  0033F0  0012               	return		;funcret
  6601  0033F2                     __end_of_lcd_send_4bits:
  6602                           	callstack 0
  6603                           
  6604 ;; *************** function _lcd_4bit_send_enable_signal *****************
  6605 ;; Defined at:
  6606 ;;		line 481 in file "ECU_Layer/Chr_LCD/ecu_chr_lcd.c"
  6607 ;; Parameters:    Size  Location     Type
  6608 ;;  lcd             2   11[COMRAM] PTR const struct .
  6609 ;;		 -> lcd_1(6), 
  6610 ;; Auto vars:     Size  Location     Type
  6611 ;;  ret             1   13[COMRAM] unsigned char 
  6612 ;; Return value:  Size  Location     Type
  6613 ;;                  1    wreg      unsigned char 
  6614 ;; Registers used:
  6615 ;;		wreg, fsr2l, fsr2h, status,2, status,0, prodl, prodh, cstack
  6616 ;; Tracked objects:
  6617 ;;		On entry : 0/0
  6618 ;;		On exit  : 0/0
  6619 ;;		Unchanged: 0/0
  6620 ;; Data sizes:     COMRAM   BANK0   BANK1   BANK2   BANK3   BANK4   BANK5   BANK6   BANK7   BANK8   BANK9  BANK10  BANK1
      +1  BANK12  BANK13  BANK14  BANK15
  6621 ;;      Params:         2       0       0       0       0       0       0       0       0       0       0       0       
      +0       0       0       0       0
  6622 ;;      Locals:         1       0       0       0       0       0       0       0       0       0       0       0       
      +0       0       0       0       0
  6623 ;;      Temps:          0       0       0       0       0       0       0       0       0       0       0       0       
      +0       0       0       0       0
  6624 ;;      Totals:         3       0       0       0       0       0       0       0       0       0       0       0       
      +0       0       0       0       0
  6625 ;;Total ram usage:        3 bytes
  6626 ;; Hardware stack levels used: 1
  6627 ;; Hardware stack levels required when called: 3
  6628 ;; This function calls:
  6629 ;;		_gpio_pin_write_logic
  6630 ;; This function is called by:
  6631 ;;		_lcd_4bit_send_command
  6632 ;;		_lcd_4bit_send_char_data
  6633 ;; This function uses a non-reentrant model
  6634 ;;
  6635                           
  6636                           	psect	text31
  6637  0035B8                     __ptext31:
  6638                           	callstack 0
  6639  0035B8                     _lcd_4bit_send_enable_signal:
  6640                           	callstack 24
  6641  0035B8  0E01               	movlw	1
  6642  0035BA  240C               	addwf	lcd_4bit_send_enable_signal@lcd^0,w,c
  6643  0035BC  6E02               	movwf	gpio_pin_write_logic@_pin_config^0,c
  6644  0035BE  0E00               	movlw	0
  6645  0035C0  200D               	addwfc	(lcd_4bit_send_enable_signal@lcd+1)^0,w,c
  6646  0035C2  6E03               	movwf	(gpio_pin_write_logic@_pin_config+1)^0,c
  6647  0035C4  0E01               	movlw	1
  6648  0035C6  6E04               	movwf	gpio_pin_write_logic@logic^0,c
  6649  0035C8  ECF0  F012         	call	_gpio_pin_write_logic	;wreg free
  6650  0035CC                     
  6651                           ;ECU_Layer/Chr_LCD/ecu_chr_lcd.c: 484:     _delay((unsigned long)((5)*(8000000UL/4000000
      +                          .0)));
  6652  0035CC  0E03               	movlw	3
  6653  0035CE                     u7777:
  6654  0035CE  2EE8               	decfsz	wreg,f,c
  6655  0035D0  D7FE               	bra	u7777
  6656  0035D2  F000               	nop	
  6657  0035D4                     
  6658                           ;ECU_Layer/Chr_LCD/ecu_chr_lcd.c: 485:     ret = gpio_pin_write_logic(&(lcd->lcd_en), GP
      +                          IO_LOW);
  6659  0035D4  0E01               	movlw	1
  6660  0035D6  240C               	addwf	lcd_4bit_send_enable_signal@lcd^0,w,c
  6661  0035D8  6E02               	movwf	gpio_pin_write_logic@_pin_config^0,c
  6662  0035DA  0E00               	movlw	0
  6663  0035DC  200D               	addwfc	(lcd_4bit_send_enable_signal@lcd+1)^0,w,c
  6664  0035DE  6E03               	movwf	(gpio_pin_write_logic@_pin_config+1)^0,c
  6665  0035E0  0E00               	movlw	0
  6666  0035E2  6E04               	movwf	gpio_pin_write_logic@logic^0,c
  6667  0035E4  ECF0  F012         	call	_gpio_pin_write_logic	;wreg free
  6668  0035E8  6E0E               	movwf	lcd_4bit_send_enable_signal@ret^0,c
  6669  0035EA                     
  6670                           ;ECU_Layer/Chr_LCD/ecu_chr_lcd.c: 486:     return ret;
  6671  0035EA  500E               	movf	lcd_4bit_send_enable_signal@ret^0,w,c
  6672  0035EC  0012               	return		;funcret
  6673  0035EE                     __end_of_lcd_4bit_send_enable_signal:
  6674                           	callstack 0
  6675                           
  6676 ;; *************** function _gpio_pin_write_logic *****************
  6677 ;; Defined at:
  6678 ;;		line 75 in file "MCAL_Layer/GPIO/hal_gpio.c"
  6679 ;; Parameters:    Size  Location     Type
  6680 ;;  _pin_config     2    1[COMRAM] PTR const struct .
  6681 ;;		 -> keypad_1.keypad_row_pins(4), keypad_1(8), lcd_1.lcd_data(4), lcd_1(6), 
  6682 ;;		 -> relay_turn_off@pin_obj(1), relay_turn_on@pin_obj(1), relay_initialize@pin_obj(1), led_turn_off@pin_obj(1), 
  6683 ;;		 -> led_turn_on@pin_obj(1), led_initialize@pin_obj(1), 
  6684 ;;  logic           1    3[COMRAM] enum E2933
  6685 ;; Auto vars:     Size  Location     Type
  6686 ;;  ret             1   10[COMRAM] unsigned char 
  6687 ;; Return value:  Size  Location     Type
  6688 ;;                  1    wreg      unsigned char 
  6689 ;; Registers used:
  6690 ;;		wreg, fsr2l, fsr2h, status,2, status,0, prodl, prodh
  6691 ;; Tracked objects:
  6692 ;;		On entry : 0/0
  6693 ;;		On exit  : 0/0
  6694 ;;		Unchanged: 0/0
  6695 ;; Data sizes:     COMRAM   BANK0   BANK1   BANK2   BANK3   BANK4   BANK5   BANK6   BANK7   BANK8   BANK9  BANK10  BANK1
      +1  BANK12  BANK13  BANK14  BANK15
  6696 ;;      Params:         3       0       0       0       0       0       0       0       0       0       0       0       
      +0       0       0       0       0
  6697 ;;      Locals:         1       0       0       0       0       0       0       0       0       0       0       0       
      +0       0       0       0       0
  6698 ;;      Temps:          6       0       0       0       0       0       0       0       0       0       0       0       
      +0       0       0       0       0
  6699 ;;      Totals:        10       0       0       0       0       0       0       0       0       0       0       0       
      +0       0       0       0       0
  6700 ;;Total ram usage:       10 bytes
  6701 ;; Hardware stack levels used: 1
  6702 ;; Hardware stack levels required when called: 2
  6703 ;; This function calls:
  6704 ;;		Nothing
  6705 ;; This function is called by:
  6706 ;;		_lcd_4bit_send_command
  6707 ;;		_lcd_4bit_send_char_data
  6708 ;;		_lcd_send_4bits
  6709 ;;		_lcd_4bit_send_enable_signal
  6710 ;;		_keypad_get_value
  6711 ;;		_gpio_pin_intialize
  6712 ;;		_seven_segement_write_number
  6713 ;;		_lcd_8bit_send_command
  6714 ;;		_lcd_8bit_send_char_data
  6715 ;;		_lcd_8bit_send_enable_signal
  6716 ;;		_dc_motor_move_right
  6717 ;;		_dc_motor_move_left
  6718 ;;		_dc_motor_stop
  6719 ;;		_led_turn_on
  6720 ;;		_led_turn_off
  6721 ;;		_relay_turn_on
  6722 ;;		_relay_turn_off
  6723 ;;		_Ultrasonic_Calculate_Distance
  6724 ;; This function uses a non-reentrant model
  6725 ;;
  6726                           
  6727                           	psect	text32
  6728  0025E0                     __ptext32:
  6729                           	callstack 0
  6730  0025E0                     _gpio_pin_write_logic:
  6731                           	callstack 24
  6732  0025E0                     
  6733                           ;MCAL_Layer/GPIO/hal_gpio.c: 76:     Std_ReturnType ret = (Std_ReturnType)0x01;
  6734  0025E0  0E01               	movlw	1
  6735  0025E2  6E0B               	movwf	gpio_pin_write_logic@ret^0,c
  6736  0025E4                     
  6737                           ;MCAL_Layer/GPIO/hal_gpio.c: 77:     if(((void*)0) == _pin_config || _pin_config->pin > 
      +                          8 -1){
  6738  0025E4  5002               	movf	gpio_pin_write_logic@_pin_config^0,w,c
  6739  0025E6  1003               	iorwf	(gpio_pin_write_logic@_pin_config+1)^0,w,c
  6740  0025E8  B4D8               	btfsc	status,2,c
  6741  0025EA  EFF9  F012         	goto	u4291
  6742  0025EE  EFFB  F012         	goto	u4290
  6743  0025F2                     u4291:
  6744  0025F2  EF0C  F013         	goto	l5796
  6745  0025F6                     u4290:
  6746  0025F6  C002  FFD9         	movff	gpio_pin_write_logic@_pin_config,fsr2l
  6747  0025FA  C003  FFDA         	movff	gpio_pin_write_logic@_pin_config+1,fsr2h
  6748  0025FE  30DF               	rrcf	223,w,c
  6749  002600  32E8               	rrcf	wreg,f,c
  6750  002602  32E8               	rrcf	wreg,f,c
  6751  002604  0B07               	andlw	7
  6752  002606  6E05               	movwf	??_gpio_pin_write_logic^0,c
  6753  002608  0E07               	movlw	7
  6754  00260A  6405               	cpfsgt	??_gpio_pin_write_logic^0,c
  6755  00260C  EF0A  F013         	goto	u4301
  6756  002610  EF0C  F013         	goto	u4300
  6757  002614                     u4301:
  6758  002614  EF6F  F013         	goto	l5804
  6759  002618                     u4300:
  6760  002618                     l5796:
  6761                           
  6762                           ;MCAL_Layer/GPIO/hal_gpio.c: 78:         ret = (Std_ReturnType)0x00;
  6763  002618  0E00               	movlw	0
  6764  00261A  6E0B               	movwf	gpio_pin_write_logic@ret^0,c
  6765                           
  6766                           ;MCAL_Layer/GPIO/hal_gpio.c: 79:     }
  6767  00261C  EF84  F013         	goto	l5806
  6768  002620                     l5798:
  6769                           
  6770                           ;MCAL_Layer/GPIO/hal_gpio.c: 83:                 (*lat_registers[_pin_config->port] &= ~
      +                          ((uint8)1 << _pin_config->pin));
  6771  002620  C002  FFD9         	movff	gpio_pin_write_logic@_pin_config,fsr2l
  6772  002624  C003  FFDA         	movff	gpio_pin_write_logic@_pin_config+1,fsr2h
  6773  002628  30DF               	rrcf	223,w,c
  6774  00262A  32E8               	rrcf	wreg,f,c
  6775  00262C  32E8               	rrcf	wreg,f,c
  6776  00262E  0B07               	andlw	7
  6777  002630  6E05               	movwf	??_gpio_pin_write_logic^0,c
  6778  002632  0E01               	movlw	1
  6779  002634  6E06               	movwf	(??_gpio_pin_write_logic+1)^0,c
  6780  002636  2A05               	incf	??_gpio_pin_write_logic^0,f,c
  6781  002638  EF20  F013         	goto	u4314
  6782  00263C                     u4315:
  6783  00263C  90D8               	bcf	status,0,c
  6784  00263E  3606               	rlcf	(??_gpio_pin_write_logic+1)^0,f,c
  6785  002640                     u4314:
  6786  002640  2E05               	decfsz	??_gpio_pin_write_logic^0,f,c
  6787  002642  EF1E  F013         	goto	u4315
  6788  002646  5006               	movf	(??_gpio_pin_write_logic+1)^0,w,c
  6789  002648  0AFF               	xorlw	255
  6790  00264A  6E07               	movwf	(??_gpio_pin_write_logic+2)^0,c
  6791  00264C  C002  FFD9         	movff	gpio_pin_write_logic@_pin_config,fsr2l
  6792  002650  C003  FFDA         	movff	gpio_pin_write_logic@_pin_config+1,fsr2h
  6793  002654  50DF               	movf	223,w,c
  6794  002656  0B07               	andlw	7
  6795  002658  6E08               	movwf	(??_gpio_pin_write_logic+3)^0,c
  6796  00265A  5008               	movf	(??_gpio_pin_write_logic+3)^0,w,c
  6797  00265C  0D02               	mullw	2
  6798  00265E  0E8A               	movlw	low _lat_registers
  6799  002660  24F3               	addwf	243,w,c
  6800  002662  6ED9               	movwf	fsr2l,c
  6801  002664  0E00               	movlw	high _lat_registers
  6802  002666  20F4               	addwfc	prodh,w,c
  6803  002668  6EDA               	movwf	fsr2h,c
  6804  00266A  CFDE F009          	movff	postinc2,??_gpio_pin_write_logic+4
  6805  00266E  CFDD F00A          	movff	postdec2,??_gpio_pin_write_logic+5
  6806  002672  C009  FFD9         	movff	??_gpio_pin_write_logic+4,fsr2l
  6807  002676  C00A  FFDA         	movff	??_gpio_pin_write_logic+5,fsr2h
  6808  00267A  5007               	movf	(??_gpio_pin_write_logic+2)^0,w,c
  6809  00267C  16DF               	andwf	indf2,f,c
  6810                           
  6811                           ;MCAL_Layer/GPIO/hal_gpio.c: 84:                 break;
  6812  00267E  EF84  F013         	goto	l5806
  6813  002682                     l5800:
  6814                           
  6815                           ;MCAL_Layer/GPIO/hal_gpio.c: 86:                 (*lat_registers[_pin_config->port] |= (
      +                          (uint8)1 << _pin_config->pin));
  6816  002682  C002  FFD9         	movff	gpio_pin_write_logic@_pin_config,fsr2l
  6817  002686  C003  FFDA         	movff	gpio_pin_write_logic@_pin_config+1,fsr2h
  6818  00268A  30DF               	rrcf	223,w,c
  6819  00268C  32E8               	rrcf	wreg,f,c
  6820  00268E  32E8               	rrcf	wreg,f,c
  6821  002690  0B07               	andlw	7
  6822  002692  6E05               	movwf	??_gpio_pin_write_logic^0,c
  6823  002694  0E01               	movlw	1
  6824  002696  6E06               	movwf	(??_gpio_pin_write_logic+1)^0,c
  6825  002698  2A05               	incf	??_gpio_pin_write_logic^0,f,c
  6826  00269A  EF51  F013         	goto	u4324
  6827  00269E                     u4325:
  6828  00269E  90D8               	bcf	status,0,c
  6829  0026A0  3606               	rlcf	(??_gpio_pin_write_logic+1)^0,f,c
  6830  0026A2                     u4324:
  6831  0026A2  2E05               	decfsz	??_gpio_pin_write_logic^0,f,c
  6832  0026A4  EF4F  F013         	goto	u4325
  6833  0026A8  C002  FFD9         	movff	gpio_pin_write_logic@_pin_config,fsr2l
  6834  0026AC  C003  FFDA         	movff	gpio_pin_write_logic@_pin_config+1,fsr2h
  6835  0026B0  50DF               	movf	223,w,c
  6836  0026B2  0B07               	andlw	7
  6837  0026B4  6E07               	movwf	(??_gpio_pin_write_logic+2)^0,c
  6838  0026B6  5007               	movf	(??_gpio_pin_write_logic+2)^0,w,c
  6839  0026B8  0D02               	mullw	2
  6840  0026BA  0E8A               	movlw	low _lat_registers
  6841  0026BC  24F3               	addwf	243,w,c
  6842  0026BE  6ED9               	movwf	fsr2l,c
  6843  0026C0  0E00               	movlw	high _lat_registers
  6844  0026C2  20F4               	addwfc	prodh,w,c
  6845  0026C4  6EDA               	movwf	fsr2h,c
  6846  0026C6  CFDE F008          	movff	postinc2,??_gpio_pin_write_logic+3
  6847  0026CA  CFDD F009          	movff	postdec2,??_gpio_pin_write_logic+4
  6848  0026CE  C008  FFD9         	movff	??_gpio_pin_write_logic+3,fsr2l
  6849  0026D2  C009  FFDA         	movff	??_gpio_pin_write_logic+4,fsr2h
  6850  0026D6  5006               	movf	(??_gpio_pin_write_logic+1)^0,w,c
  6851  0026D8  12DF               	iorwf	indf2,f,c
  6852                           
  6853                           ;MCAL_Layer/GPIO/hal_gpio.c: 87:                 break;
  6854  0026DA  EF84  F013         	goto	l5806
  6855  0026DE                     l5804:
  6856  0026DE  5004               	movf	gpio_pin_write_logic@logic^0,w,c
  6857  0026E0  6E05               	movwf	??_gpio_pin_write_logic^0,c
  6858  0026E2  6A06               	clrf	(??_gpio_pin_write_logic+1)^0,c
  6859                           
  6860                           ; Switch on 2 bytes has been partitioned into a top level switch of size 1, and 1 sub-sw
      +                          itches
  6861                           ; Switch size 1, requested type "simple"
  6862                           ; Number of cases is 1, Range of values is 0 to 0
  6863                           ; switch strategies available:
  6864                           ; Name         Instructions Cycles
  6865                           ; simple_byte            4     3 (average)
  6866                           ;	Chosen strategy is simple_byte
  6867  0026E4  5006               	movf	(??_gpio_pin_write_logic+1)^0,w,c
  6868  0026E6  0A00               	xorlw	0	; case 0
  6869  0026E8  B4D8               	btfsc	status,2,c
  6870  0026EA  EF79  F013         	goto	l8352
  6871  0026EE  EF0C  F013         	goto	l5796
  6872  0026F2                     l8352:
  6873                           
  6874                           ; Switch size 1, requested type "simple"
  6875                           ; Number of cases is 2, Range of values is 0 to 1
  6876                           ; switch strategies available:
  6877                           ; Name         Instructions Cycles
  6878                           ; simple_byte            7     4 (average)
  6879                           ;	Chosen strategy is simple_byte
  6880  0026F2  5005               	movf	??_gpio_pin_write_logic^0,w,c
  6881  0026F4  0A00               	xorlw	0	; case 0
  6882  0026F6  B4D8               	btfsc	status,2,c
  6883  0026F8  EF10  F013         	goto	l5798
  6884  0026FC  0A01               	xorlw	1	; case 1
  6885  0026FE  B4D8               	btfsc	status,2,c
  6886  002700  EF41  F013         	goto	l5800
  6887  002704  EF0C  F013         	goto	l5796
  6888  002708                     l5806:
  6889                           
  6890                           ;MCAL_Layer/GPIO/hal_gpio.c: 91:     return ret;
  6891  002708  500B               	movf	gpio_pin_write_logic@ret^0,w,c
  6892  00270A  0012               	return		;funcret
  6893  00270C                     __end_of_gpio_pin_write_logic:
  6894                           	callstack 0
  6895                           
  6896 ;; *************** function _InterruptManager *****************
  6897 ;; Defined at:
  6898 ;;		line 32 in file "MCAL_Layer/Interrupt/mcal_interrupt_manager.c"
  6899 ;; Parameters:    Size  Location     Type
  6900 ;;		None
  6901 ;; Auto vars:     Size  Location     Type
  6902 ;;		None
  6903 ;; Return value:  Size  Location     Type
  6904 ;;                  1    wreg      void 
  6905 ;; Registers used:
  6906 ;;		wreg, status,2, status,0, cstack
  6907 ;; Tracked objects:
  6908 ;;		On entry : 0/0
  6909 ;;		On exit  : 0/0
  6910 ;;		Unchanged: 0/0
  6911 ;; Data sizes:     COMRAM   BANK0   BANK1   BANK2   BANK3   BANK4   BANK5   BANK6   BANK7   BANK8   BANK9  BANK10  BANK1
      +1  BANK12  BANK13  BANK14  BANK15
  6912 ;;      Params:         0       0       0       0       0       0       0       0       0       0       0       0       
      +0       0       0       0       0
  6913 ;;      Locals:         0       0       0       0       0       0       0       0       0       0       0       0       
      +0       0       0       0       0
  6914 ;;      Temps:          0       0       0       0       0       0       0       0       0       0       0       0       
      +0       0       0       0       0
  6915 ;;      Totals:         0       0       0       0       0       0       0       0       0       0       0       0       
      +0       0       0       0       0
  6916 ;;Total ram usage:        0 bytes
  6917 ;; Hardware stack levels used: 1
  6918 ;; Hardware stack levels required when called: 1
  6919 ;; This function calls:
  6920 ;;		_ADC_ISR
  6921 ;;		_CCP1_ISR
  6922 ;;		_CCP2_ISR
  6923 ;;		_EUSART_RX_ISR
  6924 ;;		_EUSART_TX_ISR
  6925 ;;		_INT0_ISR
  6926 ;;		_INT1_ISR
  6927 ;;		_INT2_ISR
  6928 ;;		_MSSP_I2C_BC_ISR
  6929 ;;		_MSSP_I2C_ISR
  6930 ;;		_MSSP_SPI_ISR
  6931 ;;		_RB4_ISR
  6932 ;;		_RB5_ISR
  6933 ;;		_RB6_ISR
  6934 ;;		_RB7_ISR
  6935 ;;		_TMR0_ISR
  6936 ;;		_TMR1_ISR
  6937 ;;		_TMR2_ISR
  6938 ;;		_TMR3_ISR
  6939 ;; This function is called by:
  6940 ;;		Interrupt level 2
  6941 ;; This function uses a non-reentrant model
  6942 ;;
  6943                           
  6944                           	psect	intcode
  6945  000008                     __pintcode:
  6946                           	callstack 0
  6947  000008                     _InterruptManager:
  6948                           	callstack 23
  6949                           
  6950                           ;incstack = 0
  6951  000008  827D               	bsf	int$flags,1,c	;set compiler interrupt flag (level 2)
  6952  00000A  ED0E  F00D         	call	int_func,f	;refresh shadow registers
  6953                           
  6954                           	psect	intcode_body
  6955  001A1C                     __pintcode_body:
  6956                           	callstack 23
  6957  001A1C                     int_func:
  6958                           	callstack 23
  6959  001A1C  0006               	pop		; remove dummy address from shadow register refresh
  6960  001A1E                     
  6961                           ;MCAL_Layer/Interrupt/mcal_interrupt_manager.c: 34:     if((1 == INTCONbits.INT0IE) && (
      +                          1 == INTCONbits.INT0IF)){
  6962  001A1E  A8F2               	btfss	242,4,c	;volatile
  6963  001A20  EF14  F00D         	goto	i2u664_41
  6964  001A24  EF16  F00D         	goto	i2u664_40
  6965  001A28                     i2u664_41:
  6966  001A28  EF1F  F00D         	goto	i2l1216
  6967  001A2C                     i2u664_40:
  6968  001A2C  A2F2               	btfss	242,1,c	;volatile
  6969  001A2E  EF1B  F00D         	goto	i2u665_41
  6970  001A32  EF1D  F00D         	goto	i2u665_40
  6971  001A36                     i2u665_41:
  6972  001A36  EF1F  F00D         	goto	i2l1216
  6973  001A3A                     i2u665_40:
  6974  001A3A                     
  6975                           ;MCAL_Layer/Interrupt/mcal_interrupt_manager.c: 35:         INT0_ISR();
  6976  001A3A  EC9F  F01B         	call	_INT0_ISR	;wreg free
  6977  001A3E                     i2l1216:
  6978                           
  6979                           ;MCAL_Layer/Interrupt/mcal_interrupt_manager.c: 38:     if((1 == INTCON3bits.INT1E) && (
      +                          1 == INTCON3bits.INT1F)){
  6980  001A3E  A6F0               	btfss	240,3,c	;volatile
  6981  001A40  EF24  F00D         	goto	i2u666_41
  6982  001A44  EF26  F00D         	goto	i2u666_40
  6983  001A48                     i2u666_41:
  6984  001A48  EF2F  F00D         	goto	i2l1218
  6985  001A4C                     i2u666_40:
  6986  001A4C  A0F0               	btfss	240,0,c	;volatile
  6987  001A4E  EF2B  F00D         	goto	i2u667_41
  6988  001A52  EF2D  F00D         	goto	i2u667_40
  6989  001A56                     i2u667_41:
  6990  001A56  EF2F  F00D         	goto	i2l1218
  6991  001A5A                     i2u667_40:
  6992  001A5A                     
  6993                           ;MCAL_Layer/Interrupt/mcal_interrupt_manager.c: 39:         INT1_ISR();
  6994  001A5A  EC9D  F01B         	call	_INT1_ISR	;wreg free
  6995  001A5E                     i2l1218:
  6996                           
  6997                           ;MCAL_Layer/Interrupt/mcal_interrupt_manager.c: 42:     if((1 == INTCON3bits.INT2IE) && 
      +                          (1 == INTCON3bits.INT2IF)){
  6998  001A5E  A8F0               	btfss	240,4,c	;volatile
  6999  001A60  EF34  F00D         	goto	i2u668_41
  7000  001A64  EF36  F00D         	goto	i2u668_40
  7001  001A68                     i2u668_41:
  7002  001A68  EF3F  F00D         	goto	i2l1220
  7003  001A6C                     i2u668_40:
  7004  001A6C  A2F0               	btfss	240,1,c	;volatile
  7005  001A6E  EF3B  F00D         	goto	i2u669_41
  7006  001A72  EF3D  F00D         	goto	i2u669_40
  7007  001A76                     i2u669_41:
  7008  001A76  EF3F  F00D         	goto	i2l1220
  7009  001A7A                     i2u669_40:
  7010  001A7A                     
  7011                           ;MCAL_Layer/Interrupt/mcal_interrupt_manager.c: 43:         INT2_ISR();
  7012  001A7A  EC9B  F01B         	call	_INT2_ISR	;wreg free
  7013  001A7E                     i2l1220:
  7014                           
  7015                           ;MCAL_Layer/Interrupt/mcal_interrupt_manager.c: 49:     if((1 == INTCONbits.RBIE) && (1 
      +                          == INTCONbits.RBIF) &&
  7016  001A7E  A6F2               	btfss	242,3,c	;volatile
  7017  001A80  EF44  F00D         	goto	i2u670_41
  7018  001A84  EF46  F00D         	goto	i2u670_40
  7019  001A88                     i2u670_41:
  7020  001A88  EF61  F00D         	goto	i2l1222
  7021  001A8C                     i2u670_40:
  7022  001A8C  A0F2               	btfss	242,0,c	;volatile
  7023  001A8E  EF4B  F00D         	goto	i2u671_41
  7024  001A92  EF4D  F00D         	goto	i2u671_40
  7025  001A96                     i2u671_41:
  7026  001A96  EF61  F00D         	goto	i2l1222
  7027  001A9A                     i2u671_40:
  7028  001A9A  A881               	btfss	129,4,c	;volatile
  7029  001A9C  EF52  F00D         	goto	i2u672_41
  7030  001AA0  EF54  F00D         	goto	i2u672_40
  7031  001AA4                     i2u672_41:
  7032  001AA4  EF61  F00D         	goto	i2l1222
  7033  001AA8                     i2u672_40:
  7034  001AA8  0474               	decf	_RB4_Flag^0,w,c	;volatile
  7035  001AAA  A4D8               	btfss	status,2,c
  7036  001AAC  EF5A  F00D         	goto	i2u673_41
  7037  001AB0  EF5C  F00D         	goto	i2u673_40
  7038  001AB4                     i2u673_41:
  7039  001AB4  EF61  F00D         	goto	i2l1222
  7040  001AB8                     i2u673_40:
  7041  001AB8                     
  7042                           ;MCAL_Layer/Interrupt/mcal_interrupt_manager.c: 50:        (PORTBbits.RB4 == GPIO_HIGH) 
      +                          && (RB4_Flag == 1)){;MCAL_Layer/Interrupt/mcal_interrupt_manager.c: 51:         RB4_Flag
      +                           = 0;
  7043  001AB8  0E00               	movlw	0
  7044  001ABA  6E74               	movwf	_RB4_Flag^0,c	;volatile
  7045  001ABC                     
  7046                           ;MCAL_Layer/Interrupt/mcal_interrupt_manager.c: 52:         RB4_ISR(0);
  7047  001ABC  0E00               	movlw	0
  7048  001ABE  EC69  F01B         	call	_RB4_ISR
  7049  001AC2                     i2l1222:
  7050                           
  7051                           ;MCAL_Layer/Interrupt/mcal_interrupt_manager.c: 55:     if((1 == INTCONbits.RBIE) && (1 
      +                          == INTCONbits.RBIF) &&
  7052  001AC2  A6F2               	btfss	242,3,c	;volatile
  7053  001AC4  EF66  F00D         	goto	i2u674_41
  7054  001AC8  EF68  F00D         	goto	i2u674_40
  7055  001ACC                     i2u674_41:
  7056  001ACC  EF83  F00D         	goto	i2l1224
  7057  001AD0                     i2u674_40:
  7058  001AD0  A0F2               	btfss	242,0,c	;volatile
  7059  001AD2  EF6D  F00D         	goto	i2u675_41
  7060  001AD6  EF6F  F00D         	goto	i2u675_40
  7061  001ADA                     i2u675_41:
  7062  001ADA  EF83  F00D         	goto	i2l1224
  7063  001ADE                     i2u675_40:
  7064  001ADE  B881               	btfsc	129,4,c	;volatile
  7065  001AE0  EF74  F00D         	goto	i2u676_41
  7066  001AE4  EF76  F00D         	goto	i2u676_40
  7067  001AE8                     i2u676_41:
  7068  001AE8  EF83  F00D         	goto	i2l1224
  7069  001AEC                     i2u676_40:
  7070  001AEC  5074               	movf	_RB4_Flag^0,w,c	;volatile
  7071  001AEE  A4D8               	btfss	status,2,c
  7072  001AF0  EF7C  F00D         	goto	i2u677_41
  7073  001AF4  EF7E  F00D         	goto	i2u677_40
  7074  001AF8                     i2u677_41:
  7075  001AF8  EF83  F00D         	goto	i2l1224
  7076  001AFC                     i2u677_40:
  7077  001AFC                     
  7078                           ;MCAL_Layer/Interrupt/mcal_interrupt_manager.c: 56:        (PORTBbits.RB4 == GPIO_LOW) &
      +                          & (RB4_Flag == 0)){;MCAL_Layer/Interrupt/mcal_interrupt_manager.c: 57:         RB4_Flag 
      +                          = 1;
  7079  001AFC  0E01               	movlw	1
  7080  001AFE  6E74               	movwf	_RB4_Flag^0,c	;volatile
  7081  001B00                     
  7082                           ;MCAL_Layer/Interrupt/mcal_interrupt_manager.c: 58:         RB4_ISR(1);
  7083  001B00  0E01               	movlw	1
  7084  001B02  EC69  F01B         	call	_RB4_ISR
  7085  001B06                     i2l1224:
  7086                           
  7087                           ;MCAL_Layer/Interrupt/mcal_interrupt_manager.c: 61:     if((1 == INTCONbits.RBIE) && (1 
      +                          == INTCONbits.RBIF) &&
  7088  001B06  A6F2               	btfss	242,3,c	;volatile
  7089  001B08  EF88  F00D         	goto	i2u678_41
  7090  001B0C  EF8A  F00D         	goto	i2u678_40
  7091  001B10                     i2u678_41:
  7092  001B10  EFA5  F00D         	goto	i2l1226
  7093  001B14                     i2u678_40:
  7094  001B14  A0F2               	btfss	242,0,c	;volatile
  7095  001B16  EF8F  F00D         	goto	i2u679_41
  7096  001B1A  EF91  F00D         	goto	i2u679_40
  7097  001B1E                     i2u679_41:
  7098  001B1E  EFA5  F00D         	goto	i2l1226
  7099  001B22                     i2u679_40:
  7100  001B22  AA81               	btfss	129,5,c	;volatile
  7101  001B24  EF96  F00D         	goto	i2u680_41
  7102  001B28  EF98  F00D         	goto	i2u680_40
  7103  001B2C                     i2u680_41:
  7104  001B2C  EFA5  F00D         	goto	i2l1226
  7105  001B30                     i2u680_40:
  7106  001B30  0473               	decf	_RB5_Flag^0,w,c	;volatile
  7107  001B32  A4D8               	btfss	status,2,c
  7108  001B34  EF9E  F00D         	goto	i2u681_41
  7109  001B38  EFA0  F00D         	goto	i2u681_40
  7110  001B3C                     i2u681_41:
  7111  001B3C  EFA5  F00D         	goto	i2l1226
  7112  001B40                     i2u681_40:
  7113  001B40                     
  7114                           ;MCAL_Layer/Interrupt/mcal_interrupt_manager.c: 62:        (PORTBbits.RB5 == GPIO_HIGH) 
      +                          && (RB5_Flag == 1)){;MCAL_Layer/Interrupt/mcal_interrupt_manager.c: 63:         RB5_Flag
      +                           = 0;
  7115  001B40  0E00               	movlw	0
  7116  001B42  6E73               	movwf	_RB5_Flag^0,c	;volatile
  7117  001B44                     
  7118                           ;MCAL_Layer/Interrupt/mcal_interrupt_manager.c: 64:         RB5_ISR(0);
  7119  001B44  0E00               	movlw	0
  7120  001B46  EC5C  F01B         	call	_RB5_ISR
  7121  001B4A                     i2l1226:
  7122                           
  7123                           ;MCAL_Layer/Interrupt/mcal_interrupt_manager.c: 67:     if((1 == INTCONbits.RBIE) && (1 
      +                          == INTCONbits.RBIF) &&
  7124  001B4A  A6F2               	btfss	242,3,c	;volatile
  7125  001B4C  EFAA  F00D         	goto	i2u682_41
  7126  001B50  EFAC  F00D         	goto	i2u682_40
  7127  001B54                     i2u682_41:
  7128  001B54  EFC7  F00D         	goto	i2l1228
  7129  001B58                     i2u682_40:
  7130  001B58  A0F2               	btfss	242,0,c	;volatile
  7131  001B5A  EFB1  F00D         	goto	i2u683_41
  7132  001B5E  EFB3  F00D         	goto	i2u683_40
  7133  001B62                     i2u683_41:
  7134  001B62  EFC7  F00D         	goto	i2l1228
  7135  001B66                     i2u683_40:
  7136  001B66  BA81               	btfsc	129,5,c	;volatile
  7137  001B68  EFB8  F00D         	goto	i2u684_41
  7138  001B6C  EFBA  F00D         	goto	i2u684_40
  7139  001B70                     i2u684_41:
  7140  001B70  EFC7  F00D         	goto	i2l1228
  7141  001B74                     i2u684_40:
  7142  001B74  5073               	movf	_RB5_Flag^0,w,c	;volatile
  7143  001B76  A4D8               	btfss	status,2,c
  7144  001B78  EFC0  F00D         	goto	i2u685_41
  7145  001B7C  EFC2  F00D         	goto	i2u685_40
  7146  001B80                     i2u685_41:
  7147  001B80  EFC7  F00D         	goto	i2l1228
  7148  001B84                     i2u685_40:
  7149  001B84                     
  7150                           ;MCAL_Layer/Interrupt/mcal_interrupt_manager.c: 68:        (PORTBbits.RB5 == GPIO_LOW) &
      +                          & (RB5_Flag == 0)){;MCAL_Layer/Interrupt/mcal_interrupt_manager.c: 69:         RB5_Flag 
      +                          = 1;
  7151  001B84  0E01               	movlw	1
  7152  001B86  6E73               	movwf	_RB5_Flag^0,c	;volatile
  7153  001B88                     
  7154                           ;MCAL_Layer/Interrupt/mcal_interrupt_manager.c: 70:         RB5_ISR(1);
  7155  001B88  0E01               	movlw	1
  7156  001B8A  EC5C  F01B         	call	_RB5_ISR
  7157  001B8E                     i2l1228:
  7158                           
  7159                           ;MCAL_Layer/Interrupt/mcal_interrupt_manager.c: 73:     if((1 == INTCONbits.RBIE) && (1 
      +                          == INTCONbits.RBIF) &&
  7160  001B8E  A6F2               	btfss	242,3,c	;volatile
  7161  001B90  EFCC  F00D         	goto	i2u686_41
  7162  001B94  EFCE  F00D         	goto	i2u686_40
  7163  001B98                     i2u686_41:
  7164  001B98  EFE9  F00D         	goto	i2l1230
  7165  001B9C                     i2u686_40:
  7166  001B9C  A0F2               	btfss	242,0,c	;volatile
  7167  001B9E  EFD3  F00D         	goto	i2u687_41
  7168  001BA2  EFD5  F00D         	goto	i2u687_40
  7169  001BA6                     i2u687_41:
  7170  001BA6  EFE9  F00D         	goto	i2l1230
  7171  001BAA                     i2u687_40:
  7172  001BAA  AC81               	btfss	129,6,c	;volatile
  7173  001BAC  EFDA  F00D         	goto	i2u688_41
  7174  001BB0  EFDC  F00D         	goto	i2u688_40
  7175  001BB4                     i2u688_41:
  7176  001BB4  EFE9  F00D         	goto	i2l1230
  7177  001BB8                     i2u688_40:
  7178  001BB8  0472               	decf	_RB6_Flag^0,w,c	;volatile
  7179  001BBA  A4D8               	btfss	status,2,c
  7180  001BBC  EFE2  F00D         	goto	i2u689_41
  7181  001BC0  EFE4  F00D         	goto	i2u689_40
  7182  001BC4                     i2u689_41:
  7183  001BC4  EFE9  F00D         	goto	i2l1230
  7184  001BC8                     i2u689_40:
  7185  001BC8                     
  7186                           ;MCAL_Layer/Interrupt/mcal_interrupt_manager.c: 74:        (PORTBbits.RB6 == GPIO_HIGH) 
      +                          && (RB6_Flag == 1)){;MCAL_Layer/Interrupt/mcal_interrupt_manager.c: 75:         RB6_Flag
      +                           = 0;
  7187  001BC8  0E00               	movlw	0
  7188  001BCA  6E72               	movwf	_RB6_Flag^0,c	;volatile
  7189  001BCC                     
  7190                           ;MCAL_Layer/Interrupt/mcal_interrupt_manager.c: 76:         RB6_ISR(0);
  7191  001BCC  0E00               	movlw	0
  7192  001BCE  EC4F  F01B         	call	_RB6_ISR
  7193  001BD2                     i2l1230:
  7194                           
  7195                           ;MCAL_Layer/Interrupt/mcal_interrupt_manager.c: 79:     if((1 == INTCONbits.RBIE) && (1 
      +                          == INTCONbits.RBIF) &&
  7196  001BD2  A6F2               	btfss	242,3,c	;volatile
  7197  001BD4  EFEE  F00D         	goto	i2u690_41
  7198  001BD8  EFF0  F00D         	goto	i2u690_40
  7199  001BDC                     i2u690_41:
  7200  001BDC  EF0B  F00E         	goto	i2l1232
  7201  001BE0                     i2u690_40:
  7202  001BE0  A0F2               	btfss	242,0,c	;volatile
  7203  001BE2  EFF5  F00D         	goto	i2u691_41
  7204  001BE6  EFF7  F00D         	goto	i2u691_40
  7205  001BEA                     i2u691_41:
  7206  001BEA  EF0B  F00E         	goto	i2l1232
  7207  001BEE                     i2u691_40:
  7208  001BEE  BC81               	btfsc	129,6,c	;volatile
  7209  001BF0  EFFC  F00D         	goto	i2u692_41
  7210  001BF4  EFFE  F00D         	goto	i2u692_40
  7211  001BF8                     i2u692_41:
  7212  001BF8  EF0B  F00E         	goto	i2l1232
  7213  001BFC                     i2u692_40:
  7214  001BFC  5072               	movf	_RB6_Flag^0,w,c	;volatile
  7215  001BFE  A4D8               	btfss	status,2,c
  7216  001C00  EF04  F00E         	goto	i2u693_41
  7217  001C04  EF06  F00E         	goto	i2u693_40
  7218  001C08                     i2u693_41:
  7219  001C08  EF0B  F00E         	goto	i2l1232
  7220  001C0C                     i2u693_40:
  7221  001C0C                     
  7222                           ;MCAL_Layer/Interrupt/mcal_interrupt_manager.c: 80:        (PORTBbits.RB6 == GPIO_LOW) &
      +                          & (RB6_Flag == 0)){;MCAL_Layer/Interrupt/mcal_interrupt_manager.c: 81:         RB6_Flag 
      +                          = 1;
  7223  001C0C  0E01               	movlw	1
  7224  001C0E  6E72               	movwf	_RB6_Flag^0,c	;volatile
  7225  001C10                     
  7226                           ;MCAL_Layer/Interrupt/mcal_interrupt_manager.c: 82:         RB6_ISR(1);
  7227  001C10  0E01               	movlw	1
  7228  001C12  EC4F  F01B         	call	_RB6_ISR
  7229  001C16                     i2l1232:
  7230                           
  7231                           ;MCAL_Layer/Interrupt/mcal_interrupt_manager.c: 85:     if((1 == INTCONbits.RBIE) && (1 
      +                          == INTCONbits.RBIF) &&
  7232  001C16  A6F2               	btfss	242,3,c	;volatile
  7233  001C18  EF10  F00E         	goto	i2u694_41
  7234  001C1C  EF12  F00E         	goto	i2u694_40
  7235  001C20                     i2u694_41:
  7236  001C20  EF2D  F00E         	goto	i2l1234
  7237  001C24                     i2u694_40:
  7238  001C24  A0F2               	btfss	242,0,c	;volatile
  7239  001C26  EF17  F00E         	goto	i2u695_41
  7240  001C2A  EF19  F00E         	goto	i2u695_40
  7241  001C2E                     i2u695_41:
  7242  001C2E  EF2D  F00E         	goto	i2l1234
  7243  001C32                     i2u695_40:
  7244  001C32  AE81               	btfss	129,7,c	;volatile
  7245  001C34  EF1E  F00E         	goto	i2u696_41
  7246  001C38  EF20  F00E         	goto	i2u696_40
  7247  001C3C                     i2u696_41:
  7248  001C3C  EF2D  F00E         	goto	i2l1234
  7249  001C40                     i2u696_40:
  7250  001C40  0471               	decf	_RB7_Flag^0,w,c	;volatile
  7251  001C42  A4D8               	btfss	status,2,c
  7252  001C44  EF26  F00E         	goto	i2u697_41
  7253  001C48  EF28  F00E         	goto	i2u697_40
  7254  001C4C                     i2u697_41:
  7255  001C4C  EF2D  F00E         	goto	i2l1234
  7256  001C50                     i2u697_40:
  7257  001C50                     
  7258                           ;MCAL_Layer/Interrupt/mcal_interrupt_manager.c: 86:        (PORTBbits.RB7 == GPIO_HIGH) 
      +                          && (RB7_Flag == 1)){;MCAL_Layer/Interrupt/mcal_interrupt_manager.c: 87:         RB7_Flag
      +                           = 0;
  7259  001C50  0E00               	movlw	0
  7260  001C52  6E71               	movwf	_RB7_Flag^0,c	;volatile
  7261  001C54                     
  7262                           ;MCAL_Layer/Interrupt/mcal_interrupt_manager.c: 88:         RB7_ISR(0);
  7263  001C54  0E00               	movlw	0
  7264  001C56  EC42  F01B         	call	_RB7_ISR
  7265  001C5A                     i2l1234:
  7266                           
  7267                           ;MCAL_Layer/Interrupt/mcal_interrupt_manager.c: 91:     if((1 == INTCONbits.RBIE) && (1 
      +                          == INTCONbits.RBIF) &&
  7268  001C5A  A6F2               	btfss	242,3,c	;volatile
  7269  001C5C  EF32  F00E         	goto	i2u698_41
  7270  001C60  EF34  F00E         	goto	i2u698_40
  7271  001C64                     i2u698_41:
  7272  001C64  EF4F  F00E         	goto	i2l1236
  7273  001C68                     i2u698_40:
  7274  001C68  A0F2               	btfss	242,0,c	;volatile
  7275  001C6A  EF39  F00E         	goto	i2u699_41
  7276  001C6E  EF3B  F00E         	goto	i2u699_40
  7277  001C72                     i2u699_41:
  7278  001C72  EF4F  F00E         	goto	i2l1236
  7279  001C76                     i2u699_40:
  7280  001C76  BE81               	btfsc	129,7,c	;volatile
  7281  001C78  EF40  F00E         	goto	i2u700_41
  7282  001C7C  EF42  F00E         	goto	i2u700_40
  7283  001C80                     i2u700_41:
  7284  001C80  EF4F  F00E         	goto	i2l1236
  7285  001C84                     i2u700_40:
  7286  001C84  5071               	movf	_RB7_Flag^0,w,c	;volatile
  7287  001C86  A4D8               	btfss	status,2,c
  7288  001C88  EF48  F00E         	goto	i2u701_41
  7289  001C8C  EF4A  F00E         	goto	i2u701_40
  7290  001C90                     i2u701_41:
  7291  001C90  EF4F  F00E         	goto	i2l1236
  7292  001C94                     i2u701_40:
  7293  001C94                     
  7294                           ;MCAL_Layer/Interrupt/mcal_interrupt_manager.c: 92:        (PORTBbits.RB7 == GPIO_LOW) &
      +                          & (RB7_Flag == 0)){;MCAL_Layer/Interrupt/mcal_interrupt_manager.c: 93:         RB7_Flag 
      +                          = 1;
  7295  001C94  0E01               	movlw	1
  7296  001C96  6E71               	movwf	_RB7_Flag^0,c	;volatile
  7297  001C98                     
  7298                           ;MCAL_Layer/Interrupt/mcal_interrupt_manager.c: 94:         RB7_ISR(1);
  7299  001C98  0E01               	movlw	1
  7300  001C9A  EC42  F01B         	call	_RB7_ISR
  7301  001C9E                     i2l1236:
  7302                           
  7303                           ;MCAL_Layer/Interrupt/mcal_interrupt_manager.c: 99:     if((1 == PIE1bits.ADIE) && (1 ==
      +                           PIR1bits.ADIF)){
  7304  001C9E  AC9D               	btfss	157,6,c	;volatile
  7305  001CA0  EF54  F00E         	goto	i2u702_41
  7306  001CA4  EF56  F00E         	goto	i2u702_40
  7307  001CA8                     i2u702_41:
  7308  001CA8  EF5F  F00E         	goto	i2l1238
  7309  001CAC                     i2u702_40:
  7310  001CAC  AC9E               	btfss	158,6,c	;volatile
  7311  001CAE  EF5B  F00E         	goto	i2u703_41
  7312  001CB2  EF5D  F00E         	goto	i2u703_40
  7313  001CB6                     i2u703_41:
  7314  001CB6  EF5F  F00E         	goto	i2l1238
  7315  001CBA                     i2u703_40:
  7316  001CBA                     
  7317                           ;MCAL_Layer/Interrupt/mcal_interrupt_manager.c: 100:         ADC_ISR();
  7318  001CBA  ECA7  F01B         	call	_ADC_ISR	;wreg free
  7319  001CBE                     i2l1238:
  7320                           
  7321                           ;MCAL_Layer/Interrupt/mcal_interrupt_manager.c: 104:     if((1 == INTCONbits.TMR0IE) && 
      +                          (1 == INTCONbits.TMR0IF)){
  7322  001CBE  AAF2               	btfss	242,5,c	;volatile
  7323  001CC0  EF64  F00E         	goto	i2u704_41
  7324  001CC4  EF66  F00E         	goto	i2u704_40
  7325  001CC8                     i2u704_41:
  7326  001CC8  EF6F  F00E         	goto	i2l1240
  7327  001CCC                     i2u704_40:
  7328  001CCC  A4F2               	btfss	242,2,c	;volatile
  7329  001CCE  EF6B  F00E         	goto	i2u705_41
  7330  001CD2  EF6D  F00E         	goto	i2u705_40
  7331  001CD6                     i2u705_41:
  7332  001CD6  EF6F  F00E         	goto	i2l1240
  7333  001CDA                     i2u705_40:
  7334  001CDA                     
  7335                           ;MCAL_Layer/Interrupt/mcal_interrupt_manager.c: 105:         TMR0_ISR();
  7336  001CDA  EC8D  F01B         	call	_TMR0_ISR	;wreg free
  7337  001CDE                     i2l1240:
  7338                           
  7339                           ;MCAL_Layer/Interrupt/mcal_interrupt_manager.c: 108:     if((1 == PIE1bits.TMR1IE) && (1
      +                           == PIR1bits.TMR1IF)){
  7340  001CDE  A09D               	btfss	157,0,c	;volatile
  7341  001CE0  EF74  F00E         	goto	i2u706_41
  7342  001CE4  EF76  F00E         	goto	i2u706_40
  7343  001CE8                     i2u706_41:
  7344  001CE8  EF7F  F00E         	goto	i2l1242
  7345  001CEC                     i2u706_40:
  7346  001CEC  A09E               	btfss	158,0,c	;volatile
  7347  001CEE  EF7B  F00E         	goto	i2u707_41
  7348  001CF2  EF7D  F00E         	goto	i2u707_40
  7349  001CF6                     i2u707_41:
  7350  001CF6  EF7F  F00E         	goto	i2l1242
  7351  001CFA                     i2u707_40:
  7352  001CFA                     
  7353                           ;MCAL_Layer/Interrupt/mcal_interrupt_manager.c: 109:         TMR1_ISR();
  7354  001CFA  EC87  F01B         	call	_TMR1_ISR	;wreg free
  7355  001CFE                     i2l1242:
  7356                           
  7357                           ;MCAL_Layer/Interrupt/mcal_interrupt_manager.c: 112:     if((1 == PIE1bits.TMR2IE) && (1
      +                           == PIR1bits.TMR2IF)){
  7358  001CFE  A29D               	btfss	157,1,c	;volatile
  7359  001D00  EF84  F00E         	goto	i2u708_41
  7360  001D04  EF86  F00E         	goto	i2u708_40
  7361  001D08                     i2u708_41:
  7362  001D08  EF8F  F00E         	goto	i2l1244
  7363  001D0C                     i2u708_40:
  7364  001D0C  A29E               	btfss	158,1,c	;volatile
  7365  001D0E  EF8B  F00E         	goto	i2u709_41
  7366  001D12  EF8D  F00E         	goto	i2u709_40
  7367  001D16                     i2u709_41:
  7368  001D16  EF8F  F00E         	goto	i2l1244
  7369  001D1A                     i2u709_40:
  7370  001D1A                     
  7371                           ;MCAL_Layer/Interrupt/mcal_interrupt_manager.c: 113:         TMR2_ISR();
  7372  001D1A  EC93  F01B         	call	_TMR2_ISR	;wreg free
  7373  001D1E                     i2l1244:
  7374                           
  7375                           ;MCAL_Layer/Interrupt/mcal_interrupt_manager.c: 116:     if((1 == PIE2bits.TMR3IE) && (1
      +                           == PIR2bits.TMR3IF)){
  7376  001D1E  A2A0               	btfss	160,1,c	;volatile
  7377  001D20  EF94  F00E         	goto	i2u710_41
  7378  001D24  EF96  F00E         	goto	i2u710_40
  7379  001D28                     i2u710_41:
  7380  001D28  EF9F  F00E         	goto	i2l1246
  7381  001D2C                     i2u710_40:
  7382  001D2C  A2A1               	btfss	161,1,c	;volatile
  7383  001D2E  EF9B  F00E         	goto	i2u711_41
  7384  001D32  EF9D  F00E         	goto	i2u711_40
  7385  001D36                     i2u711_41:
  7386  001D36  EF9F  F00E         	goto	i2l1246
  7387  001D3A                     i2u711_40:
  7388  001D3A                     
  7389                           ;MCAL_Layer/Interrupt/mcal_interrupt_manager.c: 117:         TMR3_ISR();
  7390  001D3A  EC81  F01B         	call	_TMR3_ISR	;wreg free
  7391  001D3E                     i2l1246:
  7392                           
  7393                           ;MCAL_Layer/Interrupt/mcal_interrupt_manager.c: 121:     if((1 == PIE1bits.TXIE) && (1 =
      +                          = PIR1bits.TXIF)){
  7394  001D3E  A89D               	btfss	157,4,c	;volatile
  7395  001D40  EFA4  F00E         	goto	i2u712_41
  7396  001D44  EFA6  F00E         	goto	i2u712_40
  7397  001D48                     i2u712_41:
  7398  001D48  EFAF  F00E         	goto	i2l1248
  7399  001D4C                     i2u712_40:
  7400  001D4C  A89E               	btfss	158,4,c	;volatile
  7401  001D4E  EFAB  F00E         	goto	i2u713_41
  7402  001D52  EFAD  F00E         	goto	i2u713_40
  7403  001D56                     i2u713_41:
  7404  001D56  EFAF  F00E         	goto	i2l1248
  7405  001D5A                     i2u713_40:
  7406  001D5A                     
  7407                           ;MCAL_Layer/Interrupt/mcal_interrupt_manager.c: 122:         EUSART_TX_ISR();
  7408  001D5A  ECA1  F01B         	call	_EUSART_TX_ISR	;wreg free
  7409  001D5E                     i2l1248:
  7410                           
  7411                           ;MCAL_Layer/Interrupt/mcal_interrupt_manager.c: 125:     if((1 == PIE1bits.RCIE) && (1 =
      +                          = PIR1bits.RCIF)){
  7412  001D5E  AA9D               	btfss	157,5,c	;volatile
  7413  001D60  EFB4  F00E         	goto	i2u714_41
  7414  001D64  EFB6  F00E         	goto	i2u714_40
  7415  001D68                     i2u714_41:
  7416  001D68  EFBF  F00E         	goto	i2l1250
  7417  001D6C                     i2u714_40:
  7418  001D6C  AA9E               	btfss	158,5,c	;volatile
  7419  001D6E  EFBB  F00E         	goto	i2u715_41
  7420  001D72  EFBD  F00E         	goto	i2u715_40
  7421  001D76                     i2u715_41:
  7422  001D76  EFBF  F00E         	goto	i2l1250
  7423  001D7A                     i2u715_40:
  7424  001D7A                     
  7425                           ;MCAL_Layer/Interrupt/mcal_interrupt_manager.c: 126:         EUSART_RX_ISR();
  7426  001D7A  ECAA  F01B         	call	_EUSART_RX_ISR	;wreg free
  7427  001D7E                     i2l1250:
  7428                           
  7429                           ;MCAL_Layer/Interrupt/mcal_interrupt_manager.c: 131:     if((1 == PIE1bits.SSPIE) && (1 
      +                          == PIR1bits.SSPIF)){
  7430  001D7E  A69D               	btfss	157,3,c	;volatile
  7431  001D80  EFC4  F00E         	goto	i2u716_41
  7432  001D84  EFC6  F00E         	goto	i2u716_40
  7433  001D88                     i2u716_41:
  7434  001D88  EFCF  F00E         	goto	i2l1252
  7435  001D8C                     i2u716_40:
  7436  001D8C  A69E               	btfss	158,3,c	;volatile
  7437  001D8E  EFCB  F00E         	goto	i2u717_41
  7438  001D92  EFCD  F00E         	goto	i2u717_40
  7439  001D96                     i2u717_41:
  7440  001D96  EFCF  F00E         	goto	i2l1252
  7441  001D9A                     i2u717_40:
  7442  001D9A                     
  7443                           ;MCAL_Layer/Interrupt/mcal_interrupt_manager.c: 132:         MSSP_I2C_ISR();
  7444  001D9A  EC97  F01B         	call	_MSSP_I2C_ISR	;wreg free
  7445  001D9E                     i2l1252:
  7446                           
  7447                           ;MCAL_Layer/Interrupt/mcal_interrupt_manager.c: 135:     if((1 == PIE2bits.BCLIE) && (1 
      +                          == PIR2bits.BCLIF)){
  7448  001D9E  A6A0               	btfss	160,3,c	;volatile
  7449  001DA0  EFD4  F00E         	goto	i2u718_41
  7450  001DA4  EFD6  F00E         	goto	i2u718_40
  7451  001DA8                     i2u718_41:
  7452  001DA8  EFDF  F00E         	goto	i2l1254
  7453  001DAC                     i2u718_40:
  7454  001DAC  A6A1               	btfss	161,3,c	;volatile
  7455  001DAE  EFDB  F00E         	goto	i2u719_41
  7456  001DB2  EFDD  F00E         	goto	i2u719_40
  7457  001DB6                     i2u719_41:
  7458  001DB6  EFDF  F00E         	goto	i2l1254
  7459  001DBA                     i2u719_40:
  7460  001DBA                     
  7461                           ;MCAL_Layer/Interrupt/mcal_interrupt_manager.c: 136:         MSSP_I2C_BC_ISR();
  7462  001DBA  EC99  F01B         	call	_MSSP_I2C_BC_ISR	;wreg free
  7463  001DBE                     i2l1254:
  7464                           
  7465                           ;MCAL_Layer/Interrupt/mcal_interrupt_manager.c: 139:     if((1 == PIE1bits.SSPIE) && (1 
      +                          == PIR1bits.SSPIF)){
  7466  001DBE  A69D               	btfss	157,3,c	;volatile
  7467  001DC0  EFE4  F00E         	goto	i2u720_41
  7468  001DC4  EFE6  F00E         	goto	i2u720_40
  7469  001DC8                     i2u720_41:
  7470  001DC8  EFEF  F00E         	goto	i2l1256
  7471  001DCC                     i2u720_40:
  7472  001DCC  A69E               	btfss	158,3,c	;volatile
  7473  001DCE  EFEB  F00E         	goto	i2u721_41
  7474  001DD2  EFED  F00E         	goto	i2u721_40
  7475  001DD6                     i2u721_41:
  7476  001DD6  EFEF  F00E         	goto	i2l1256
  7477  001DDA                     i2u721_40:
  7478  001DDA                     
  7479                           ;MCAL_Layer/Interrupt/mcal_interrupt_manager.c: 140:         MSSP_SPI_ISR();
  7480  001DDA  ECA9  F01B         	call	_MSSP_SPI_ISR	;wreg free
  7481  001DDE                     i2l1256:
  7482                           
  7483                           ;MCAL_Layer/Interrupt/mcal_interrupt_manager.c: 145:     if((1 == PIE1bits.CCP1IE) && (1
      +                           == PIR1bits.CCP1IF)){
  7484  001DDE  A49D               	btfss	157,2,c	;volatile
  7485  001DE0  EFF4  F00E         	goto	i2u722_41
  7486  001DE4  EFF6  F00E         	goto	i2u722_40
  7487  001DE8                     i2u722_41:
  7488  001DE8  EFFF  F00E         	goto	i2l1258
  7489  001DEC                     i2u722_40:
  7490  001DEC  A49E               	btfss	158,2,c	;volatile
  7491  001DEE  EFFB  F00E         	goto	i2u723_41
  7492  001DF2  EFFD  F00E         	goto	i2u723_40
  7493  001DF6                     i2u723_41:
  7494  001DF6  EFFF  F00E         	goto	i2l1258
  7495  001DFA                     i2u723_40:
  7496  001DFA                     
  7497                           ;MCAL_Layer/Interrupt/mcal_interrupt_manager.c: 146:         CCP1_ISR();
  7498  001DFA  ECA5  F01B         	call	_CCP1_ISR	;wreg free
  7499  001DFE                     i2l1258:
  7500                           
  7501                           ;MCAL_Layer/Interrupt/mcal_interrupt_manager.c: 149:     if((1 == PIE2bits.CCP2IE) && (1
      +                           == PIR2bits.CCP2IF)){
  7502  001DFE  A0A0               	btfss	160,0,c	;volatile
  7503  001E00  EF04  F00F         	goto	i2u724_41
  7504  001E04  EF06  F00F         	goto	i2u724_40
  7505  001E08                     i2u724_41:
  7506  001E08  EF0F  F00F         	goto	i2l1261
  7507  001E0C                     i2u724_40:
  7508  001E0C  A0A1               	btfss	161,0,c	;volatile
  7509  001E0E  EF0B  F00F         	goto	i2u725_41
  7510  001E12  EF0D  F00F         	goto	i2u725_40
  7511  001E16                     i2u725_41:
  7512  001E16  EF0F  F00F         	goto	i2l1261
  7513  001E1A                     i2u725_40:
  7514  001E1A                     
  7515                           ;MCAL_Layer/Interrupt/mcal_interrupt_manager.c: 150:         CCP2_ISR();
  7516  001E1A  ECA3  F01B         	call	_CCP2_ISR	;wreg free
  7517  001E1E                     i2l1261:
  7518  001E1E  927D               	bcf	int$flags,1,c	;clear compiler interrupt flag (level 2)
  7519  001E20  0011               	retfie		f
  7520  001E22                     __end_of_InterruptManager:
  7521                           	callstack 0
  7522                           
  7523 ;; *************** function _TMR3_ISR *****************
  7524 ;; Defined at:
  7525 ;;		line 102 in file "MCAL_Layer/Timer3/hal_timr3.c"
  7526 ;; Parameters:    Size  Location     Type
  7527 ;;		None
  7528 ;; Auto vars:     Size  Location     Type
  7529 ;;		None
  7530 ;; Return value:  Size  Location     Type
  7531 ;;                  1    wreg      void 
  7532 ;; Registers used:
  7533 ;;		wreg, status,2
  7534 ;; Tracked objects:
  7535 ;;		On entry : 0/0
  7536 ;;		On exit  : 0/0
  7537 ;;		Unchanged: 0/0
  7538 ;; Data sizes:     COMRAM   BANK0   BANK1   BANK2   BANK3   BANK4   BANK5   BANK6   BANK7   BANK8   BANK9  BANK10  BANK1
      +1  BANK12  BANK13  BANK14  BANK15
  7539 ;;      Params:         0       0       0       0       0       0       0       0       0       0       0       0       
      +0       0       0       0       0
  7540 ;;      Locals:         0       0       0       0       0       0       0       0       0       0       0       0       
      +0       0       0       0       0
  7541 ;;      Temps:          0       0       0       0       0       0       0       0       0       0       0       0       
      +0       0       0       0       0
  7542 ;;      Totals:         0       0       0       0       0       0       0       0       0       0       0       0       
      +0       0       0       0       0
  7543 ;;Total ram usage:        0 bytes
  7544 ;; Hardware stack levels used: 1
  7545 ;; This function calls:
  7546 ;;		Nothing
  7547 ;; This function is called by:
  7548 ;;		_InterruptManager
  7549 ;; This function uses a non-reentrant model
  7550 ;;
  7551                           
  7552                           	psect	text34
  7553  003702                     __ptext34:
  7554                           	callstack 0
  7555  003702                     _TMR3_ISR:
  7556                           	callstack 23
  7557  003702                     
  7558                           ;MCAL_Layer/Timer3/hal_timr3.c: 103:     (PIR2bits.TMR3IF = 0);
  7559  003702  92A1               	bcf	161,1,c	;volatile
  7560  003704                     
  7561                           ;MCAL_Layer/Timer3/hal_timr3.c: 104:     TMR3H = (timer3_preload) >> 8;
  7562  003704  5049               	movf	(_timer3_preload+1)^0,w,c
  7563  003706  6EB3               	movwf	179,c	;volatile
  7564  003708                     
  7565                           ;MCAL_Layer/Timer3/hal_timr3.c: 105:     TMR3L = (uint8)(timer3_preload);
  7566  003708  C048  FFB2         	movff	_timer3_preload,4018	;volatile
  7567  00370C  0012               	return		;funcret
  7568  00370E                     __end_of_TMR3_ISR:
  7569                           	callstack 0
  7570                           
  7571 ;; *************** function _TMR2_ISR *****************
  7572 ;; Defined at:
  7573 ;;		line 95 in file "MCAL_Layer/Timer2/hal_timr2.c"
  7574 ;; Parameters:    Size  Location     Type
  7575 ;;		None
  7576 ;; Auto vars:     Size  Location     Type
  7577 ;;		None
  7578 ;; Return value:  Size  Location     Type
  7579 ;;                  1    wreg      void 
  7580 ;; Registers used:
  7581 ;;		None
  7582 ;; Tracked objects:
  7583 ;;		On entry : 0/0
  7584 ;;		On exit  : 0/0
  7585 ;;		Unchanged: 0/0
  7586 ;; Data sizes:     COMRAM   BANK0   BANK1   BANK2   BANK3   BANK4   BANK5   BANK6   BANK7   BANK8   BANK9  BANK10  BANK1
      +1  BANK12  BANK13  BANK14  BANK15
  7587 ;;      Params:         0       0       0       0       0       0       0       0       0       0       0       0       
      +0       0       0       0       0
  7588 ;;      Locals:         0       0       0       0       0       0       0       0       0       0       0       0       
      +0       0       0       0       0
  7589 ;;      Temps:          0       0       0       0       0       0       0       0       0       0       0       0       
      +0       0       0       0       0
  7590 ;;      Totals:         0       0       0       0       0       0       0       0       0       0       0       0       
      +0       0       0       0       0
  7591 ;;Total ram usage:        0 bytes
  7592 ;; Hardware stack levels used: 1
  7593 ;; This function calls:
  7594 ;;		Nothing
  7595 ;; This function is called by:
  7596 ;;		_InterruptManager
  7597 ;; This function uses a non-reentrant model
  7598 ;;
  7599                           
  7600                           	psect	text35
  7601  003726                     __ptext35:
  7602                           	callstack 0
  7603  003726                     _TMR2_ISR:
  7604                           	callstack 23
  7605  003726                     
  7606                           ;MCAL_Layer/Timer2/hal_timr2.c: 96:     (PIR1bits.TMR2IF = 0);
  7607  003726  929E               	bcf	158,1,c	;volatile
  7608                           
  7609                           ;MCAL_Layer/Timer2/hal_timr2.c: 97:     TMR2 = timer2_preload;
  7610  003728  C05F  FFCC         	movff	_timer2_preload,4044	;volatile
  7611  00372C  0012               	return		;funcret
  7612  00372E                     __end_of_TMR2_ISR:
  7613                           	callstack 0
  7614                           
  7615 ;; *************** function _TMR1_ISR *****************
  7616 ;; Defined at:
  7617 ;;		line 102 in file "MCAL_Layer/Timer1/hal_timr1.c"
  7618 ;; Parameters:    Size  Location     Type
  7619 ;;		None
  7620 ;; Auto vars:     Size  Location     Type
  7621 ;;		None
  7622 ;; Return value:  Size  Location     Type
  7623 ;;                  1    wreg      void 
  7624 ;; Registers used:
  7625 ;;		wreg, status,2
  7626 ;; Tracked objects:
  7627 ;;		On entry : 0/0
  7628 ;;		On exit  : 0/0
  7629 ;;		Unchanged: 0/0
  7630 ;; Data sizes:     COMRAM   BANK0   BANK1   BANK2   BANK3   BANK4   BANK5   BANK6   BANK7   BANK8   BANK9  BANK10  BANK1
      +1  BANK12  BANK13  BANK14  BANK15
  7631 ;;      Params:         0       0       0       0       0       0       0       0       0       0       0       0       
      +0       0       0       0       0
  7632 ;;      Locals:         0       0       0       0       0       0       0       0       0       0       0       0       
      +0       0       0       0       0
  7633 ;;      Temps:          0       0       0       0       0       0       0       0       0       0       0       0       
      +0       0       0       0       0
  7634 ;;      Totals:         0       0       0       0       0       0       0       0       0       0       0       0       
      +0       0       0       0       0
  7635 ;;Total ram usage:        0 bytes
  7636 ;; Hardware stack levels used: 1
  7637 ;; This function calls:
  7638 ;;		Nothing
  7639 ;; This function is called by:
  7640 ;;		_InterruptManager
  7641 ;; This function uses a non-reentrant model
  7642 ;;
  7643                           
  7644                           	psect	text36
  7645  00370E                     __ptext36:
  7646                           	callstack 0
  7647  00370E                     _TMR1_ISR:
  7648                           	callstack 23
  7649  00370E                     
  7650                           ;MCAL_Layer/Timer1/hal_timr1.c: 103:     (PIR1bits.TMR1IF = 0);
  7651  00370E  909E               	bcf	158,0,c	;volatile
  7652  003710                     
  7653                           ;MCAL_Layer/Timer1/hal_timr1.c: 104:     TMR1H = (timer1_preload) >> 8;
  7654  003710  504B               	movf	(_timer1_preload+1)^0,w,c	;volatile
  7655  003712  6ECF               	movwf	207,c	;volatile
  7656  003714                     
  7657                           ;MCAL_Layer/Timer1/hal_timr1.c: 105:     TMR1L = (uint8)(timer1_preload);
  7658  003714  C04A  FFCE         	movff	_timer1_preload,4046	;volatile
  7659  003718  0012               	return		;funcret
  7660  00371A                     __end_of_TMR1_ISR:
  7661                           	callstack 0
  7662                           
  7663 ;; *************** function _TMR0_ISR *****************
  7664 ;; Defined at:
  7665 ;;		line 107 in file "MCAL_Layer/Timer0/hal_timr0.c"
  7666 ;; Parameters:    Size  Location     Type
  7667 ;;		None
  7668 ;; Auto vars:     Size  Location     Type
  7669 ;;		None
  7670 ;; Return value:  Size  Location     Type
  7671 ;;                  1    wreg      void 
  7672 ;; Registers used:
  7673 ;;		wreg, status,2
  7674 ;; Tracked objects:
  7675 ;;		On entry : 0/0
  7676 ;;		On exit  : 0/0
  7677 ;;		Unchanged: 0/0
  7678 ;; Data sizes:     COMRAM   BANK0   BANK1   BANK2   BANK3   BANK4   BANK5   BANK6   BANK7   BANK8   BANK9  BANK10  BANK1
      +1  BANK12  BANK13  BANK14  BANK15
  7679 ;;      Params:         0       0       0       0       0       0       0       0       0       0       0       0       
      +0       0       0       0       0
  7680 ;;      Locals:         0       0       0       0       0       0       0       0       0       0       0       0       
      +0       0       0       0       0
  7681 ;;      Temps:          0       0       0       0       0       0       0       0       0       0       0       0       
      +0       0       0       0       0
  7682 ;;      Totals:         0       0       0       0       0       0       0       0       0       0       0       0       
      +0       0       0       0       0
  7683 ;;Total ram usage:        0 bytes
  7684 ;; Hardware stack levels used: 1
  7685 ;; This function calls:
  7686 ;;		Nothing
  7687 ;; This function is called by:
  7688 ;;		_InterruptManager
  7689 ;; This function uses a non-reentrant model
  7690 ;;
  7691                           
  7692                           	psect	text37
  7693  00371A                     __ptext37:
  7694                           	callstack 0
  7695  00371A                     _TMR0_ISR:
  7696                           	callstack 23
  7697  00371A                     
  7698                           ;MCAL_Layer/Timer0/hal_timr0.c: 108:     (INTCONbits.TMR0IF = 0);
  7699  00371A  94F2               	bcf	242,2,c	;volatile
  7700  00371C                     
  7701                           ;MCAL_Layer/Timer0/hal_timr0.c: 109:     TMR0H = (timer0_preload) >> 8;
  7702  00371C  504D               	movf	(_timer0_preload+1)^0,w,c
  7703  00371E  6ED7               	movwf	215,c	;volatile
  7704  003720                     
  7705                           ;MCAL_Layer/Timer0/hal_timr0.c: 110:     TMR0L = (uint8)(timer0_preload);
  7706  003720  C04C  FFD6         	movff	_timer0_preload,4054	;volatile
  7707  003724  0012               	return		;funcret
  7708  003726                     __end_of_TMR0_ISR:
  7709                           	callstack 0
  7710                           
  7711 ;; *************** function _RB7_ISR *****************
  7712 ;; Defined at:
  7713 ;;		line 164 in file "MCAL_Layer/Interrupt/mcal_external_interrupt.c"
  7714 ;; Parameters:    Size  Location     Type
  7715 ;;  RB7_Source      1    wreg     unsigned char 
  7716 ;; Auto vars:     Size  Location     Type
  7717 ;;  RB7_Source      1    0[COMRAM] unsigned char 
  7718 ;; Return value:  Size  Location     Type
  7719 ;;                  1    wreg      void 
  7720 ;; Registers used:
  7721 ;;		wreg, status,2, status,0
  7722 ;; Tracked objects:
  7723 ;;		On entry : 0/0
  7724 ;;		On exit  : 0/0
  7725 ;;		Unchanged: 0/0
  7726 ;; Data sizes:     COMRAM   BANK0   BANK1   BANK2   BANK3   BANK4   BANK5   BANK6   BANK7   BANK8   BANK9  BANK10  BANK1
      +1  BANK12  BANK13  BANK14  BANK15
  7727 ;;      Params:         0       0       0       0       0       0       0       0       0       0       0       0       
      +0       0       0       0       0
  7728 ;;      Locals:         1       0       0       0       0       0       0       0       0       0       0       0       
      +0       0       0       0       0
  7729 ;;      Temps:          0       0       0       0       0       0       0       0       0       0       0       0       
      +0       0       0       0       0
  7730 ;;      Totals:         1       0       0       0       0       0       0       0       0       0       0       0       
      +0       0       0       0       0
  7731 ;;Total ram usage:        1 bytes
  7732 ;; Hardware stack levels used: 1
  7733 ;; This function calls:
  7734 ;;		Nothing
  7735 ;; This function is called by:
  7736 ;;		_InterruptManager
  7737 ;; This function uses a non-reentrant model
  7738 ;;
  7739                           
  7740                           	psect	text38
  7741  003684                     __ptext38:
  7742                           	callstack 0
  7743  003684                     _RB7_ISR:
  7744                           	callstack 23
  7745                           
  7746                           ;incstack = 0
  7747                           ;RB7_ISR@RB7_Source stored from wreg
  7748  003684  6E01               	movwf	RB7_ISR@RB7_Source^0,c
  7749  003686                     
  7750                           ;MCAL_Layer/Interrupt/mcal_external_interrupt.c: 166:     (INTCONbits.RBIF = 0);
  7751  003686  90F2               	bcf	242,0,c	;volatile
  7752  003688                     
  7753                           ;MCAL_Layer/Interrupt/mcal_external_interrupt.c: 169:     if(0 == RB7_Source){
  7754  003688  5001               	movf	RB7_ISR@RB7_Source^0,w,c
  7755  00368A  A4D8               	btfss	status,2,c
  7756  00368C  EF4A  F01B         	goto	i2u565_41
  7757  003690  EF4C  F01B         	goto	i2u565_40
  7758  003694                     i2u565_41:
  7759  003694  EF4E  F01B         	goto	i2l6790
  7760  003698                     i2u565_40:
  7761  003698  EF4E  F01B         	goto	i2l1041
  7762  00369C                     i2l6790:
  7763  00369C                     i2l1041:
  7764  00369C  0012               	return		;funcret
  7765  00369E                     __end_of_RB7_ISR:
  7766                           	callstack 0
  7767                           
  7768 ;; *************** function _RB6_ISR *****************
  7769 ;; Defined at:
  7770 ;;		line 145 in file "MCAL_Layer/Interrupt/mcal_external_interrupt.c"
  7771 ;; Parameters:    Size  Location     Type
  7772 ;;  RB6_Source      1    wreg     unsigned char 
  7773 ;; Auto vars:     Size  Location     Type
  7774 ;;  RB6_Source      1    0[COMRAM] unsigned char 
  7775 ;; Return value:  Size  Location     Type
  7776 ;;                  1    wreg      void 
  7777 ;; Registers used:
  7778 ;;		wreg, status,2, status,0
  7779 ;; Tracked objects:
  7780 ;;		On entry : 0/0
  7781 ;;		On exit  : 0/0
  7782 ;;		Unchanged: 0/0
  7783 ;; Data sizes:     COMRAM   BANK0   BANK1   BANK2   BANK3   BANK4   BANK5   BANK6   BANK7   BANK8   BANK9  BANK10  BANK1
      +1  BANK12  BANK13  BANK14  BANK15
  7784 ;;      Params:         0       0       0       0       0       0       0       0       0       0       0       0       
      +0       0       0       0       0
  7785 ;;      Locals:         1       0       0       0       0       0       0       0       0       0       0       0       
      +0       0       0       0       0
  7786 ;;      Temps:          0       0       0       0       0       0       0       0       0       0       0       0       
      +0       0       0       0       0
  7787 ;;      Totals:         1       0       0       0       0       0       0       0       0       0       0       0       
      +0       0       0       0       0
  7788 ;;Total ram usage:        1 bytes
  7789 ;; Hardware stack levels used: 1
  7790 ;; This function calls:
  7791 ;;		Nothing
  7792 ;; This function is called by:
  7793 ;;		_InterruptManager
  7794 ;; This function uses a non-reentrant model
  7795 ;;
  7796                           
  7797                           	psect	text39
  7798  00369E                     __ptext39:
  7799                           	callstack 0
  7800  00369E                     _RB6_ISR:
  7801                           	callstack 23
  7802                           
  7803                           ;incstack = 0
  7804                           ;RB6_ISR@RB6_Source stored from wreg
  7805  00369E  6E01               	movwf	RB6_ISR@RB6_Source^0,c
  7806  0036A0                     
  7807                           ;MCAL_Layer/Interrupt/mcal_external_interrupt.c: 147:     (INTCONbits.RBIF = 0);
  7808  0036A0  90F2               	bcf	242,0,c	;volatile
  7809  0036A2                     
  7810                           ;MCAL_Layer/Interrupt/mcal_external_interrupt.c: 150:     if(0 == RB6_Source){
  7811  0036A2  5001               	movf	RB6_ISR@RB6_Source^0,w,c
  7812  0036A4  A4D8               	btfss	status,2,c
  7813  0036A6  EF57  F01B         	goto	i2u564_41
  7814  0036AA  EF59  F01B         	goto	i2u564_40
  7815  0036AE                     i2u564_41:
  7816  0036AE  EF5B  F01B         	goto	i2l6776
  7817  0036B2                     i2u564_40:
  7818  0036B2  EF5B  F01B         	goto	i2l1030
  7819  0036B6                     i2l6776:
  7820  0036B6                     i2l1030:
  7821  0036B6  0012               	return		;funcret
  7822  0036B8                     __end_of_RB6_ISR:
  7823                           	callstack 0
  7824                           
  7825 ;; *************** function _RB5_ISR *****************
  7826 ;; Defined at:
  7827 ;;		line 126 in file "MCAL_Layer/Interrupt/mcal_external_interrupt.c"
  7828 ;; Parameters:    Size  Location     Type
  7829 ;;  RB5_Source      1    wreg     unsigned char 
  7830 ;; Auto vars:     Size  Location     Type
  7831 ;;  RB5_Source      1    0[COMRAM] unsigned char 
  7832 ;; Return value:  Size  Location     Type
  7833 ;;                  1    wreg      void 
  7834 ;; Registers used:
  7835 ;;		wreg, status,2, status,0
  7836 ;; Tracked objects:
  7837 ;;		On entry : 0/0
  7838 ;;		On exit  : 0/0
  7839 ;;		Unchanged: 0/0
  7840 ;; Data sizes:     COMRAM   BANK0   BANK1   BANK2   BANK3   BANK4   BANK5   BANK6   BANK7   BANK8   BANK9  BANK10  BANK1
      +1  BANK12  BANK13  BANK14  BANK15
  7841 ;;      Params:         0       0       0       0       0       0       0       0       0       0       0       0       
      +0       0       0       0       0
  7842 ;;      Locals:         1       0       0       0       0       0       0       0       0       0       0       0       
      +0       0       0       0       0
  7843 ;;      Temps:          0       0       0       0       0       0       0       0       0       0       0       0       
      +0       0       0       0       0
  7844 ;;      Totals:         1       0       0       0       0       0       0       0       0       0       0       0       
      +0       0       0       0       0
  7845 ;;Total ram usage:        1 bytes
  7846 ;; Hardware stack levels used: 1
  7847 ;; This function calls:
  7848 ;;		Nothing
  7849 ;; This function is called by:
  7850 ;;		_InterruptManager
  7851 ;; This function uses a non-reentrant model
  7852 ;;
  7853                           
  7854                           	psect	text40
  7855  0036B8                     __ptext40:
  7856                           	callstack 0
  7857  0036B8                     _RB5_ISR:
  7858                           	callstack 23
  7859                           
  7860                           ;incstack = 0
  7861                           ;RB5_ISR@RB5_Source stored from wreg
  7862  0036B8  6E01               	movwf	RB5_ISR@RB5_Source^0,c
  7863  0036BA                     
  7864                           ;MCAL_Layer/Interrupt/mcal_external_interrupt.c: 128:     (INTCONbits.RBIF = 0);
  7865  0036BA  90F2               	bcf	242,0,c	;volatile
  7866  0036BC                     
  7867                           ;MCAL_Layer/Interrupt/mcal_external_interrupt.c: 131:     if(0 == RB5_Source){
  7868  0036BC  5001               	movf	RB5_ISR@RB5_Source^0,w,c
  7869  0036BE  A4D8               	btfss	status,2,c
  7870  0036C0  EF64  F01B         	goto	i2u563_41
  7871  0036C4  EF66  F01B         	goto	i2u563_40
  7872  0036C8                     i2u563_41:
  7873  0036C8  EF68  F01B         	goto	i2l6762
  7874  0036CC                     i2u563_40:
  7875  0036CC  EF68  F01B         	goto	i2l1019
  7876  0036D0                     i2l6762:
  7877  0036D0                     i2l1019:
  7878  0036D0  0012               	return		;funcret
  7879  0036D2                     __end_of_RB5_ISR:
  7880                           	callstack 0
  7881                           
  7882 ;; *************** function _RB4_ISR *****************
  7883 ;; Defined at:
  7884 ;;		line 107 in file "MCAL_Layer/Interrupt/mcal_external_interrupt.c"
  7885 ;; Parameters:    Size  Location     Type
  7886 ;;  RB4_Source      1    wreg     unsigned char 
  7887 ;; Auto vars:     Size  Location     Type
  7888 ;;  RB4_Source      1    0[COMRAM] unsigned char 
  7889 ;; Return value:  Size  Location     Type
  7890 ;;                  1    wreg      void 
  7891 ;; Registers used:
  7892 ;;		wreg, status,2, status,0
  7893 ;; Tracked objects:
  7894 ;;		On entry : 0/0
  7895 ;;		On exit  : 0/0
  7896 ;;		Unchanged: 0/0
  7897 ;; Data sizes:     COMRAM   BANK0   BANK1   BANK2   BANK3   BANK4   BANK5   BANK6   BANK7   BANK8   BANK9  BANK10  BANK1
      +1  BANK12  BANK13  BANK14  BANK15
  7898 ;;      Params:         0       0       0       0       0       0       0       0       0       0       0       0       
      +0       0       0       0       0
  7899 ;;      Locals:         1       0       0       0       0       0       0       0       0       0       0       0       
      +0       0       0       0       0
  7900 ;;      Temps:          0       0       0       0       0       0       0       0       0       0       0       0       
      +0       0       0       0       0
  7901 ;;      Totals:         1       0       0       0       0       0       0       0       0       0       0       0       
      +0       0       0       0       0
  7902 ;;Total ram usage:        1 bytes
  7903 ;; Hardware stack levels used: 1
  7904 ;; This function calls:
  7905 ;;		Nothing
  7906 ;; This function is called by:
  7907 ;;		_InterruptManager
  7908 ;; This function uses a non-reentrant model
  7909 ;;
  7910                           
  7911                           	psect	text41
  7912  0036D2                     __ptext41:
  7913                           	callstack 0
  7914  0036D2                     _RB4_ISR:
  7915                           	callstack 23
  7916                           
  7917                           ;incstack = 0
  7918                           ;RB4_ISR@RB4_Source stored from wreg
  7919  0036D2  6E01               	movwf	RB4_ISR@RB4_Source^0,c
  7920  0036D4                     
  7921                           ;MCAL_Layer/Interrupt/mcal_external_interrupt.c: 109:     (INTCONbits.RBIF = 0);
  7922  0036D4  90F2               	bcf	242,0,c	;volatile
  7923  0036D6                     
  7924                           ;MCAL_Layer/Interrupt/mcal_external_interrupt.c: 112:     if(0 == RB4_Source){
  7925  0036D6  5001               	movf	RB4_ISR@RB4_Source^0,w,c
  7926  0036D8  A4D8               	btfss	status,2,c
  7927  0036DA  EF71  F01B         	goto	i2u562_41
  7928  0036DE  EF73  F01B         	goto	i2u562_40
  7929  0036E2                     i2u562_41:
  7930  0036E2  EF75  F01B         	goto	i2l6748
  7931  0036E6                     i2u562_40:
  7932  0036E6  EF75  F01B         	goto	i2l1008
  7933  0036EA                     i2l6748:
  7934  0036EA                     i2l1008:
  7935  0036EA  0012               	return		;funcret
  7936  0036EC                     __end_of_RB4_ISR:
  7937                           	callstack 0
  7938                           
  7939 ;; *************** function _MSSP_SPI_ISR *****************
  7940 ;; Defined at:
  7941 ;;		line 105 in file "MCAL_Layer/SPI/hal_spi.c"
  7942 ;; Parameters:    Size  Location     Type
  7943 ;;		None
  7944 ;; Auto vars:     Size  Location     Type
  7945 ;;		None
  7946 ;; Return value:  Size  Location     Type
  7947 ;;                  1    wreg      void 
  7948 ;; Registers used:
  7949 ;;		None
  7950 ;; Tracked objects:
  7951 ;;		On entry : 0/0
  7952 ;;		On exit  : 0/0
  7953 ;;		Unchanged: 0/0
  7954 ;; Data sizes:     COMRAM   BANK0   BANK1   BANK2   BANK3   BANK4   BANK5   BANK6   BANK7   BANK8   BANK9  BANK10  BANK1
      +1  BANK12  BANK13  BANK14  BANK15
  7955 ;;      Params:         0       0       0       0       0       0       0       0       0       0       0       0       
      +0       0       0       0       0
  7956 ;;      Locals:         0       0       0       0       0       0       0       0       0       0       0       0       
      +0       0       0       0       0
  7957 ;;      Temps:          0       0       0       0       0       0       0       0       0       0       0       0       
      +0       0       0       0       0
  7958 ;;      Totals:         0       0       0       0       0       0       0       0       0       0       0       0       
      +0       0       0       0       0
  7959 ;;Total ram usage:        0 bytes
  7960 ;; Hardware stack levels used: 1
  7961 ;; This function calls:
  7962 ;;		Nothing
  7963 ;; This function is called by:
  7964 ;;		_InterruptManager
  7965 ;; This function uses a non-reentrant model
  7966 ;;
  7967                           
  7968                           	psect	text42
  7969  003752                     __ptext42:
  7970                           	callstack 0
  7971  003752                     _MSSP_SPI_ISR:
  7972                           	callstack 23
  7973  003752  0012               	return		;funcret
  7974  003754                     __end_of_MSSP_SPI_ISR:
  7975                           	callstack 0
  7976                           
  7977 ;; *************** function _MSSP_I2C_ISR *****************
  7978 ;; Defined at:
  7979 ;;		line 242 in file "MCAL_Layer/I2C/hal_i2c.c"
  7980 ;; Parameters:    Size  Location     Type
  7981 ;;		None
  7982 ;; Auto vars:     Size  Location     Type
  7983 ;;		None
  7984 ;; Return value:  Size  Location     Type
  7985 ;;                  1    wreg      void 
  7986 ;; Registers used:
  7987 ;;		None
  7988 ;; Tracked objects:
  7989 ;;		On entry : 0/0
  7990 ;;		On exit  : 0/0
  7991 ;;		Unchanged: 0/0
  7992 ;; Data sizes:     COMRAM   BANK0   BANK1   BANK2   BANK3   BANK4   BANK5   BANK6   BANK7   BANK8   BANK9  BANK10  BANK1
      +1  BANK12  BANK13  BANK14  BANK15
  7993 ;;      Params:         0       0       0       0       0       0       0       0       0       0       0       0       
      +0       0       0       0       0
  7994 ;;      Locals:         0       0       0       0       0       0       0       0       0       0       0       0       
      +0       0       0       0       0
  7995 ;;      Temps:          0       0       0       0       0       0       0       0       0       0       0       0       
      +0       0       0       0       0
  7996 ;;      Totals:         0       0       0       0       0       0       0       0       0       0       0       0       
      +0       0       0       0       0
  7997 ;;Total ram usage:        0 bytes
  7998 ;; Hardware stack levels used: 1
  7999 ;; This function calls:
  8000 ;;		Nothing
  8001 ;; This function is called by:
  8002 ;;		_InterruptManager
  8003 ;; This function uses a non-reentrant model
  8004 ;;
  8005                           
  8006                           	psect	text43
  8007  00372E                     __ptext43:
  8008                           	callstack 0
  8009  00372E                     _MSSP_I2C_ISR:
  8010                           	callstack 23
  8011  00372E                     
  8012                           ;MCAL_Layer/I2C/hal_i2c.c: 244:     (PIR1bits.SSPIF = 0);
  8013  00372E  969E               	bcf	158,3,c	;volatile
  8014  003730  0012               	return		;funcret
  8015  003732                     __end_of_MSSP_I2C_ISR:
  8016                           	callstack 0
  8017                           
  8018 ;; *************** function _MSSP_I2C_BC_ISR *****************
  8019 ;; Defined at:
  8020 ;;		line 251 in file "MCAL_Layer/I2C/hal_i2c.c"
  8021 ;; Parameters:    Size  Location     Type
  8022 ;;		None
  8023 ;; Auto vars:     Size  Location     Type
  8024 ;;		None
  8025 ;; Return value:  Size  Location     Type
  8026 ;;                  1    wreg      void 
  8027 ;; Registers used:
  8028 ;;		None
  8029 ;; Tracked objects:
  8030 ;;		On entry : 0/0
  8031 ;;		On exit  : 0/0
  8032 ;;		Unchanged: 0/0
  8033 ;; Data sizes:     COMRAM   BANK0   BANK1   BANK2   BANK3   BANK4   BANK5   BANK6   BANK7   BANK8   BANK9  BANK10  BANK1
      +1  BANK12  BANK13  BANK14  BANK15
  8034 ;;      Params:         0       0       0       0       0       0       0       0       0       0       0       0       
      +0       0       0       0       0
  8035 ;;      Locals:         0       0       0       0       0       0       0       0       0       0       0       0       
      +0       0       0       0       0
  8036 ;;      Temps:          0       0       0       0       0       0       0       0       0       0       0       0       
      +0       0       0       0       0
  8037 ;;      Totals:         0       0       0       0       0       0       0       0       0       0       0       0       
      +0       0       0       0       0
  8038 ;;Total ram usage:        0 bytes
  8039 ;; Hardware stack levels used: 1
  8040 ;; This function calls:
  8041 ;;		Nothing
  8042 ;; This function is called by:
  8043 ;;		_InterruptManager
  8044 ;; This function uses a non-reentrant model
  8045 ;;
  8046                           
  8047                           	psect	text44
  8048  003732                     __ptext44:
  8049                           	callstack 0
  8050  003732                     _MSSP_I2C_BC_ISR:
  8051                           	callstack 23
  8052  003732                     
  8053                           ;MCAL_Layer/I2C/hal_i2c.c: 253:     (PIR2bits.BCLIF = 0);
  8054  003732  96A1               	bcf	161,3,c	;volatile
  8055  003734  0012               	return		;funcret
  8056  003736                     __end_of_MSSP_I2C_BC_ISR:
  8057                           	callstack 0
  8058                           
  8059 ;; *************** function _INT2_ISR *****************
  8060 ;; Defined at:
  8061 ;;		line 95 in file "MCAL_Layer/Interrupt/mcal_external_interrupt.c"
  8062 ;; Parameters:    Size  Location     Type
  8063 ;;		None
  8064 ;; Auto vars:     Size  Location     Type
  8065 ;;		None
  8066 ;; Return value:  Size  Location     Type
  8067 ;;                  1    wreg      void 
  8068 ;; Registers used:
  8069 ;;		None
  8070 ;; Tracked objects:
  8071 ;;		On entry : 0/0
  8072 ;;		On exit  : 0/0
  8073 ;;		Unchanged: 0/0
  8074 ;; Data sizes:     COMRAM   BANK0   BANK1   BANK2   BANK3   BANK4   BANK5   BANK6   BANK7   BANK8   BANK9  BANK10  BANK1
      +1  BANK12  BANK13  BANK14  BANK15
  8075 ;;      Params:         0       0       0       0       0       0       0       0       0       0       0       0       
      +0       0       0       0       0
  8076 ;;      Locals:         0       0       0       0       0       0       0       0       0       0       0       0       
      +0       0       0       0       0
  8077 ;;      Temps:          0       0       0       0       0       0       0       0       0       0       0       0       
      +0       0       0       0       0
  8078 ;;      Totals:         0       0       0       0       0       0       0       0       0       0       0       0       
      +0       0       0       0       0
  8079 ;;Total ram usage:        0 bytes
  8080 ;; Hardware stack levels used: 1
  8081 ;; This function calls:
  8082 ;;		Nothing
  8083 ;; This function is called by:
  8084 ;;		_InterruptManager
  8085 ;; This function uses a non-reentrant model
  8086 ;;
  8087                           
  8088                           	psect	text45
  8089  003736                     __ptext45:
  8090                           	callstack 0
  8091  003736                     _INT2_ISR:
  8092                           	callstack 23
  8093  003736                     
  8094                           ;MCAL_Layer/Interrupt/mcal_external_interrupt.c: 97:     (INTCON3bits.INT2IF = 0);
  8095  003736  92F0               	bcf	240,1,c	;volatile
  8096  003738  0012               	return		;funcret
  8097  00373A                     __end_of_INT2_ISR:
  8098                           	callstack 0
  8099                           
  8100 ;; *************** function _INT1_ISR *****************
  8101 ;; Defined at:
  8102 ;;		line 86 in file "MCAL_Layer/Interrupt/mcal_external_interrupt.c"
  8103 ;; Parameters:    Size  Location     Type
  8104 ;;		None
  8105 ;; Auto vars:     Size  Location     Type
  8106 ;;		None
  8107 ;; Return value:  Size  Location     Type
  8108 ;;                  1    wreg      void 
  8109 ;; Registers used:
  8110 ;;		None
  8111 ;; Tracked objects:
  8112 ;;		On entry : 0/0
  8113 ;;		On exit  : 0/0
  8114 ;;		Unchanged: 0/0
  8115 ;; Data sizes:     COMRAM   BANK0   BANK1   BANK2   BANK3   BANK4   BANK5   BANK6   BANK7   BANK8   BANK9  BANK10  BANK1
      +1  BANK12  BANK13  BANK14  BANK15
  8116 ;;      Params:         0       0       0       0       0       0       0       0       0       0       0       0       
      +0       0       0       0       0
  8117 ;;      Locals:         0       0       0       0       0       0       0       0       0       0       0       0       
      +0       0       0       0       0
  8118 ;;      Temps:          0       0       0       0       0       0       0       0       0       0       0       0       
      +0       0       0       0       0
  8119 ;;      Totals:         0       0       0       0       0       0       0       0       0       0       0       0       
      +0       0       0       0       0
  8120 ;;Total ram usage:        0 bytes
  8121 ;; Hardware stack levels used: 1
  8122 ;; This function calls:
  8123 ;;		Nothing
  8124 ;; This function is called by:
  8125 ;;		_InterruptManager
  8126 ;; This function uses a non-reentrant model
  8127 ;;
  8128                           
  8129                           	psect	text46
  8130  00373A                     __ptext46:
  8131                           	callstack 0
  8132  00373A                     _INT1_ISR:
  8133                           	callstack 23
  8134  00373A                     
  8135                           ;MCAL_Layer/Interrupt/mcal_external_interrupt.c: 88:     (INTCON3bits.INT1IF = 0);
  8136  00373A  90F0               	bcf	240,0,c	;volatile
  8137  00373C  0012               	return		;funcret
  8138  00373E                     __end_of_INT1_ISR:
  8139                           	callstack 0
  8140                           
  8141 ;; *************** function _INT0_ISR *****************
  8142 ;; Defined at:
  8143 ;;		line 74 in file "MCAL_Layer/Interrupt/mcal_external_interrupt.c"
  8144 ;; Parameters:    Size  Location     Type
  8145 ;;		None
  8146 ;; Auto vars:     Size  Location     Type
  8147 ;;		None
  8148 ;; Return value:  Size  Location     Type
  8149 ;;                  1    wreg      void 
  8150 ;; Registers used:
  8151 ;;		None
  8152 ;; Tracked objects:
  8153 ;;		On entry : 0/0
  8154 ;;		On exit  : 0/0
  8155 ;;		Unchanged: 0/0
  8156 ;; Data sizes:     COMRAM   BANK0   BANK1   BANK2   BANK3   BANK4   BANK5   BANK6   BANK7   BANK8   BANK9  BANK10  BANK1
      +1  BANK12  BANK13  BANK14  BANK15
  8157 ;;      Params:         0       0       0       0       0       0       0       0       0       0       0       0       
      +0       0       0       0       0
  8158 ;;      Locals:         0       0       0       0       0       0       0       0       0       0       0       0       
      +0       0       0       0       0
  8159 ;;      Temps:          0       0       0       0       0       0       0       0       0       0       0       0       
      +0       0       0       0       0
  8160 ;;      Totals:         0       0       0       0       0       0       0       0       0       0       0       0       
      +0       0       0       0       0
  8161 ;;Total ram usage:        0 bytes
  8162 ;; Hardware stack levels used: 1
  8163 ;; This function calls:
  8164 ;;		Nothing
  8165 ;; This function is called by:
  8166 ;;		_InterruptManager
  8167 ;; This function uses a non-reentrant model
  8168 ;;
  8169                           
  8170                           	psect	text47
  8171  00373E                     __ptext47:
  8172                           	callstack 0
  8173  00373E                     _INT0_ISR:
  8174                           	callstack 23
  8175  00373E                     
  8176                           ;MCAL_Layer/Interrupt/mcal_external_interrupt.c: 76:     (INTCONbits.INT0IF = 0);
  8177  00373E  92F2               	bcf	242,1,c	;volatile
  8178  003740  0012               	return		;funcret
  8179  003742                     __end_of_INT0_ISR:
  8180                           	callstack 0
  8181                           
  8182 ;; *************** function _EUSART_TX_ISR *****************
  8183 ;; Defined at:
  8184 ;;		line 275 in file "MCAL_Layer/usart/hal_usart.c"
  8185 ;; Parameters:    Size  Location     Type
  8186 ;;		None
  8187 ;; Auto vars:     Size  Location     Type
  8188 ;;		None
  8189 ;; Return value:  Size  Location     Type
  8190 ;;                  1    wreg      void 
  8191 ;; Registers used:
  8192 ;;		None
  8193 ;; Tracked objects:
  8194 ;;		On entry : 0/0
  8195 ;;		On exit  : 0/0
  8196 ;;		Unchanged: 0/0
  8197 ;; Data sizes:     COMRAM   BANK0   BANK1   BANK2   BANK3   BANK4   BANK5   BANK6   BANK7   BANK8   BANK9  BANK10  BANK1
      +1  BANK12  BANK13  BANK14  BANK15
  8198 ;;      Params:         0       0       0       0       0       0       0       0       0       0       0       0       
      +0       0       0       0       0
  8199 ;;      Locals:         0       0       0       0       0       0       0       0       0       0       0       0       
      +0       0       0       0       0
  8200 ;;      Temps:          0       0       0       0       0       0       0       0       0       0       0       0       
      +0       0       0       0       0
  8201 ;;      Totals:         0       0       0       0       0       0       0       0       0       0       0       0       
      +0       0       0       0       0
  8202 ;;Total ram usage:        0 bytes
  8203 ;; Hardware stack levels used: 1
  8204 ;; This function calls:
  8205 ;;		Nothing
  8206 ;; This function is called by:
  8207 ;;		_InterruptManager
  8208 ;; This function uses a non-reentrant model
  8209 ;;
  8210                           
  8211                           	psect	text48
  8212  003742                     __ptext48:
  8213                           	callstack 0
  8214  003742                     _EUSART_TX_ISR:
  8215                           	callstack 23
  8216  003742                     
  8217                           ;MCAL_Layer/usart/hal_usart.c: 276:     (PIE1bits.TXIE = 0);
  8218  003742  989D               	bcf	157,4,c	;volatile
  8219  003744  0012               	return		;funcret
  8220  003746                     __end_of_EUSART_TX_ISR:
  8221                           	callstack 0
  8222                           
  8223 ;; *************** function _EUSART_RX_ISR *****************
  8224 ;; Defined at:
  8225 ;;		line 282 in file "MCAL_Layer/usart/hal_usart.c"
  8226 ;; Parameters:    Size  Location     Type
  8227 ;;		None
  8228 ;; Auto vars:     Size  Location     Type
  8229 ;;		None
  8230 ;; Return value:  Size  Location     Type
  8231 ;;                  1    wreg      void 
  8232 ;; Registers used:
  8233 ;;		wreg, status,2, status,0
  8234 ;; Tracked objects:
  8235 ;;		On entry : 0/0
  8236 ;;		On exit  : 0/0
  8237 ;;		Unchanged: 0/0
  8238 ;; Data sizes:     COMRAM   BANK0   BANK1   BANK2   BANK3   BANK4   BANK5   BANK6   BANK7   BANK8   BANK9  BANK10  BANK1
      +1  BANK12  BANK13  BANK14  BANK15
  8239 ;;      Params:         0       0       0       0       0       0       0       0       0       0       0       0       
      +0       0       0       0       0
  8240 ;;      Locals:         0       0       0       0       0       0       0       0       0       0       0       0       
      +0       0       0       0       0
  8241 ;;      Temps:          0       0       0       0       0       0       0       0       0       0       0       0       
      +0       0       0       0       0
  8242 ;;      Totals:         0       0       0       0       0       0       0       0       0       0       0       0       
      +0       0       0       0       0
  8243 ;;Total ram usage:        0 bytes
  8244 ;; Hardware stack levels used: 1
  8245 ;; This function calls:
  8246 ;;		Nothing
  8247 ;; This function is called by:
  8248 ;;		_InterruptManager
  8249 ;; This function uses a non-reentrant model
  8250 ;;
  8251                           
  8252                           	psect	text49
  8253  003754                     __ptext49:
  8254                           	callstack 0
  8255  003754                     _EUSART_RX_ISR:
  8256                           	callstack 23
  8257  003754  0012               	return		;funcret
  8258  003756                     __end_of_EUSART_RX_ISR:
  8259                           	callstack 0
  8260                           
  8261 ;; *************** function _CCP2_ISR *****************
  8262 ;; Defined at:
  8263 ;;		line 260 in file "MCAL_Layer/CCP/hal_ccp.c"
  8264 ;; Parameters:    Size  Location     Type
  8265 ;;		None
  8266 ;; Auto vars:     Size  Location     Type
  8267 ;;		None
  8268 ;; Return value:  Size  Location     Type
  8269 ;;                  1    wreg      void 
  8270 ;; Registers used:
  8271 ;;		None
  8272 ;; Tracked objects:
  8273 ;;		On entry : 0/0
  8274 ;;		On exit  : 0/0
  8275 ;;		Unchanged: 0/0
  8276 ;; Data sizes:     COMRAM   BANK0   BANK1   BANK2   BANK3   BANK4   BANK5   BANK6   BANK7   BANK8   BANK9  BANK10  BANK1
      +1  BANK12  BANK13  BANK14  BANK15
  8277 ;;      Params:         0       0       0       0       0       0       0       0       0       0       0       0       
      +0       0       0       0       0
  8278 ;;      Locals:         0       0       0       0       0       0       0       0       0       0       0       0       
      +0       0       0       0       0
  8279 ;;      Temps:          0       0       0       0       0       0       0       0       0       0       0       0       
      +0       0       0       0       0
  8280 ;;      Totals:         0       0       0       0       0       0       0       0       0       0       0       0       
      +0       0       0       0       0
  8281 ;;Total ram usage:        0 bytes
  8282 ;; Hardware stack levels used: 1
  8283 ;; This function calls:
  8284 ;;		Nothing
  8285 ;; This function is called by:
  8286 ;;		_InterruptManager
  8287 ;; This function uses a non-reentrant model
  8288 ;;
  8289                           
  8290                           	psect	text50
  8291  003746                     __ptext50:
  8292                           	callstack 0
  8293  003746                     _CCP2_ISR:
  8294                           	callstack 23
  8295  003746                     
  8296                           ;MCAL_Layer/CCP/hal_ccp.c: 261:     (PIR2bits.CCP2IF = 0);
  8297  003746  90A1               	bcf	161,0,c	;volatile
  8298  003748  0012               	return		;funcret
  8299  00374A                     __end_of_CCP2_ISR:
  8300                           	callstack 0
  8301                           
  8302 ;; *************** function _CCP1_ISR *****************
  8303 ;; Defined at:
  8304 ;;		line 252 in file "MCAL_Layer/CCP/hal_ccp.c"
  8305 ;; Parameters:    Size  Location     Type
  8306 ;;		None
  8307 ;; Auto vars:     Size  Location     Type
  8308 ;;		None
  8309 ;; Return value:  Size  Location     Type
  8310 ;;                  1    wreg      void 
  8311 ;; Registers used:
  8312 ;;		None
  8313 ;; Tracked objects:
  8314 ;;		On entry : 0/0
  8315 ;;		On exit  : 0/0
  8316 ;;		Unchanged: 0/0
  8317 ;; Data sizes:     COMRAM   BANK0   BANK1   BANK2   BANK3   BANK4   BANK5   BANK6   BANK7   BANK8   BANK9  BANK10  BANK1
      +1  BANK12  BANK13  BANK14  BANK15
  8318 ;;      Params:         0       0       0       0       0       0       0       0       0       0       0       0       
      +0       0       0       0       0
  8319 ;;      Locals:         0       0       0       0       0       0       0       0       0       0       0       0       
      +0       0       0       0       0
  8320 ;;      Temps:          0       0       0       0       0       0       0       0       0       0       0       0       
      +0       0       0       0       0
  8321 ;;      Totals:         0       0       0       0       0       0       0       0       0       0       0       0       
      +0       0       0       0       0
  8322 ;;Total ram usage:        0 bytes
  8323 ;; Hardware stack levels used: 1
  8324 ;; This function calls:
  8325 ;;		Nothing
  8326 ;; This function is called by:
  8327 ;;		_InterruptManager
  8328 ;; This function uses a non-reentrant model
  8329 ;;
  8330                           
  8331                           	psect	text51
  8332  00374A                     __ptext51:
  8333                           	callstack 0
  8334  00374A                     _CCP1_ISR:
  8335                           	callstack 23
  8336  00374A                     
  8337                           ;MCAL_Layer/CCP/hal_ccp.c: 253:     (PIR1bits.CCP1IF = 0);
  8338  00374A  949E               	bcf	158,2,c	;volatile
  8339  00374C  0012               	return		;funcret
  8340  00374E                     __end_of_CCP1_ISR:
  8341                           	callstack 0
  8342                           
  8343 ;; *************** function _ADC_ISR *****************
  8344 ;; Defined at:
  8345 ;;		line 296 in file "MCAL_Layer/ADC/hal_adc.c"
  8346 ;; Parameters:    Size  Location     Type
  8347 ;;		None
  8348 ;; Auto vars:     Size  Location     Type
  8349 ;;		None
  8350 ;; Return value:  Size  Location     Type
  8351 ;;                  1    wreg      void 
  8352 ;; Registers used:
  8353 ;;		None
  8354 ;; Tracked objects:
  8355 ;;		On entry : 0/0
  8356 ;;		On exit  : 0/0
  8357 ;;		Unchanged: 0/0
  8358 ;; Data sizes:     COMRAM   BANK0   BANK1   BANK2   BANK3   BANK4   BANK5   BANK6   BANK7   BANK8   BANK9  BANK10  BANK1
      +1  BANK12  BANK13  BANK14  BANK15
  8359 ;;      Params:         0       0       0       0       0       0       0       0       0       0       0       0       
      +0       0       0       0       0
  8360 ;;      Locals:         0       0       0       0       0       0       0       0       0       0       0       0       
      +0       0       0       0       0
  8361 ;;      Temps:          0       0       0       0       0       0       0       0       0       0       0       0       
      +0       0       0       0       0
  8362 ;;      Totals:         0       0       0       0       0       0       0       0       0       0       0       0       
      +0       0       0       0       0
  8363 ;;Total ram usage:        0 bytes
  8364 ;; Hardware stack levels used: 1
  8365 ;; This function calls:
  8366 ;;		Nothing
  8367 ;; This function is called by:
  8368 ;;		_InterruptManager
  8369 ;; This function uses a non-reentrant model
  8370 ;;
  8371                           
  8372                           	psect	text52
  8373  00374E                     __ptext52:
  8374                           	callstack 0
  8375  00374E                     _ADC_ISR:
  8376                           	callstack 23
  8377  00374E                     
  8378                           ;MCAL_Layer/ADC/hal_adc.c: 297:     (PIR1bits.ADIF = 0);
  8379  00374E  9C9E               	bcf	158,6,c	;volatile
  8380  003750  0012               	return		;funcret
  8381  003752                     __end_of_ADC_ISR:
  8382                           	callstack 0
  8383                           
  8384                           	psect	rparam
  8385  0000                     
  8386                           	psect	temp
  8387  00007D                     btemp:
  8388                           	callstack 0
  8389  00007D                     	ds	1
  8390  0000                     int$flags	set	btemp
  8391  0000                     wtemp8	set	btemp+1
  8392  0000                     ttemp5	set	btemp+1
  8393  0000                     ttemp6	set	btemp+4
  8394  0000                     ttemp7	set	btemp+8
  8395                           
  8396                           	psect	idloc
  8397                           
  8398                           ;Config register IDLOC0 @ 0x200000
  8399                           ;	unspecified, using default values
  8400  200000                     	org	2097152
  8401  200000  FF                 	db	255
  8402                           
  8403                           ;Config register IDLOC1 @ 0x200001
  8404                           ;	unspecified, using default values
  8405  200001                     	org	2097153
  8406  200001  FF                 	db	255
  8407                           
  8408                           ;Config register IDLOC2 @ 0x200002
  8409                           ;	unspecified, using default values
  8410  200002                     	org	2097154
  8411  200002  FF                 	db	255
  8412                           
  8413                           ;Config register IDLOC3 @ 0x200003
  8414                           ;	unspecified, using default values
  8415  200003                     	org	2097155
  8416  200003  FF                 	db	255
  8417                           
  8418                           ;Config register IDLOC4 @ 0x200004
  8419                           ;	unspecified, using default values
  8420  200004                     	org	2097156
  8421  200004  FF                 	db	255
  8422                           
  8423                           ;Config register IDLOC5 @ 0x200005
  8424                           ;	unspecified, using default values
  8425  200005                     	org	2097157
  8426  200005  FF                 	db	255
  8427                           
  8428                           ;Config register IDLOC6 @ 0x200006
  8429                           ;	unspecified, using default values
  8430  200006                     	org	2097158
  8431  200006  FF                 	db	255
  8432                           
  8433                           ;Config register IDLOC7 @ 0x200007
  8434                           ;	unspecified, using default values
  8435  200007                     	org	2097159
  8436  200007  FF                 	db	255
  8437                           
  8438                           	psect	config
  8439                           
  8440                           ; Padding undefined space
  8441  300000                     	org	3145728
  8442  300000  FF                 	db	255
  8443                           
  8444                           ;Config register CONFIG1H @ 0x300001
  8445                           ;	Oscillator Selection bits
  8446                           ;	OSC = HS, HS oscillator
  8447                           ;	Fail-Safe Clock Monitor Enable bit
  8448                           ;	FCMEN = OFF, Fail-Safe Clock Monitor disabled
  8449                           ;	Internal/External Oscillator Switchover bit
  8450                           ;	IESO = OFF, Oscillator Switchover mode disabled
  8451  300001                     	org	3145729
  8452  300001  02                 	db	2
  8453                           
  8454                           ;Config register CONFIG2L @ 0x300002
  8455                           ;	Power-up Timer Enable bit
  8456                           ;	PWRT = OFF, PWRT disabled
  8457                           ;	Brown-out Reset Enable bits
  8458                           ;	BOREN = OFF, Brown-out Reset disabled in hardware and software
  8459                           ;	Brown Out Reset Voltage bits
  8460                           ;	BORV = 1, 
  8461  300002                     	org	3145730
  8462  300002  09                 	db	9
  8463                           
  8464                           ;Config register CONFIG2H @ 0x300003
  8465                           ;	Watchdog Timer Enable bit
  8466                           ;	WDT = OFF, WDT disabled (control is placed on the SWDTEN bit)
  8467                           ;	Watchdog Timer Postscale Select bits
  8468                           ;	WDTPS = 512, 1:512
  8469  300003                     	org	3145731
  8470  300003  12                 	db	18
  8471                           
  8472                           ; Padding undefined space
  8473  300004                     	org	3145732
  8474  300004  FF                 	db	255
  8475                           
  8476                           ;Config register CONFIG3H @ 0x300005
  8477                           ;	CCP2 MUX bit
  8478                           ;	CCP2MX = PORTC, CCP2 input/output is multiplexed with RC1
  8479                           ;	PORTB A/D Enable bit
  8480                           ;	PBADEN = OFF, PORTB<4:0> pins are configured as digital I/O on Reset
  8481                           ;	Low-Power Timer1 Oscillator Enable bit
  8482                           ;	LPT1OSC = OFF, Timer1 configured for higher power operation
  8483                           ;	MCLR Pin Enable bit
  8484                           ;	MCLRE = ON, MCLR pin enabled; RE3 input pin disabled
  8485  300005                     	org	3145733
  8486  300005  81                 	db	129
  8487                           
  8488                           ;Config register CONFIG4L @ 0x300006
  8489                           ;	Stack Full/Underflow Reset Enable bit
  8490                           ;	STVREN = ON, Stack full/underflow will cause Reset
  8491                           ;	Single-Supply ICSP Enable bit
  8492                           ;	LVP = OFF, Single-Supply ICSP disabled
  8493                           ;	Extended Instruction Set Enable bit
  8494                           ;	XINST = OFF, Instruction set extension and Indexed Addressing mode disabled (Legacy mo
      +                          de)
  8495                           ;	Background Debugger Enable bit
  8496                           ;	DEBUG = 0x1, unprogrammed default
  8497  300006                     	org	3145734
  8498  300006  81                 	db	129
  8499                           
  8500                           ; Padding undefined space
  8501  300007                     	org	3145735
  8502  300007  FF                 	db	255
  8503                           
  8504                           ;Config register CONFIG5L @ 0x300008
  8505                           ;	Code Protection bit
  8506                           ;	CP0 = OFF, Block 0 (000800-003FFFh) not code-protected
  8507                           ;	Code Protection bit
  8508                           ;	CP1 = OFF, Block 1 (004000-007FFFh) not code-protected
  8509                           ;	Code Protection bit
  8510                           ;	CP2 = OFF, Block 2 (008000-00BFFFh) not code-protected
  8511                           ;	Code Protection bit
  8512                           ;	CP3 = OFF, Block 3 (00C000-00FFFFh) not code-protected
  8513  300008                     	org	3145736
  8514  300008  0F                 	db	15
  8515                           
  8516                           ;Config register CONFIG5H @ 0x300009
  8517                           ;	Boot Block Code Protection bit
  8518                           ;	CPB = OFF, Boot block (000000-0007FFh) not code-protected
  8519                           ;	Data EEPROM Code Protection bit
  8520                           ;	CPD = OFF, Data EEPROM not code-protected
  8521  300009                     	org	3145737
  8522  300009  C0                 	db	192
  8523                           
  8524                           ;Config register CONFIG6L @ 0x30000A
  8525                           ;	Write Protection bit
  8526                           ;	WRT0 = OFF, Block 0 (000800-003FFFh) not write-protected
  8527                           ;	Write Protection bit
  8528                           ;	WRT1 = OFF, Block 1 (004000-007FFFh) not write-protected
  8529                           ;	Write Protection bit
  8530                           ;	WRT2 = OFF, Block 2 (008000-00BFFFh) not write-protected
  8531                           ;	Write Protection bit
  8532                           ;	WRT3 = OFF, Block 3 (00C000-00FFFFh) not write-protected
  8533  30000A                     	org	3145738
  8534  30000A  0F                 	db	15
  8535                           
  8536                           ;Config register CONFIG6H @ 0x30000B
  8537                           ;	Configuration Register Write Protection bit
  8538                           ;	WRTC = OFF, Configuration registers (300000-3000FFh) not write-protected
  8539                           ;	Boot Block Write Protection bit
  8540                           ;	WRTB = OFF, Boot Block (000000-0007FFh) not write-protected
  8541                           ;	Data EEPROM Write Protection bit
  8542                           ;	WRTD = OFF, Data EEPROM not write-protected
  8543  30000B                     	org	3145739
  8544  30000B  E0                 	db	224
  8545                           
  8546                           ;Config register CONFIG7L @ 0x30000C
  8547                           ;	Table Read Protection bit
  8548                           ;	EBTR0 = OFF, Block 0 (000800-003FFFh) not protected from table reads executed in other
      +                           blocks
  8549                           ;	Table Read Protection bit
  8550                           ;	EBTR1 = OFF, Block 1 (004000-007FFFh) not protected from table reads executed in other
      +                           blocks
  8551                           ;	Table Read Protection bit
  8552                           ;	EBTR2 = OFF, Block 2 (008000-00BFFFh) not protected from table reads executed in other
      +                           blocks
  8553                           ;	Table Read Protection bit
  8554                           ;	EBTR3 = OFF, Block 3 (00C000-00FFFFh) not protected from table reads executed in other
      +                           blocks
  8555  30000C                     	org	3145740
  8556  30000C  0F                 	db	15
  8557                           
  8558                           ;Config register CONFIG7H @ 0x30000D
  8559                           ;	Boot Block Table Read Protection bit
  8560                           ;	EBTRB = OFF, Boot Block (000000-0007FFh) not protected from table reads executed in ot
      +                          her blocks
  8561  30000D                     	org	3145741
  8562  30000D  40                 	db	64
  8563                           tosu	equ	0xFFF
  8564                           tosh	equ	0xFFE
  8565                           tosl	equ	0xFFD
  8566                           stkptr	equ	0xFFC
  8567                           pclatu	equ	0xFFB
  8568                           pclath	equ	0xFFA
  8569                           pcl	equ	0xFF9
  8570                           tblptru	equ	0xFF8
  8571                           tblptrh	equ	0xFF7
  8572                           tblptrl	equ	0xFF6
  8573                           tablat	equ	0xFF5
  8574                           prodh	equ	0xFF4
  8575                           prodl	equ	0xFF3
  8576                           indf0	equ	0xFEF
  8577                           postinc0	equ	0xFEE
  8578                           postdec0	equ	0xFED
  8579                           preinc0	equ	0xFEC
  8580                           plusw0	equ	0xFEB
  8581                           fsr0h	equ	0xFEA
  8582                           fsr0l	equ	0xFE9
  8583                           wreg	equ	0xFE8
  8584                           indf1	equ	0xFE7
  8585                           postinc1	equ	0xFE6
  8586                           postdec1	equ	0xFE5
  8587                           preinc1	equ	0xFE4
  8588                           plusw1	equ	0xFE3
  8589                           fsr1h	equ	0xFE2
  8590                           fsr1l	equ	0xFE1
  8591                           bsr	equ	0xFE0
  8592                           indf2	equ	0xFDF
  8593                           postinc2	equ	0xFDE
  8594                           postdec2	equ	0xFDD
  8595                           preinc2	equ	0xFDC
  8596                           plusw2	equ	0xFDB
  8597                           fsr2h	equ	0xFDA
  8598                           fsr2l	equ	0xFD9
  8599                           status	equ	0xFD8

Data Sizes:
    Strings     108
    Constant    16
    Data        83
    BSS         71
    Persistent  1
    Stack       0

Auto Spaces:
    Space          Size  Autos    Used
    COMRAM          126     71     124
    BANK0           128      2     104
    BANK1           256      0       0
    BANK2           256      0       0
    BANK3           256      0       0
    BANK4           256      0       0
    BANK5           256      0       0
    BANK6           256      0       0
    BANK7           256      0       0
    BANK8           256      0       0
    BANK9           256      0       0
    BANK10          256      0       0
    BANK11          256      0       0
    BANK12          256      0       0
    BANK13          256      0       0
    BANK14          256      0       0
    BANK15          128      0       0

Pointer List with Targets:

    vfprintf$2	PTR PTR void  size(2) Largest target is 2
		 -> sprintf@ap(COMRAM[2]), 

    vfprintf$1	PTR const unsigned char  size(2) Largest target is 3
		 -> STR_3(CODE[3]), STR_2(CODE[3]), STR_1(CODE[3]), 

    vfprintf$0	PTR struct _IO_FILE size(2) Largest target is 11
		 -> sprintf@f(COMRAM[11]), 

    S4964$source	PTR const unsigned char  size(2) Largest target is 0

    f...source	PTR const unsigned char  size(2) Largest target is 0

    S4964$buffer	PTR unsigned char  size(2) Largest target is 0

    f...buffer	PTR unsigned char  size(2) Largest target is 0

    usart_1.EUSART_OverrunErrorHandler	PTR FTN()void  size(2) Largest target is 1
		 -> Absolute function(), 

    usart_1.EUSART_FramingErrorHandler	PTR FTN()void  size(2) Largest target is 1
		 -> Absolute function(), 

    usart_1.EUSART_RxDefaultInterruptHandler	PTR FTN()void  size(2) Largest target is 1
		 -> Absolute function(), 

    usart_1.EUSART_TxDefaultInterruptHandler	PTR FTN()void  size(2) Largest target is 1
		 -> Absolute function(), 

    EUSART_OverrunErrorHandler	PTR FTN()void  size(2) Largest target is 1
		 -> Absolute function(), 

    EUSART_FramingErrorHandler	PTR FTN()void  size(2) Largest target is 1
		 -> Absolute function(), 

    EUSART_RxInterruptHandler	PTR FTN()void  size(2) Largest target is 1
		 -> Absolute function(), 

    EUSART_ASYNC_RX_Init@_eusart.EUSART_OverrunErrorHandler	PTR FTN()void  size(2) Largest target is 1
		 -> Absolute function(), 

    EUSART_ASYNC_RX_Init@_eusart.EUSART_FramingErrorHandler	PTR FTN()void  size(2) Largest target is 1
		 -> Absolute function(), 

    EUSART_ASYNC_RX_Init@_eusart.EUSART_RxDefaultInterruptHandler	PTR FTN()void  size(2) Largest target is 1
		 -> Absolute function(), 

    EUSART_ASYNC_RX_Init@_eusart.EUSART_TxDefaultInterruptHandler	PTR FTN()void  size(2) Largest target is 1
		 -> Absolute function(), 

    EUSART_ASYNC_RX_Init@_eusart	PTR const struct . size(2) Largest target is 18
		 -> usart_1(BANK0[18]), 

    EUSART_TxInterruptHandler	PTR FTN()void  size(2) Largest target is 1
		 -> Absolute function(), 

    EUSART_ASYNC_TX_Init@_eusart.EUSART_OverrunErrorHandler	PTR FTN()void  size(2) Largest target is 1
		 -> Absolute function(), 

    EUSART_ASYNC_TX_Init@_eusart.EUSART_FramingErrorHandler	PTR FTN()void  size(2) Largest target is 1
		 -> Absolute function(), 

    EUSART_ASYNC_TX_Init@_eusart.EUSART_RxDefaultInterruptHandler	PTR FTN()void  size(2) Largest target is 1
		 -> Absolute function(), 

    EUSART_ASYNC_TX_Init@_eusart.EUSART_TxDefaultInterruptHandler	PTR FTN()void  size(2) Largest target is 1
		 -> Absolute function(), 

    EUSART_ASYNC_TX_Init@_eusart	PTR const struct . size(2) Largest target is 18
		 -> usart_1(BANK0[18]), 

    S3908$EUSART_OverrunErrorHandler	PTR FTN()void  size(2) Largest target is 1
		 -> Absolute function(), 

    EUSART_Baud_Rate_Calculation@_eusart.EUSART_OverrunErrorHandler	PTR FTN()void  size(2) Largest target is 1
		 -> Absolute function(), 

    S3908$EUSART_FramingErrorHandler	PTR FTN()void  size(2) Largest target is 1
		 -> Absolute function(), 

    EUSART_Baud_Rate_Calculation@_eusart.EUSART_FramingErrorHandler	PTR FTN()void  size(2) Largest target is 1
		 -> Absolute function(), 

    S3908$EUSART_RxDefaultInterruptHandler	PTR FTN()void  size(2) Largest target is 1
		 -> Absolute function(), 

    EUSART_Baud_Rate_Calculation@_eusart.EUSART_RxDefaultInterruptHandler	PTR FTN()void  size(2) Largest target is 1
		 -> Absolute function(), 

    S3908$EUSART_TxDefaultInterruptHandler	PTR FTN()void  size(2) Largest target is 1
		 -> Absolute function(), 

    EUSART_Baud_Rate_Calculation@_eusart.EUSART_TxDefaultInterruptHandler	PTR FTN()void  size(2) Largest target is 1
		 -> Absolute function(), 

    EUSART_Baud_Rate_Calculation@_eusart	PTR const struct . size(2) Largest target is 18
		 -> usart_1(BANK0[18]), 

    EUSART_ASYNC_WriteStringBlocking@_data	PTR unsigned char  size(2) Largest target is 4
		 -> usartSend@arrayTime(COMRAM[4]), 

    EUSART_ASYNC_Init@_eusart	PTR const struct . size(2) Largest target is 18
		 -> usart_1(BANK0[18]), 

    Timer3_Mode_Select@_timer.TMR3_InterruptHandler	PTR FTN()void  size(2) Largest target is 0

    TMR3_InterruptHandler	PTR FTN()void  size(2) Largest target is 1
		 -> Absolute function(), 

    S3714$TMR3_InterruptHandler	PTR FTN()void  size(2) Largest target is 0

    Timer3_Init@_timer.TMR3_InterruptHandler	PTR FTN()void  size(2) Largest target is 0

    TMR2_InterruptHandler	PTR FTN()void  size(2) Largest target is 1
		 -> Absolute function(), 

    S3585$TMR2_InterruptHandler	PTR FTN()void  size(2) Largest target is 0

    Timer2_Init@_timer.TMR2_InterruptHandler	PTR FTN()void  size(2) Largest target is 0

    Timer1_Mode_Select@_timer.TMR1_InterruptHandler	PTR FTN()void  size(2) Largest target is 0

    TMR1_InterruptHandler	PTR FTN()volatile void  size(2) Largest target is 1
		 -> Absolute function(), 

    S3395$TMR1_InterruptHandler	PTR FTN()void  size(2) Largest target is 0

    Timer1_Init@_timer.TMR1_InterruptHandler	PTR FTN()void  size(2) Largest target is 0

    Timer0_Register_Size_Config@_timer.TMR0_InterruptHandler	PTR FTN()void  size(2) Largest target is 0

    Timer0_Mode_Select@_timer.TMR0_InterruptHandler	PTR FTN()void  size(2) Largest target is 0

    Timer0_Prescaler_Config@_timer.TMR0_InterruptHandler	PTR FTN()void  size(2) Largest target is 0

    TMR0_InterruptHandler	PTR FTN()void  size(2) Largest target is 1
		 -> Absolute function(), 

    S3230$TMR0_InterruptHandler	PTR FTN()void  size(2) Largest target is 0

    Timer0_Init@_timer.TMR0_InterruptHandler	PTR FTN()void  size(2) Largest target is 0

    Interrupt_INTx_SetInterruptHandler@int_obj.EXT_InterruptHandler	PTR FTN()void  size(2) Largest target is 0

    Interrupt_INTx_Clear_Flag@int_obj.EXT_InterruptHandler	PTR FTN()void  size(2) Largest target is 0

    Interrupt_INTx_Pin_Init@int_obj.EXT_InterruptHandler	PTR FTN()void  size(2) Largest target is 0

    Interrupt_INTx_Edge_Init@int_obj.EXT_InterruptHandler	PTR FTN()void  size(2) Largest target is 0

    Interrupt_INTx_Disable@int_obj.EXT_InterruptHandler	PTR FTN()void  size(2) Largest target is 0

    S2356$EXT_InterruptHandler	PTR FTN()void  size(2) Largest target is 0

    Interrupt_INTx_Enable@int_obj.EXT_InterruptHandler	PTR FTN()void  size(2) Largest target is 0

    S2472$EXT_InterruptHandler_LOW	PTR FTN()void  size(2) Largest target is 0

    Interrupt_RBx_Init@int_obj.EXT_InterruptHandler_LOW	PTR FTN()void  size(2) Largest target is 0

    S2472$EXT_InterruptHandler_HIGH	PTR FTN()void  size(2) Largest target is 0

    Interrupt_RBx_Init@int_obj.EXT_InterruptHandler_HIGH	PTR FTN()void  size(2) Largest target is 0

    RB7_InterruptHandler_LOW	PTR FTN()void  size(2) Largest target is 1
		 -> Absolute function(), 

    RB7_InterruptHandler_HIGH	PTR FTN()void  size(2) Largest target is 1
		 -> Absolute function(), 

    RB6_InterruptHandler_LOW	PTR FTN()void  size(2) Largest target is 1
		 -> Absolute function(), 

    RB6_InterruptHandler_HIGH	PTR FTN()void  size(2) Largest target is 1
		 -> Absolute function(), 

    RB5_InterruptHandler_LOW	PTR FTN()void  size(2) Largest target is 1
		 -> Absolute function(), 

    RB5_InterruptHandler_HIGH	PTR FTN()void  size(2) Largest target is 1
		 -> Absolute function(), 

    RB4_InterruptHandler_LOW	PTR FTN()void  size(2) Largest target is 1
		 -> Absolute function(), 

    RB4_InterruptHandler_HIGH	PTR FTN()void  size(2) Largest target is 1
		 -> Absolute function(), 

    INT2_InterruptHandler	PTR FTN()void  size(2) Largest target is 1
		 -> Absolute function(), 

    INT1_InterruptHandler	PTR FTN()void  size(2) Largest target is 1
		 -> Absolute function(), 

    INT0_InterruptHandler	PTR FTN()void  size(2) Largest target is 1
		 -> Absolute function(), 

    I2C_Report_Receive_Overflow_InterruptHandle	PTR FTN()void  size(2) Largest target is 1
		 -> Absolute function(), 

    MSSP_I2C_Interrupt_Configurations@i2c_obj.I2C_Report_Receive_Overflow	PTR FTN()void  size(2) Largest target is 0

    MSSP_I2C_Interrupt_Configurations@i2c_obj.I2C_DefaultInterruptHandler	PTR FTN()void  size(2) Largest target is 0

    MSSP_I2C_Interrupt_Configurations@i2c_obj.I2C_Report_Write_Collision	PTR FTN()void  size(2) Largest target is 0

    I2C_Slave_Mode_Configurations@i2c_obj.I2C_Report_Receive_Overflow	PTR FTN()void  size(2) Largest target is 0

    I2C_Slave_Mode_Configurations@i2c_obj.I2C_DefaultInterruptHandler	PTR FTN()void  size(2) Largest target is 0

    I2C_Slave_Mode_Configurations@i2c_obj.I2C_Report_Write_Collision	PTR FTN()void  size(2) Largest target is 0

    I2C_Master_Mode_Clock_Configurations@i2c_obj.I2C_Report_Receive_Overflow	PTR FTN()void  size(2) Largest target is 0

    I2C_Master_Mode_Clock_Configurations@i2c_obj.I2C_DefaultInterruptHandler	PTR FTN()void  size(2) Largest target is 0

    I2C_Master_Mode_Clock_Configurations@i2c_obj.I2C_Report_Write_Collision	PTR FTN()void  size(2) Largest target is 0

    I2C_Report_Write_Collision_InterruptHandler	PTR FTN()void  size(2) Largest target is 1
		 -> Absolute function(), 

    I2C_DefaultInterruptHandle	PTR FTN()void  size(2) Largest target is 1
		 -> Absolute function(), 

    S1835$I2C_Report_Receive_Overflow	PTR FTN()void  size(2) Largest target is 0

    MSSP_I2C_Init@i2c_obj.I2C_Report_Receive_Overflow	PTR FTN()void  size(2) Largest target is 0

    S1835$I2C_DefaultInterruptHandler	PTR FTN()void  size(2) Largest target is 0

    MSSP_I2C_Init@i2c_obj.I2C_DefaultInterruptHandler	PTR FTN()void  size(2) Largest target is 0

    S1835$I2C_Report_Write_Collision	PTR FTN()void  size(2) Largest target is 0

    MSSP_I2C_Init@i2c_obj.I2C_Report_Write_Collision	PTR FTN()void  size(2) Largest target is 0

    gpio_pin_intialize@_pin_config	PTR const struct . size(2) Largest target is 8
		 -> keypad_1.keypad_row_pins(BANK0[4]), keypad_1(BANK0[8]), lcd_1.lcd_data(COMRAM[4]), lcd_1(COMRAM[6]), 
		 -> relay_initialize@pin_obj(COMRAM[1]), led_initialize@pin_obj(COMRAM[1]), 

    gpio_pin_read_logic@logic	PTR enum E2933 size(2) Largest target is 1
		 -> Ultrasonic_Calculate_Distance@EchoPinLogic(COMRAM[1]), keypad_get_value@column_logic(COMRAM[1]), button_read_state@Pin_Logic_Status(COMRAM[1]), 

    gpio_pin_read_logic@_pin_config	PTR const struct . size(2) Largest target is 8
		 -> keypad_1.keypad_columns_pins(BANK0[4]), keypad_1(BANK0[8]), 

    gpio_pin_write_logic@_pin_config	PTR const struct . size(2) Largest target is 8
		 -> keypad_1.keypad_row_pins(BANK0[4]), keypad_1(BANK0[8]), lcd_1.lcd_data(COMRAM[4]), lcd_1(COMRAM[6]), 
		 -> relay_turn_off@pin_obj(COMRAM[1]), relay_turn_on@pin_obj(COMRAM[1]), relay_initialize@pin_obj(COMRAM[1]), led_turn_off@pin_obj(COMRAM[1]), 
		 -> led_turn_on@pin_obj(COMRAM[1]), led_initialize@pin_obj(COMRAM[1]), 

    gpio_pin_direction_intialize@_pin_config	PTR const struct . size(2) Largest target is 8
		 -> keypad_1.keypad_columns_pins(BANK0[4]), keypad_1.keypad_row_pins(BANK0[4]), keypad_1(BANK0[8]), lcd_1.lcd_data(COMRAM[4]), 
		 -> lcd_1(COMRAM[6]), MSSP_SPI_Slave_Mode_GPIO_PIN_Configurations@SPI_SS(COMRAM[1]), MSSP_SPI_Slave_Mode_GPIO_PIN_Configurations@SPI_CLK(COMRAM[1]), MSSP_SPI_Slave_Mode_GPIO_PIN_Configurations@SPI_SDI(COMRAM[1]), 
		 -> MSSP_SPI_Slave_Mode_GPIO_PIN_Configurations@SPI_SDO(COMRAM[1]), MSSP_SPI_Msster_Mode_GPIO_PIN_Configurations@SPI_CLK(COMRAM[1]), MSSP_SPI_Msster_Mode_GPIO_PIN_Configurations@SPI_SDI(COMRAM[1]), MSSP_SPI_Msster_Mode_GPIO_PIN_Configurations@SPI_SDO(COMRAM[1]), 
		 -> relay_initialize@pin_obj(COMRAM[1]), led_initialize@pin_obj(COMRAM[1]), 

    port_registers	PTR volatile unsigned char [5] size(2) Largest target is 1
		 -> PORTE(BITBIGSFRlllll[1]), PORTD(BITBIGSFRlllll[1]), PORTC(BITBIGSFRlllll[1]), PORTB(BITBIGSFRlllll[1]), 
		 -> PORTA(BITBIGSFRlllll[1]), 

    lat_registers	PTR volatile unsigned char [5] size(2) Largest target is 1
		 -> LATE(BITBIGSFRllllh[1]), LATD(BITBIGSFRllllh[1]), LATC(BITBIGSFRllllh[1]), LATB(BITBIGSFRllllh[1]), 
		 -> LATA(BITBIGSFRlllll[1]), 

    tris_registers	PTR volatile unsigned char [5] size(2) Largest target is 1
		 -> TRISD(ABS[1]), TRISC(ABS[1]), TRISB(ABS[1]), TRISE(ABS[1]), 
		 -> TRISA(BITBIGSFRlllll[1]), 

    CCP_Compare_Mode_Config@_ccp_obj.CCP2_InterruptHandler	PTR FTN()void  size(2) Largest target is 0

    CCP_Compare_Mode_Config@_ccp_obj.CCP1_InterruptHandler	PTR FTN()void  size(2) Largest target is 0

    CCP_Capture_Mode_Config@_ccp_obj.CCP2_InterruptHandler	PTR FTN()void  size(2) Largest target is 0

    CCP_Capture_Mode_Config@_ccp_obj.CCP1_InterruptHandler	PTR FTN()void  size(2) Largest target is 0

    CCP_Mode_Timer_Select@_ccp_obj.CCP2_InterruptHandler	PTR FTN()void  size(2) Largest target is 0

    CCP_Mode_Timer_Select@_ccp_obj.CCP1_InterruptHandler	PTR FTN()void  size(2) Largest target is 0

    CCP_Interrupt_Config@_ccp_obj.CCP2_InterruptHandler	PTR FTN()void  size(2) Largest target is 0

    CCP_Interrupt_Config@_ccp_obj.CCP1_InterruptHandler	PTR FTN()void  size(2) Largest target is 0

    CCP_PWM_Mode_Config@_ccp_obj.CCP2_InterruptHandler	PTR FTN()void  size(2) Largest target is 0

    CCP_PWM_Mode_Config@_ccp_obj.CCP1_InterruptHandler	PTR FTN()void  size(2) Largest target is 0

    CCP2_InterruptHandler	PTR FTN()void  size(2) Largest target is 1
		 -> Absolute function(), 

    CCP1_InterruptHandler	PTR FTN()void  size(2) Largest target is 1
		 -> Absolute function(), 

    CCP_PWM_Stop@_ccp_obj.CCP2_InterruptHandler	PTR FTN()void  size(2) Largest target is 0

    CCP_PWM_Stop@_ccp_obj.CCP1_InterruptHandler	PTR FTN()void  size(2) Largest target is 0

    CCP_PWM_Start@_ccp_obj.CCP2_InterruptHandler	PTR FTN()void  size(2) Largest target is 0

    CCP_PWM_Start@_ccp_obj.CCP1_InterruptHandler	PTR FTN()void  size(2) Largest target is 0

    CCP_PWM_Set_Duty@_ccp_obj.CCP2_InterruptHandler	PTR FTN()void  size(2) Largest target is 0

    CCP_PWM_Set_Duty@_ccp_obj.CCP1_InterruptHandler	PTR FTN()void  size(2) Largest target is 0

    CCP_DeInit@_ccp_obj.CCP2_InterruptHandler	PTR FTN()void  size(2) Largest target is 0

    CCP_DeInit@_ccp_obj.CCP1_InterruptHandler	PTR FTN()void  size(2) Largest target is 0

    S1124$CCP2_InterruptHandler	PTR FTN()void  size(2) Largest target is 0

    CCP_Init@_ccp_obj.CCP2_InterruptHandler	PTR FTN()void  size(2) Largest target is 0

    S1124$CCP1_InterruptHandler	PTR FTN()void  size(2) Largest target is 0

    CCP_Init@_ccp_obj.CCP1_InterruptHandler	PTR FTN()void  size(2) Largest target is 0

    configure_voltage_reference@_adc.ADC_InterruptHandler	PTR FTN()void  size(2) Largest target is 0

    select_result_format@_adc.ADC_InterruptHandler	PTR FTN()void  size(2) Largest target is 0

    ADC_GetConversionResult@_adc.ADC_InterruptHandler	PTR FTN()void  size(2) Largest target is 0

    ADC_InterruptHandler	PTR FTN()void  size(2) Largest target is 1
		 -> Absolute function(), 

    S706$ADC_InterruptHandler	PTR FTN()void  size(2) Largest target is 0

    ADC_Init@_adc.ADC_InterruptHandler	PTR FTN()void  size(2) Largest target is 0

    keypad_get_value@value	PTR unsigned char  size(2) Largest target is 1
		 -> KeypadPressed(COMRAM[1]), 

    keypad_get_value@_keypad_obj	PTR const struct . size(2) Largest target is 8
		 -> keypad_1(BANK0[8]), 

    keypad_initialize@_keypad_obj	PTR const struct . size(2) Largest target is 8
		 -> keypad_1(BANK0[8]), 

    lcd_4bit_set_cursor@lcd	PTR const struct . size(2) Largest target is 6
		 -> lcd_1(COMRAM[6]), 

    lcd_4bit_send_enable_signal@lcd	PTR const struct . size(2) Largest target is 6
		 -> lcd_1(COMRAM[6]), 

    lcd_send_4bits@lcd	PTR const struct . size(2) Largest target is 6
		 -> lcd_1(COMRAM[6]), 

    sp__memset	PTR void  size(2) Largest target is 0

    lcd_4bit_send_string_pos@str	PTR unsigned char  size(2) Largest target is 28
		 -> STR_11(CODE[9]), STR_10(CODE[11]), STR_9(CODE[11]), STR_8(CODE[10]), 
		 -> STR_7(CODE[6]), STR_6(CODE[15]), STR_5(CODE[15]), STR_4(CODE[28]), 

    lcd_4bit_send_string_pos@lcd	PTR const struct . size(2) Largest target is 6
		 -> lcd_1(COMRAM[6]), 

    lcd_4bit_send_char_data_pos@lcd	PTR const struct . size(2) Largest target is 6
		 -> lcd_1(COMRAM[6]), 

    lcd_4bit_send_char_data@lcd	PTR const struct . size(2) Largest target is 6
		 -> lcd_1(COMRAM[6]), 

    lcd_4bit_send_command@lcd	PTR const struct . size(2) Largest target is 6
		 -> lcd_1(COMRAM[6]), 

    lcd_4bit_intialize@lcd	PTR const struct . size(2) Largest target is 6
		 -> lcd_1(COMRAM[6]), 


Critical Paths under _main in COMRAM

    _getSeconds->_lcd_4bit_send_string_pos
    _getMinutes->_lcd_4bit_send_string_pos
    _getHoures->_lcd_4bit_send_string_pos
    _lcd_4bit_send_char_data_pos->_lcd_4bit_set_cursor
    _keypad_get_value->_gpio_pin_read_logic
    _keypad_get_value->_gpio_pin_write_logic
    _application_intialize->_EUSART_ASYNC_Init
    _lcd_4bit_intialize->_lcd_4bit_send_command
    _keypad_initialize->_gpio_pin_intialize
    _gpio_pin_intialize->_gpio_pin_write_logic
    _EUSART_ASYNC_Init->_EUSART_Baud_Rate_Calculation
    _EUSART_Baud_Rate_Calculation->___fladd
    ___fldiv->___xxtofl
    ___fladd->___fldiv
    _WelcomingMessage->_lcd_4bit_send_string_pos
    _TimeValidation->_lcd_4bit_send_string_pos
    _usartSend->_EUSART_ASYNC_WriteStringBlocking
    _EUSART_ASYNC_WriteStringBlocking->_EUSART_ASYNC_WriteByteBlocking
    _lcd_4bit_send_string_pos->_lcd_4bit_set_cursor
    _lcd_4bit_set_cursor->_lcd_4bit_send_command
    _lcd_4bit_send_command->_lcd_send_4bits
    _lcd_4bit_send_char_data->_lcd_send_4bits
    _lcd_send_4bits->_gpio_pin_write_logic
    _lcd_4bit_send_enable_signal->_gpio_pin_write_logic

Critical Paths under _InterruptManager in COMRAM

    _InterruptManager->_RB4_ISR
    _InterruptManager->_RB5_ISR
    _InterruptManager->_RB6_ISR
    _InterruptManager->_RB7_ISR

Critical Paths under _main in BANK0

    None.

Critical Paths under _InterruptManager in BANK0

    None.

Critical Paths under _main in BANK1

    None.

Critical Paths under _InterruptManager in BANK1

    None.

Critical Paths under _main in BANK2

    None.

Critical Paths under _InterruptManager in BANK2

    None.

Critical Paths under _main in BANK3

    None.

Critical Paths under _InterruptManager in BANK3

    None.

Critical Paths under _main in BANK4

    None.

Critical Paths under _InterruptManager in BANK4

    None.

Critical Paths under _main in BANK5

    None.

Critical Paths under _InterruptManager in BANK5

    None.

Critical Paths under _main in BANK6

    None.

Critical Paths under _InterruptManager in BANK6

    None.

Critical Paths under _main in BANK7

    None.

Critical Paths under _InterruptManager in BANK7

    None.

Critical Paths under _main in BANK8

    None.

Critical Paths under _InterruptManager in BANK8

    None.

Critical Paths under _main in BANK9

    None.

Critical Paths under _InterruptManager in BANK9

    None.

Critical Paths under _main in BANK10

    None.

Critical Paths under _InterruptManager in BANK10

    None.

Critical Paths under _main in BANK11

    None.

Critical Paths under _InterruptManager in BANK11

    None.

Critical Paths under _main in BANK12

    None.

Critical Paths under _InterruptManager in BANK12

    None.

Critical Paths under _main in BANK13

    None.

Critical Paths under _InterruptManager in BANK13

    None.

Critical Paths under _main in BANK14

    None.

Critical Paths under _InterruptManager in BANK14

    None.

Critical Paths under _main in BANK15

    None.

Critical Paths under _InterruptManager in BANK15

    None.

Call Graph Tables:

 ---------------------------------------------------------------------------------
 (Depth) Function   	        Calls       Base Space   Used Autos Params    Refs
 ---------------------------------------------------------------------------------
 (0) _main                                                 2     2      0  611064
                                              0 BANK0      2     2      0
                     _TimeValidation
                   _WelcomingMessage
              _application_intialize
                           _calcTime
                          _getHoures
                         _getMinutes
                         _getSeconds
                   _keypad_get_value
        _lcd_4bit_send_char_data_pos
              _lcd_4bit_send_command
           _lcd_4bit_send_string_pos
 ---------------------------------------------------------------------------------
 (1) _getSeconds                                           2     2      0  110164
                                             33 COMRAM     2     2      0
                   _keypad_get_value
        _lcd_4bit_send_char_data_pos
              _lcd_4bit_send_command
           _lcd_4bit_send_string_pos
 ---------------------------------------------------------------------------------
 (1) _getMinutes                                           2     2      0  110164
                                             33 COMRAM     2     2      0
                   _keypad_get_value
        _lcd_4bit_send_char_data_pos
              _lcd_4bit_send_command
           _lcd_4bit_send_string_pos
 ---------------------------------------------------------------------------------
 (1) _getHoures                                            2     2      0  110164
                                             33 COMRAM     2     2      0
                   _keypad_get_value
        _lcd_4bit_send_char_data_pos
              _lcd_4bit_send_command
           _lcd_4bit_send_string_pos
 ---------------------------------------------------------------------------------
 (1) _lcd_4bit_send_char_data_pos                          6     1      5   41172
                                             26 COMRAM     6     1      5
            _lcd_4bit_send_char_data
                _lcd_4bit_set_cursor
 ---------------------------------------------------------------------------------
 (1) _keypad_get_value                                    11     7      4    7479
                                             11 COMRAM    11     7      4
                _gpio_pin_read_logic
               _gpio_pin_write_logic
 ---------------------------------------------------------------------------------
 (2) _gpio_pin_read_logic                                 10     6      4     764
                                              1 COMRAM    10     6      4
 ---------------------------------------------------------------------------------
 (1) _calcTime                                             0     0      0       0
 ---------------------------------------------------------------------------------
 (1) _application_intialize                                0     0      0   46974
                  _EUSART_ASYNC_Init
                  _keypad_initialize
                 _lcd_4bit_intialize
 ---------------------------------------------------------------------------------
 (2) _lcd_4bit_intialize                                   6     4      2   28575
                                             19 COMRAM     6     4      2
                 _gpio_pin_intialize
              _lcd_4bit_send_command
 ---------------------------------------------------------------------------------
 (2) _keypad_initialize                                    7     5      2    9187
                                             15 COMRAM     7     5      2
       _gpio_pin_direction_intialize
                 _gpio_pin_intialize
 ---------------------------------------------------------------------------------
 (3) _gpio_pin_intialize                                   4     2      2    7790
                                             11 COMRAM     4     2      2
       _gpio_pin_direction_intialize
               _gpio_pin_write_logic
 ---------------------------------------------------------------------------------
 (4) _gpio_pin_direction_intialize                         9     7      2    1091
                                              1 COMRAM     9     7      2
 ---------------------------------------------------------------------------------
 (2) _EUSART_ASYNC_Init                                    3     1      2    9212
                                             68 COMRAM     3     1      2
               _EUSART_ASYNC_RX_Init
               _EUSART_ASYNC_TX_Init
       _EUSART_Baud_Rate_Calculation
 ---------------------------------------------------------------------------------
 (3) _EUSART_Baud_Rate_Calculation                        12    10      2    8563
                                             56 COMRAM    12    10      2
                            ___fladd
                            ___fldiv
                            ___fltol
                           ___xxtofl
 ---------------------------------------------------------------------------------
 (4) ___xxtofl                                            14    10      4    1148
                                              1 COMRAM    14    10      4
 ---------------------------------------------------------------------------------
 (4) ___fltol                                             10     6      4     685
                                              1 COMRAM    10     6      4
 ---------------------------------------------------------------------------------
 (4) ___fldiv                                             25    17      8    3031
                                             15 COMRAM    25    17      8
                           ___xxtofl (ARG)
 ---------------------------------------------------------------------------------
 (4) ___fladd                                             16     8      8    3280
                                             40 COMRAM    16     8      8
                            ___fldiv (ARG)
 ---------------------------------------------------------------------------------
 (3) _EUSART_ASYNC_TX_Init                                 2     0      2     208
                                              1 COMRAM     2     0      2
 ---------------------------------------------------------------------------------
 (3) _EUSART_ASYNC_RX_Init                                 2     0      2     252
                                              1 COMRAM     2     0      2
 ---------------------------------------------------------------------------------
 (1) _WelcomingMessage                                     2     2      0   61513
                                             33 COMRAM     2     2      0
              _lcd_4bit_send_command
           _lcd_4bit_send_string_pos
 ---------------------------------------------------------------------------------
 (1) _TimeValidation                                       2     2      0   61921
                                             33 COMRAM     2     2      0
              _lcd_4bit_send_command
           _lcd_4bit_send_string_pos
                          _usartSend
 ---------------------------------------------------------------------------------
 (2) _usartSend                                            4     4      0     408
                                              9 COMRAM     4     4      0
   _EUSART_ASYNC_WriteStringBlocking
 ---------------------------------------------------------------------------------
 (3) _EUSART_ASYNC_WriteStringBlocking                     7     3      4     312
                                              2 COMRAM     7     3      4
     _EUSART_ASYNC_WriteByteBlocking
 ---------------------------------------------------------------------------------
 (4) _EUSART_ASYNC_WriteByteBlocking                       2     2      0      45
                                              1 COMRAM     1     1      0
 ---------------------------------------------------------------------------------
 (1) _lcd_4bit_send_string_pos                             7     1      6   41195
                                             26 COMRAM     7     1      6
            _lcd_4bit_send_char_data
                _lcd_4bit_set_cursor
 ---------------------------------------------------------------------------------
 (2) _lcd_4bit_set_cursor                                  7     3      4   21000
                                             19 COMRAM     7     3      4
              _lcd_4bit_send_command
 ---------------------------------------------------------------------------------
 (3) _lcd_4bit_send_command                                4     1      3   20318
                                             15 COMRAM     4     1      3
               _gpio_pin_write_logic
        _lcd_4bit_send_enable_signal
                     _lcd_send_4bits
 ---------------------------------------------------------------------------------
 (2) _lcd_4bit_send_char_data                              4     1      3   17582
                                             15 COMRAM     4     1      3
               _gpio_pin_write_logic
        _lcd_4bit_send_enable_signal
                     _lcd_send_4bits
 ---------------------------------------------------------------------------------
 (4) _lcd_send_4bits                                       4     1      3    6006
                                             11 COMRAM     4     1      3
               _gpio_pin_write_logic
 ---------------------------------------------------------------------------------
 (4) _lcd_4bit_send_enable_signal                          3     1      2    5568
                                             11 COMRAM     3     1      2
               _gpio_pin_write_logic
 ---------------------------------------------------------------------------------
 (5) _gpio_pin_write_logic                                10     7      3    5195
                                              1 COMRAM    10     7      3
 ---------------------------------------------------------------------------------
 Estimated maximum stack depth 5
 ---------------------------------------------------------------------------------
 (Depth) Function   	        Calls       Base Space   Used Autos Params    Refs
 ---------------------------------------------------------------------------------
 (7) _InterruptManager                                     0     0      0     176
                            _ADC_ISR
                           _CCP1_ISR
                           _CCP2_ISR
                      _EUSART_RX_ISR
                      _EUSART_TX_ISR
                           _INT0_ISR
                           _INT1_ISR
                           _INT2_ISR
                    _MSSP_I2C_BC_ISR
                       _MSSP_I2C_ISR
                       _MSSP_SPI_ISR
                            _RB4_ISR
                            _RB5_ISR
                            _RB6_ISR
                            _RB7_ISR
                           _TMR0_ISR
                           _TMR1_ISR
                           _TMR2_ISR
                           _TMR3_ISR
 ---------------------------------------------------------------------------------
 (8) _TMR3_ISR                                             0     0      0       0
 ---------------------------------------------------------------------------------
 (8) _TMR2_ISR                                             0     0      0       0
 ---------------------------------------------------------------------------------
 (8) _TMR1_ISR                                             0     0      0       0
 ---------------------------------------------------------------------------------
 (8) _TMR0_ISR                                             0     0      0       0
 ---------------------------------------------------------------------------------
 (8) _RB7_ISR                                              1     1      0      44
                                              0 COMRAM     1     1      0
 ---------------------------------------------------------------------------------
 (8) _RB6_ISR                                              1     1      0      44
                                              0 COMRAM     1     1      0
 ---------------------------------------------------------------------------------
 (8) _RB5_ISR                                              1     1      0      44
                                              0 COMRAM     1     1      0
 ---------------------------------------------------------------------------------
 (8) _RB4_ISR                                              1     1      0      44
                                              0 COMRAM     1     1      0
 ---------------------------------------------------------------------------------
 (8) _MSSP_SPI_ISR                                         0     0      0       0
 ---------------------------------------------------------------------------------
 (8) _MSSP_I2C_ISR                                         0     0      0       0
 ---------------------------------------------------------------------------------
 (8) _MSSP_I2C_BC_ISR                                      0     0      0       0
 ---------------------------------------------------------------------------------
 (8) _INT2_ISR                                             0     0      0       0
 ---------------------------------------------------------------------------------
 (8) _INT1_ISR                                             0     0      0       0
 ---------------------------------------------------------------------------------
 (8) _INT0_ISR                                             0     0      0       0
 ---------------------------------------------------------------------------------
 (8) _EUSART_TX_ISR                                        0     0      0       0
 ---------------------------------------------------------------------------------
 (8) _EUSART_RX_ISR                                        0     0      0       0
 ---------------------------------------------------------------------------------
 (8) _CCP2_ISR                                             0     0      0       0
 ---------------------------------------------------------------------------------
 (8) _CCP1_ISR                                             0     0      0       0
 ---------------------------------------------------------------------------------
 (8) _ADC_ISR                                              0     0      0       0
 ---------------------------------------------------------------------------------
 Estimated maximum stack depth 8
 ---------------------------------------------------------------------------------

 Call Graph Graphs:

 _main (ROOT)
   _TimeValidation
     _lcd_4bit_send_command
       _gpio_pin_write_logic
       _lcd_4bit_send_enable_signal
         _gpio_pin_write_logic
       _lcd_send_4bits
         _gpio_pin_write_logic
     _lcd_4bit_send_string_pos
       _lcd_4bit_send_char_data
         _gpio_pin_write_logic
         _lcd_4bit_send_enable_signal
         _lcd_send_4bits
       _lcd_4bit_set_cursor
         _lcd_4bit_send_command
     _usartSend
       _EUSART_ASYNC_WriteStringBlocking
         _EUSART_ASYNC_WriteByteBlocking
   _WelcomingMessage
     _lcd_4bit_send_command
     _lcd_4bit_send_string_pos
   _application_intialize
     _EUSART_ASYNC_Init
       _EUSART_ASYNC_RX_Init
       _EUSART_ASYNC_TX_Init
       _EUSART_Baud_Rate_Calculation
         ___fladd
           ___fldiv (ARG)
             ___xxtofl (ARG)
         ___fldiv
         ___fltol
         ___xxtofl
     _keypad_initialize
       _gpio_pin_direction_intialize
       _gpio_pin_intialize
         _gpio_pin_direction_intialize
         _gpio_pin_write_logic
     _lcd_4bit_intialize
       _gpio_pin_intialize
       _lcd_4bit_send_command
   _calcTime
   _getHoures
     _keypad_get_value
       _gpio_pin_read_logic
       _gpio_pin_write_logic
     _lcd_4bit_send_char_data_pos
       _lcd_4bit_send_char_data
       _lcd_4bit_set_cursor
     _lcd_4bit_send_command
     _lcd_4bit_send_string_pos
   _getMinutes
     _keypad_get_value
     _lcd_4bit_send_char_data_pos
     _lcd_4bit_send_command
     _lcd_4bit_send_string_pos
   _getSeconds
     _keypad_get_value
     _lcd_4bit_send_char_data_pos
     _lcd_4bit_send_command
     _lcd_4bit_send_string_pos
   _keypad_get_value
   _lcd_4bit_send_char_data_pos
   _lcd_4bit_send_command
   _lcd_4bit_send_string_pos

 _InterruptManager (ROOT)
   _ADC_ISR
   _CCP1_ISR
   _CCP2_ISR
   _EUSART_RX_ISR
   _EUSART_TX_ISR
   _INT0_ISR
   _INT1_ISR
   _INT2_ISR
   _MSSP_I2C_BC_ISR
   _MSSP_I2C_ISR
   _MSSP_SPI_ISR
   _RB4_ISR
   _RB5_ISR
   _RB6_ISR
   _RB7_ISR
   _TMR0_ISR
   _TMR1_ISR
   _TMR2_ISR
   _TMR3_ISR

 Address spaces:
Name               Size   Autos  Total    Cost      Usage
BIGRAM             F7F      0       0      49        0.0%
EEDATA             400      0       0       0        0.0%
BITBANK14          100      0       0      33        0.0%
BANK14             100      0       0      34        0.0%
BITBANK13          100      0       0      31        0.0%
BANK13             100      0       0      32        0.0%
BITBANK12          100      0       0      29        0.0%
BANK12             100      0       0      30        0.0%
BITBANK11          100      0       0      27        0.0%
BANK11             100      0       0      28        0.0%
BITBANK10          100      0       0      25        0.0%
BANK10             100      0       0      26        0.0%
BITBANK9           100      0       0      23        0.0%
BANK9              100      0       0      24        0.0%
BITBANK8           100      0       0      21        0.0%
BANK8              100      0       0      22        0.0%
BITBANK7           100      0       0      19        0.0%
BANK7              100      0       0      20        0.0%
BITBANK6           100      0       0      17        0.0%
BANK6              100      0       0      18        0.0%
BITBANK5           100      0       0      15        0.0%
BANK5              100      0       0      16        0.0%
BITBANK4           100      0       0      13        0.0%
BANK4              100      0       0      14        0.0%
BITBANK3           100      0       0      10        0.0%
BANK3              100      0       0      11        0.0%
BITBANK2           100      0       0       8        0.0%
BANK2              100      0       0       9        0.0%
BITBANK1           100      0       0       6        0.0%
BANK1              100      0       0       7        0.0%
BITBANK15           80      0       0      35        0.0%
BANK15              80      0       0      36        0.0%
BITBANK0            80      0       0       4        0.0%
BANK0               80      2      68       5       81.2%
BITCOMRAM           7E      0       0       0        0.0%
COMRAM              7E     47      7C       1       98.4%
BITBIGSFRhlhhlh     18      0       0      38        0.0%
BITBIGSFRhh          D      0       0      37        0.0%
BITBIGSFRlllhh       6      0       0      46        0.0%
BITBIGSFRhlhhll      5      0       0      39        0.0%
BITBIGSFRllhllh      4      0       0      43        0.0%
BITBIGSFRllllh       4      0       0      47        0.0%
BITBIGSFRllhllh      4      0       0      44        0.0%
BITBIGSFRlllll       4      0       0      48        0.0%
BITBIGSFRllhllh      1      0       0      42        0.0%
BITBIGSFRllhlh       1      0       0      41        0.0%
BITBIGSFRllhh        1      0       0      40        0.0%
BITBIGSFRllhlll      1      0       0      45        0.0%
BIGSFR               0      0       0     200        0.0%
BITSFR               0      0       0     200        0.0%
SFR                  0      0       0     200        0.0%
STACK                0      0       0       2        0.0%
NULL                 0      0       0       0        0.0%
ABS                  0      0      E4      12        0.0%
DATA                 0      0      E4       3        0.0%
CODE                 0      0       0       0        0.0%


Microchip Technology PIC18 Macro Assembler V2.36 build 20220127204148 
Symbol Table                                                                                   Sat Feb 04 09:52:01 2023

                               ??_InterruptManager 0002                                       ___fldiv@aexp 0028  
                                     ___fldiv@bexp 0027                                       ___fldiv@sign 0020  
                                  ?_lcd_send_4bits 000C                                        _SSPSTATbits 000FC7  
                                               l74 32AA                                                 l84 3578  
                                               l69 2832                                                 l79 331C  
                                              l100 3238                                                l202 3140  
                                              l261 2956                                                l247 31C0  
                                              l176 33F0                                                l179 35EC  
                                              l714 24B2                                                l740 2F38  
                                              l733 270A                                                l754 3388  
                                              _PR2 000FCB                               keypad_initialize@ret 0014  
                        _RB5_InterruptHandler_HIGH 00DE                                                _min 0068  
                                  __end_of_ADC_ISR 3752                                                _sec 0067  
                                              _ret 007C                __end_of_lcd_4bit_send_enable_signal 35EE  
                      _lcd_4bit_send_enable_signal 35B8                                led_initialize@F3013 0066  
                                              prod 000FF3                              relay_initialize@F3007 0062  
                                              wreg 000FE8                        lcd_send_4bits@_data_command 000E  
                                  __end_of_RB4_ISR 36EC                                    __end_of_RB5_ISR 36D2  
                                  __end_of_RB6_ISR 36B8                                    __end_of_RB7_ISR 369E  
                                     ___fltol@exp1 000B                                               l2107 2DA4  
                                             l1601 346E                                               l2403 2060  
                                             l1603 34A0                                               l2340 16FE  
                                             l2405 20D8                                               l2406 20C6  
                                             l1625 366C                                               l1801 3532  
                                             l1634 34EA                                               l2338 174A  
                                             l1627 367A                                               l2355 1864  
                                             l2347 1A1A                                               l2339 1738  
                                             l1628 3682                                               l2364 1934  
                                             l1804 3646                                               l2365 1922  
                                             l1661 155A                                               l1653 1092  
                                             l1670 2FEC                                               l1807 361A  
                                             l1655 1146                                               l6000 17C6  
                                             l2392 21BA                                               l2472 22AA  
                                             l1656 11FA                                               l2465 2212  
                                             l1657 12AE                                               l1674 2FEC  
                                             l6010 1832                                               l6002 17C8  
                                             l2394 201A                                               l1658 1362  
                                             l1770 3668                                               l1683 2E80  
                                             l1659 1414                                               l6020 188A  
                                             l6012 1834                                               l6004 17D2  
                                             l6100 1E78                                               l2468 236E  
                                             l2397 1FDE                                               l6030 18B8  
                                             l6014 1844                                               l6006 17D8  
                                             l6110 1EA4                                               l6102 1E88  
                                             l1687 2E80                                               l2479 2306  
                                             l1791 2B86                                               l6032 18C6  
                                             l6024 189E                                               l6040 18E4  
                                             l6008 17FE                                               l6016 1854  
                                             l6200 214A                                               l6112 1EB4  
                                             l6120 1EDE                                               l6104 1E8E  
                                             l1784 2C9E                                               l1777 3098  
                                             l6034 18CE                                               l6026 18A8  
                                             l6018 187A                                               l6042 18F2  
                                             l6210 21A8                                               l6202 2160  
                                             l6130 1F20                                               l6122 1EEE  
                                             l6114 1EC4                                               l6106 1E94  
                                             l6052 1944                                               l6060 199A  
                                             l6044 18F6                                               l6036 18D2  
                                             l6028 18B6                                               l6212 21AE  
                                             l6204 217A                                               l6124 1F04  
                                             l6116 1ED4                                               l6108 1EA2  
                                             l6300 231A                                               l6070 19EC  
                                             l6062 19AA                                               l6054 1950  
                                             l6046 1904                                               l6038 18E2  
                                             l6214 21B0                                               l6206 2196  
                                             l6150 1FA2                                               l6142 1F58  
                                             l6126 1F14                                               l6134 1F34  
                                             l6118 1ED6                                               l6230 2CF4  
                                             l6222 2CA0                                               l6302 233E  
                                             l1798 2A6E                                               l6080 1A0A  
                                             l6072 19F2                                               l6064 19BA  
                                             l6056 195E                                               l6048 191A  
                                             l6208 219A                                               l6160 1FE8  
                                             l6152 1FAA                                               l6144 1F72  
                                             l6136 1F44                                               l6128 1F1C  
                                             l6232 2CF6                                               l6224 2CB6  
                                             l6304 234E                                               l6400 146A  
                                             l6320 335A                                               l6312 331E  
                                             l6410 2F3A                                               l6074 19F4  
                                             l6066 19DA                                               l6058 1998  
                                             l6170 2040                                               l6162 2006  
                                             l6154 1FBA                                               l6146 1F82  
                                             l6138 1F44                                               l6090 1E3E  
                                             l6234 2D06                                               l6306 235C  
                                             l6402 14C6                                               l6322 3386  
                                             l6314 331E                                               l6330 2E98  
                                             l6420 2FAA                                               l6412 2F54  
                                             l6076 19FA                                               l6068 19DE  
                                             l6180 207E                                               l6172 2046  
                                             l6164 2008                                               l6156 1FCE  
                                             l6148 1F92                                               l6092 1E4E  
                                             l6084 1E22                                               l6260 2D84  
                                             l6244 2D30                                               l6236 2D0A  
                                             l6228 2CCA                                               l6308 235E  
                                             l6404 151C                                               l6316 3330  
                                             l6500 280E                                               l6332 2EAA  
                                             l6350 331A                                               l6342 32AC  
                                             l6430 2DA6                                               l6422 2FAC  
                                             l6414 2F56                                               l6078 1A08  
                                             l6190 20E8                                               l6182 2082  
                                             l6174 2050                                               l6166 2018  
                                             l6158 1FDC                                               l6094 1E5E  
                                             l6086 1E2E                                               l6262 2D94  
                                             l6254 2D58                                               l6246 2D3A  
                                             l6238 2D18                                               l6270 21DC  
                                             l6318 3352                                               l6502 281E  
                                             l6334 2ECC                                               l6326 2E82  
                                             l6510 3534                                               l5800 2682  
                                             l6344 32AC                                               l6360 30BC  
                                             l6520 31C2                                               l6440 2E3E  
                                             l6432 2DC0                                               l6424 2FC6  
                                             l6416 2F84                                               l6192 20F4  
                                             l6184 2090                                               l6176 205E  
                                             l6168 202A                                               l6096 1E6E  
                                             l6088 1E3C                                               l6256 2D64  
                                             l6248 2D44                                               l6280 2254  
                                             l6272 2222                                               l6600 318E  
                                             l6504 2830                                               l6336 2ED4  
                                             l6328 2E86                                               l6512 3546  
                                             l6346 32BE                                               l6362 30D4  
                                             l6354 309A                                               l6530 3214  
                                             l6522 31C2                                               l6450 34A2  
                                             l6442 2E40                                               l6434 2DC2  
                                             l6426 2FCC                                               l6418 2F90  
                                             l6194 2102                                               l6186 20BE  
                                             l6178 2070                                               l6098 1E70  
                                             l6258 2D74                                               l6290 22DC  
                                             l6282 2260                                               l6274 2238  
                                             l6266 21BE                                               l6602 31AC  
                                             l6338 2F36                                               l6610 2834  
                                             l6514 354E                                               l5804 26DE  
                                             l5820 33B8                                               l6348 32C6  
                                             l6364 30EC                                               l6356 309E  
                                             l6532 3218                                               l6524 31D4  
                                             l6452 34BA                                               l6444 2E5A  
                                             l6436 2E18                                               l6428 2FE6  
                                             l5900 15C2                                               l6196 212C  
                                             l6292 22E8                                               l6284 2292  
                                             l6268 21CE                                               l6380 10EA  
                                             l6604 31AE                                               l6612 2844  
                                             l6516 3576                                               l6508 3534  
                                             l5806 2708                                               l5830 35CC  
                                             l5822 33D2                                               l5814 338A  
                                             l6358 30A4                                               l6366 3104  
                                             l6534 3236                                               l6526 31DC  
                                             l6454 34CE                                               l6446 2E60  
                                             l6438 2E24                                               l5910 15F0  
                                             l5902 15C8                                               l6198 2130  
                                             l6294 22F6                                               l6286 2294  
                                             l6278 224C                                               l6390 12B4  
                                             l6382 114C                                               l6606 31BE  
                                             l6470 274A                                               l6462 270C  
                                             l6630 2878                                               l6614 2856  
                                             l8230 24DA                                               l5832 35D4  
                                             l5816 338A                                               l6368 313E  
                                             l6528 31F6                                               l6456 34D2  
                                             l6448 2E7A                                               l5920 1624  
                                             l5912 15F2                                               l5904 15DA  
                                             l6296 2314                                               l6288 22A0  
                                             l6392 1306                                               l6384 119E  
                                             l6376 107E                                               l5840 2374  
                                             l6480 276C                                               l6464 2710  
                                             l6640 28C2                                               l6632 288C  
                                             l6624 2874                                               l6616 2868  
                                             l8240 2548                                               l8232 24F0  
                                             l8224 24B4                                               l5834 35EA  
                                             l5826 35B8                                               l5818 33A0  
                                             l6458 34E8                                               l5930 1660  
                                             l5914 1602                                               l5922 162C  
                                             l5906 15DC                                               l6298 2316  
                                             l6394 1366                                               l6386 1200  
                                             l6378 1098                                               l5842 2386  
                                             l6490 27BE                                               l6482 277C  
                                             l6466 2722                                               l6650 28FC  
                                             l6634 288E                                               l6618 2870  
                                             l8242 255A                                               l8250 256E  
                                             l8234 2502                                               l8226 24B8  
                                             l5828 35B8                                               l5940 1674  
                                             l5932 1664                                               l5924 163C  
                                             l5916 1612                                               l5908 15E2  
                                             l6396 13B8                                               l6388 1252  
                                             l5852 246E                                               l5844 23A8  
                                             l6580 315C                                               l6492 27CE  
                                             l6484 278A                                               l6476 274E  
                                             l6468 272A                                               l6652 2930  
                                             l6636 289E                                               l6660 2954  
                                             l6900 2AF8                                               l8260 25CC  
                                             l8252 258C                                               l8244 255E  
                                             l8236 251C                                               l8228 24BC  
                                             l5790 25E0                                               l5870 32A8  
                                             l5862 323A                                               l8350 3118  
                                             l5950 1688                                               l5942 1678  
                                             l5934 1668                                               l5926 164E  
                                             l5918 1622                                               l6398 1418  
                                             l6670 3474                                               l5846 23B0  
                                             l5854 24B0                                               l5838 2370  
                                             l6590 3178                                               l6582 3164  
                                             l6494 27DE                                               l6486 279A  
                                             l6478 276A                                               l6654 2932  
                                             l6646 28C6                                               l6638 28B2  
                                             l6910 2B68                                               l6902 2B0E  
                                             l8262 25D0                                               l8254 25A6  
                                             l8246 2562                                               l8238 2536  
                                             l8352 26F2                                               l5792 25E4  
                                             l5864 323A                                               l6680 35EE  
                                             l5952 168C                                               l5944 167C  
                                             l5936 166C                                               l5928 165C  
                                             l5960 169C                                               l6672 3498  
                                             l6664 3454                                               l5848 2412  
                                             l6592 317A                                               l6576 3142  
                                             l6496 27EE                                               l6488 27B8  
                                             l6656 2942                                               l6648 28EC  
                                             l6912 2B70                                               l6904 2B26  
                                             l6920 297A                                               l8264 25D4  
                                             l8256 25B8                                               l8248 2566  
                                             l5794 25F6                                               l5866 324C  
                                             l5874 366C                                               l6682 3600  
                                             l6850 3520                                               l5970 170C  
                                             l5962 16A0                                               l5954 1690  
                                             l5946 1680                                               l5938 1670  
                                             l5890 1588                                               l5882 155C  
                                             l6674 349A                                               l6666 3454  
                                             l8346 249A                                               l6594 318A  
                                             l6578 314A                                               l6498 27FE  
                                             l6842 361C                                               l6658 2944  
                                             l6914 2B74                                               l6906 2B38  
                                             l6930 29DC                                               l6922 2990  
                                             l8258 25C8                                               l5796 2618  
                                             l5868 3254                                               l5876 367C  
                                             l6684 3604                                               l5980 1736  
                                             l5972 1718                                               l5964 16CA  
                                             l5956 1694                                               l5948 1684  
                                             l5892 1598                                               l5884 1568  
                                             l8348 14E6                                               l6676 349E  
                                             l6668 3466                                               l6588 3168  
                                             l6844 3638                                               l6860 2BD8  
                                             l6852 2B88                                               l6908 2B52  
                                             l6940 2A3A                                               l6932 29E0  
                                             l6924 29A8                                               l6916 2958  
                                             l5798 2620                                               l5878 3680  
                                             l6950 2FEE                                               l6846 34EC  
                                             l5990 178C                                               l5982 1758  
                                             l5974 171C                                               l5966 16E6  
                                             l5958 1698                                               l5894 15A8  
                                             l5886 1576                                               l6870 2C26  
                                             l6862 2BEA                                               l6854 2B8C  
                                             l6942 2A50                                               l6934 29F6  
                                             l6926 29BA                                               l6918 295C  
                                             l6960 3058                                               l6952 2FFE  
                                             l6848 350A                                               l5992 179A  
                                             l5984 1768                                               l5976 172A  
                                             l5968 16F6                                               l5896 15AA  
                                             l5888 1578                                               l6880 2C88  
                                             l6872 2C3E                                               l6864 2C04  
                                             l6856 2BAA                                               l6944 2A58  
                                             l6936 2A0E                                               l6928 29D4  
                                             l6962 306E                                               l6954 300E  
                                             l5994 17A8                                               l5978 172C  
                                             l5898 15B2                                               l6882 2C8C  
                                             l6874 2C50                                               l6866 2C0C  
                                             l6858 2BC0                                               l6890 2AA8  
                                             l6946 2A5C                                               l6938 2A20  
                                             l6964 3072                                               l6956 301E  
                                             l5996 17B4                                               l5988 177C  
                                             l6948 3648                                               l6876 2C6A  
                                             l6868 2C10                                               l6892 2AC0  
                                             l6884 2A70                                               l6958 3040  
                                             l5998 17B8                                               l6878 2C80  
                                             l6894 2AD2                                               l6886 2A74  
                                             l6896 2AEC                                               l6888 2A92  
                                             l6898 2AF4                                               STR_1 107A  
                                             STR_4 1011                                               STR_5 102D  
                                             STR_6 103C                                               STR_7 1074  
                                             STR_8 1061                                               STR_9 1056  
                                             _LATA 000F89                                               _LATB 000F8A  
                                             _LATC 000F8B                                               _LATD 000F8C  
                                             _LATE 000F8D                                               u5000 214A  
                                             u5001 2146                                               u5010 217A  
                                             u5011 2176                                               u4300 2618  
                                             u5020 21A8                                               u5100 21CE  
                                             u4301 2614                                               u5021 21A4  
                                             u5101 21CA                                               u5030 2CB6  
                                             u5110 21DC                                               u5031 2CB2  
                                             u5111 21D8                                               u4400 367A  
                                             u5040 2CEA                                               u5120 2238  
                                             u5200 3330                                               u4401 3676  
                                             u5121 2234                                               u5201 332C  
                                             u4314 2640                                               u4410 1576  
                                             u5050 2D18                                               u5130 228E  
                                             u4330 2386                                               u5210 3352  
                                             u4315 263C                                               u4411 1572  
                                             u5051 2D14                                               u5131 228A  
                                             u4331 2382                                               u5211 334E  
                                             u4324 26A2                                               u5300 2FC6  
                                             u4500 16CA                                               u4420 1588  
                                             u5060 2D2C                                               u5140 22D8  
                                             u4340 23A8                                               u5220 2E98  
                                             u4325 269E                                               u5301 2FC2  
                                             u4501 16C6                                               u4421 1584  
                                             u5061 2D28                                               u5045 2CE0  
                                             u5141 22D4                                               u4341 23A4  
                                             u5221 2E94                                               u5310 2FE6  
                                             u4510 16E2                                               u4430 1598  
                                             u5070 2D54                                               u5150 22F6  
                                             u5230 2EAA                                               u5311 2FE2  
                                             u4511 16DC                                               u4431 1594  
                                             u5071 2D50                                               u5151 22F2  
                                             u5231 2EA6                                               u5320 2DC0  
                                             u4600 17C6                                               u4520 16E4  
                                             u4440 15DA                                               u5080 2D74  
                                             u5160 2306                                               u5240 2ECC  
                                             u5400 3546                                               u5321 2DBC  
                                             u4601 17C2                                               u4441 15D6  
                                             u5081 2D70                                               u5161 2302  
                                             u5241 2EC8                                               u5401 3542  
                                             u4290 25F6                                               u5410 31D4  
                                             u5330 2E18                                               u4610 17FE  
                                             u4530 170C                                               u4450 15F0  
                                             u5090 2D84                                               u5170 2314  
                                             u4370 2486                                               u4354 23D0  
                                             u4291 25F2                                               u5411 31D0  
                                             u5331 2E14                                               u4611 17FA  
                                             u4531 1708                                               u4451 15EC  
                                             u5091 2D80                                               u5171 2310  
                                             u4371 2480                                               u4355 23CC  
                                             u5260 32BE                                               u5420 3236  
                                             u5340 2E3E                                               u4700 191A  
                                             u4620 1844                                               u4540 172A  
                                             u4460 1602                                               u5180 234E  
                                             u4380 2488                                               u4364 2432  
                                             u5500 2868                                               u5261 32BA  
                                             u5421 3232                                               u5341 2E3A  
                                             u4701 1916                                               u4621 1840  
                                             u4541 1726                                               u4461 15FE  
                                             u5181 234A                                               u4365 242E  
                                             u5501 2864                                               u4390 324C  
                                             u5350 2E5A                                               u5270 2F54  
                                             u4710 1930                                               u4630 187A  
                                             u4550 174A                                               u4470 1612  
                                             u5190 235C                                               u5254 2F22  
                                             u5510 289E                                               u4391 3248  
                                             u5351 2E56                                               u5271 2F50  
                                             u4711 192C                                               u4631 1876  
                                             u4551 1746                                               u4471 160E  
                                             u5191 2358                                               u5255 2F1E  
                                             u5511 289A                                               u5360 2E7A  
                                             u5280 2F84                                               u4720 1944  
                                             u4640 188A                                               u4560 1758  
                                             u4480 164E                                               u4800 1E3C  
                                             u5520 28FC                                               u5361 2E76  
                                             u5281 2F80                                               u4721 1940  
                                             u4641 1886                                               u4561 1754  
                                             u4481 164A                                               u4801 1E38  
                                             u5521 28F8                                               u5370 34E8  
                                             u5290 2FAA                                               u4730 195E  
                                             u4650 18B6                                               u4570 1768  
                                             u4490 165C                                               u4810 1E4E  
                                             u5530 2942                                               u5371 34E4  
                                             u5291 2FA6                                               u4731 195A  
                                             u4651 18B2                                               u4571 1764  
                                             u4491 1658                                               u4811 1E4A  
                                             u5531 293E                                               u4740 1998  
                                             u4660 18C6                                               u4580 179A  
                                             u4900 2006                                               u4820 1E5E  
                                             u5460 315C                                               u5380 2722  
                                             u5540 2954                                               u5700 29BA  
                                             u4741 1994                                               u4661 18C2  
                                             u4581 1796                                               u4901 2002  
                                             u4821 1E5A                                               u5461 3158  
                                             u5381 271E                                               u5541 2950  
                                             u5701 29B6                                               u4750 19AA  
                                             u4670 18E2                                               u4590 17A8  
                                             u4910 202A                                               u4830 1EA2  
                                             u5550 3466                                               u5470 318A  
                                             u5390 277C                                               u5710 2A20  
                                             u4751 19A6                                               u4671 18DE  
                                             u4591 17A4                                               u4911 2026  
                                             u4831 1E9E                                               u5551 3462  
                                             u5471 3186                                               u5391 2778  
                                             u5711 2A1C                                               u5720 2FFE  
                                             u4760 19BA                                               u4680 18F2  
                                             u4920 2040                                               u4840 1EB4  
                                             u5480 31BE                                               u5721 2FFA  
                                             u4761 19B6                                               u4681 18EE  
                                             u4921 203C                                               u4841 1EB0  
                                             u5481 31BA                                               u5730 300E  
                                             u4770 19DA                                               u4690 1904  
                                             u4930 205E                                               u4850 1EC4  
                                             u5490 2856                                               u5731 300A  
                                             u4771 19D6                                               u4691 1900  
                                             u4931 205A                                               u4851 1EC0  
                                             u5491 2852                                               u5740 301E  
                                             u4780 19EC                                               u4940 207E  
                                             u4860 1F04                                               u5660 2BEA  
                                             u5741 301A                                               u4781 19E8  
                                             u4941 207A                                               u4861 1F00  
                                             u5661 2BE6                                               u4790 1A08  
                                             u4950 2090                                               u4870 1F44  
                                             u5670 2C50                                               u4791 1A04  
                                             u4951 208C                                               u4871 1F40  
                                             u5671 2C4C                                               u4960 20BE  
                                             u4880 1FBA                                               u5680 2AD2  
                                             u4961 20BA                                               u4881 1FB6  
                                             u5681 2ACE                                               u4970 20D4  
                                             u4890 1FDC                                               u5690 2B38  
                                             u4971 20D0                                               u4891 1FD8  
                                             u5691 2B34                                               u4980 20E8  
                                             u4981 20E4                                               u4990 2102  
                                             u4991 20FE                                               u7607 2528  
                                             u7617 2598                                               u7570 2502  
                                             u7707 2C74                                               u7627 299A  
                                             u7571 24FE                                               u7580 255A  
                                             u7717 28B8                                               u7637 2A00  
                                             u7581 2556                                               u7590 25C8  
                                             u7727 2782                                               u7647 2A44  
                                             u7591 25C4                                               u7737 27A0  
                                             u7657 2AB2                                               u7747 27BA  
                                             u7667 2B18                                               u7757 3514  
                                             u7677 2B5C                                               u7767 304A  
                                             u7687 2BCA                                               u7777 35CE  
                                             u7697 2C30                                               _TMR2 000FCC  
                          ??_application_intialize 0048                      ??_lcd_4bit_send_enable_signal 000E  
                         _RB4_InterruptHandler_LOW 00E0                     gpio_pin_read_logic@_pin_config 0002  
                                             _main 24B4                                   __end_of_CCP1_ISR 374E  
                                             _hour 0069                                   __end_of_CCP2_ISR 374A  
                                             _time 009E                           _RB7_InterruptHandler_LOW 00D4  
                                             fsr2h 000FDA                                               indf2 000FDF  
                                             fsr1l 000FE1                                               fsr2l 000FD9  
                                             btemp 007D                  lcd_4bit_send_char_data_pos@column 001E  
                                             prodh 000FF4                                               prodl 000FF3  
                                             start 000E                                    ___fldiv@new_exp 0021  
                                     ___param_bank 000000                              _lcd_4bit_send_command 323A  
                             _gpio_pin_write_logic 25E0                     lcd_4bit_send_string_pos@column 001E  
                            lcd_4bit_intialize@lcd 0014                              lcd_4bit_intialize@ret 0019  
                                 __end_of_INT0_ISR 3742                                   __end_of_INT1_ISR 373E  
                                 __end_of_INT2_ISR 373A                                      _EUSART_RX_ISR 3754  
     EUSART_ASYNC_WriteStringBlocking@char_counter 0008                                      ___fltol@sign1 000A  
                                    _EUSART_TX_ISR 3742                                    __end_of___fladd 1A1C  
                                            ?_main 0001                                    __end_of___fldiv 21BC  
                                            _EEADR 000FA9                                              STR_10 104B  
                                            STR_11 106B                                    __end_of___fltol 2DA6  
                                            i2l473 3750                                              i2l574 3748  
                                            i2l569 374C                                              i2l923 3734  
                                            i2l919 3730                                              i2l992 373C  
                                            i2l987 3740                                              i2l997 3738  
                                            _RCREG 000FAE                                relay_turn_off@F3017 0060  
                                            _TMR0H 000FD7                                              _TMR1H 000FCF  
                                            _TMR0L 000FD6                                              _TMR1L 000FCE  
                                            _TMR3H 000FB3                                              _TMR3L 000FB2  
                                            _SPBRG 000FAF                                              _PORTA 000F80  
                                            _PORTB 000F81                                              _PORTC 000F82  
                                            _PORTD 000F83                                              _PORTE 000F84  
                                            _TRISA 000F92                                              _TRISB 000F93  
                                            _TRISC 000F94                                              _TRISD 000F95  
                                            _TRISE 000F96                                              _TXREG 000FAD  
                        lcd_4bit_set_cursor@coulmn 0017                                   _WelcomingMessage 34EC  
                         __end_of_keypad_get_value 2958                                   __end_of_TMR0_ISR 3726  
                                 __end_of_TMR1_ISR 371A                                   __end_of_TMR2_ISR 372E  
                                 __end_of_TMR3_ISR 370E                                              _lcd_1 0075  
                                            tablat 000FF5             __end_of_EUSART_ASYNC_WriteByteBlocking 3684  
                   _EUSART_ASYNC_WriteByteBlocking 366A                                              ttemp5 007E  
                                            ttemp6 0081                                              ttemp7 0085  
                                            status 000FD8                                              wtemp8 007E  
                keypad_get_value@l_columns_counter 0016                                    __initialization 33F2  
                              keypad_get_value@ret 0012                                       __end_of_main 25E0  
                            ?_gpio_pin_write_logic 0002                                          ??_ADC_ISR 0001  
                                   ?_EUSART_RX_ISR 0001                                     ?_EUSART_TX_ISR 0001  
                         gpio_pin_read_logic@logic 0004                                      _lat_registers 008A  
                                           ??_main 00E6                                      __activetblptr 000003  
                            _TMR3_InterruptHandler 00CC                                   led_turn_on@F3018 0065  
                                        ??_RB4_ISR 0001                                          ??_RB5_ISR 0001  
                                        ??_RB6_ISR 0001                                          ??_RB7_ISR 0001  
                       _EUSART_OverrunErrorHandler 00C4                                             _ADRESH 000FC4  
                                           _EEADRH 000FAA                                             _ADRESL 000FC3  
                                           _EEDATA 000FA8                                             _CCPR1L 000FBE  
                                           _CCPR2L 000FBB                                             _EECON2 000FA7  
                                _EUSART_ASYNC_Init 3454                                             i2l1030 36B6  
                                           i2l1008 36EA                                             i2l1041 369C  
                                           i2l1019 36D0                                             i2l1220 1A7E  
                                           i2l1230 1BD2                                             i2l1222 1AC2  
                                           i2l1240 1CDE                                             i2l1232 1C16  
                                           i2l1224 1B06                                             i2l1216 1A3E  
                                           i2l1321 3752                                             i2l1250 1D7E  
                                           i2l1242 1CFE                                             i2l1234 1C5A  
                                           i2l1226 1B4A                                             i2l1218 1A5E  
                                           i2l1252 1D9E                                             i2l1244 1D1E  
                                           i2l1236 1C9E                                             i2l1228 1B8E  
                                           i2l1261 1E1E                                             i2l1254 1DBE  
                                           i2l1246 1D3E                                             i2l1238 1CBE  
                                           i2l1256 1DDE                                             i2l1248 1D5E  
                                           i2l1258 1DFE                                             i2l1507 372C  
                                           i2l1701 3754                                             i2l1551 370C  
                                           i2l1456 3718                                             i2l1387 3724  
                                           i2l3502 374E                                             i2l3512 3746  
                                           i2l3506 374A                                             i2l3530 372E  
                                           i2l1692 3744                                             i2l3550 3736  
                                           i2l3534 3732                                             i2l3544 373A  
                                           i2l3538 373E                                             i2l6800 3720  
                                           i2l6740 36D4                                             i2l6804 370E  
                                           i2l6812 3726                                             i2l6820 3708  
                                           i2l6830 3754                                             i2l6742 36D6  
                                           i2l6806 3710                                             i2l7710 1A3A  
                                           i2l6824 3742                                             i2l6808 3714  
                                           i2l6816 3702                                             i2l7800 1CAC  
                                           i2l7720 1A8C                                             i2l7712 1A4C  
                                           i2l6762 36D0                                             i2l6754 36BA  
                                           i2l6770 36A2                                             i2l6818 3704  
                                           i2l7810 1CFA                                             i2l7802 1CBA  
                                           i2l7730 1AD0                                             i2l7722 1A9A  
                                           i2l7714 1A5A                                             i2l7706 1A1E  
                                           i2l6748 36EA                                             i2l6756 36BC  
                                           i2l7820 1D4C                                             i2l7812 1D0C  
                                           i2l7804 1CCC                                             i2l7740 1B14  
                                           i2l7732 1ADE                                             i2l7724 1AA8  
                                           i2l7716 1A6C                                             i2l7708 1A2C  
                                           i2l6790 369C                                             i2l6782 3686  
                                           i2l7830 1D9A                                             i2l7822 1D5A  
                                           i2l7814 1D1A                                             i2l7806 1CDA  
                                           i2l7750 1B58                                             i2l7742 1B22  
                                           i2l7734 1AEC                                             i2l7726 1AB8  
                                           i2l7718 1A7A                                             i2l6776 36B6  
                                           i2l6768 36A0                                             i2l6784 3688  
                                           i2l7840 1DEC                                             i2l7832 1DAC  
                                           i2l7824 1D6C                                             i2l7816 1D2C  
                                           i2l7808 1CEC                                             i2l7760 1B9C  
                                           i2l7752 1B66                                             i2l7744 1B30  
                                           i2l7736 1AFC                                             i2l7728 1ABC  
                                           i2l7842 1DFA                                             i2l7834 1DBA  
                                           i2l7826 1D7A                                             i2l7818 1D3A  
                                           i2l7770 1BE0                                             i2l7762 1BAA  
                                           i2l7754 1B74                                             i2l7746 1B40  
                                           i2l7738 1B00                                             i2l6796 371A  
                                           i2l7844 1E0C                                             i2l7836 1DCC  
                                           i2l7828 1D8C                                             i2l7780 1C24  
                                           i2l7772 1BEE                                             i2l7764 1BB8  
                                           i2l7756 1B84                                             i2l7748 1B44  
                                           i2l6798 371C                                             i2l7846 1E1A  
                                           i2l7838 1DDA                                             i2l7790 1C68  
                                           i2l7782 1C32                                             i2l7774 1BFC  
                                           i2l7766 1BC8                                             i2l7758 1B88  
                                           i2l7792 1C76                                             i2l7784 1C40  
                                           i2l7776 1C0C                                             i2l7768 1BCC  
                                           i2l7794 1C84                                             i2l7786 1C50  
                                           i2l7778 1C10                                             i2l7796 1C94  
                                           i2l7788 1C54                                             i2l7798 1C98  
                                    _KeypadPressed 007B                                   __end_of_calcTime 366A  
                                           _SPBRGH 000FB0                                 ?_EUSART_ASYNC_Init 0045  
                                           _SSPADD 000FC8                                             _SSPBUF 000FC9  
                        keypad_get_value@l_counter 0014                                   __end_of___xxtofl 2370  
                 __end_of_lcd_4bit_send_string_pos 323A                             ?_lcd_4bit_send_command 0010  
                                   _TimeValidation 2FEE                                ??_EUSART_ASYNC_Init 0047  
                                        ??___fladd 0031                                          ??___fldiv 0018  
                                        ??___fltol 0006                                             clear_0 3438  
                                           clear_1 3444                                             isa$std 000001  
          gpio_pin_direction_intialize@_pin_config 0002        _I2C_Report_Receive_Overflow_InterruptHandle 00E4  
                                        ?_CCP1_ISR 0001                                       __pdataCOMRAM 0067  
                                        ?_CCP2_ISR 0001                                       __mediumconst 0000  
                                           tblptrh 000FF7                                             tblptrl 000FF6  
                                           tblptru 000FF8                          __end_of_EUSART_ASYNC_Init 34A2  
                     __end_of_EUSART_ASYNC_RX_Init 2E82                       __end_of_EUSART_ASYNC_TX_Init 2FEE  
                                     ___xxtofl@arg 000C                                       ___xxtofl@exp 000B  
                                     ___xxtofl@val 0002                                         __accesstop 0080  
                          __end_of__initialization 344A                                          ?_INT0_ISR 0001  
                                        ?_INT1_ISR 0001                                          ?_INT2_ISR 0001  
                                    ___rparam_used 000001                             __end_of_TimeValidation 309A  
                                       ___fltol@f1 0002                                   ??_lcd_send_4bits 000F  
                          _lcd_4bit_send_char_data 32AC                                  RB5_ISR@RB5_Source 0001  
                           ??_gpio_pin_write_logic 0005                                     __pcstackCOMRAM 0001  
                       _I2C_DefaultInterruptHandle 0054                                       __pidataBANK0 357A  
                                        ?_TMR0_ISR 0001                                    ??_EUSART_RX_ISR 0001  
                                        ?_TMR1_ISR 0001                                          ?_TMR2_ISR 0001  
                                        ?_TMR3_ISR 0001                                    ??_EUSART_TX_ISR 0001  
                         lcd_4bit_send_command@lcd 0010                           lcd_4bit_send_command@ret 0013  
                                       ??_CCP1_ISR 0001                                         ??_CCP2_ISR 0001  
                     ?_lcd_4bit_send_char_data_pos 001B                                         __pbssBANK0 00BE  
                            _INT0_InterruptHandler 0052                                         ??_INT0_ISR 0001  
                                       ??_INT1_ISR 0001                                         ??_INT2_ISR 0001  
                                       __pnvCOMRAM 007C                      __end_of_application_intialize 3648  
          EUSART_ASYNC_WriteStringBlocking@str_len 0005                                    ?_TimeValidation 0001  
                         __end_of_WelcomingMessage 3534                                         ??_TMR0_ISR 0001  
                                       ??_TMR1_ISR 0001                                         ??_TMR2_ISR 0001  
                                       ??_TMR3_ISR 0001                                  led_turn_off@F3023 0064  
                                          _ADC_ISR 374E                        EUSART_ASYNC_TX_Init@_eusart 0002  
                                       _getMinutes 2A70                                         _getSeconds 2958  
                                RB7_ISR@RB7_Source 0001                                          ?_calcTime 0001  
                                          _RB4_ISR 36D2                                            _RB5_ISR 36B8  
                                          _RB6_ISR 369E                                            _RB7_ISR 3684  
                                        ?___xxtofl 0002                          ?_lcd_4bit_send_string_pos 001B  
                        _RB6_InterruptHandler_HIGH 00DA                                 usartSend@arrayTime 000A  
                                    ?_MSSP_I2C_ISR 0001                               led_turn_toggle@F3028 0063  
                                ?_keypad_get_value 000C                                 ??_keypad_get_value 0010  
                                       _btn_values 1001                                     _tris_registers 0094  
                         _RB6_InterruptHandler_LOW 00D8                          ??_lcd_4bit_send_char_data 0013  
                                    ?_MSSP_SPI_ISR 0001                                  __end_of_getHoures 2CA0  
                                ??_MSSP_I2C_BC_ISR 0001                               _ADC_InterruptHandler 005C  
                                          __Hparam 0000                                            __Lparam 0000  
                                          ___fladd 155C                                            ___fldiv 1E22  
                              _gpio_pin_read_logic 2E82                                            ___fltol 2CA0  
                             EUSART_ASYNC_Init@ret 0047                   ??_EUSART_ASYNC_WriteByteBlocking 0002  
                  ?_EUSART_ASYNC_WriteByteBlocking 0001                  _EUSART_Baud_Rate_Calculation$5494 0041  
                 keypad_initialize@columns_counter 0016                                       __psmallconst 1000  
                             _EUSART_ASYNC_RX_Init 2DA6                               _EUSART_ASYNC_TX_Init 2F3A  
                       __end_of_gpio_pin_intialize 338A                                            __pcinit 33F2  
                                          __ramtop 1000                                            __ptext0 24B4  
                                          __ptext1 2958                                            __ptext2 2A70  
                                          __ptext3 2B88                                            __ptext4 3534  
                                          __ptext5 2834                                            __ptext6 2E82  
                                          __ptext7 3648                                            __ptext8 361C  
                                          __ptext9 270C                                          _T0CONbits 000FD5  
                                       ??_calcTime 0002                                          _T1CONbits 000FCD  
                                   ??_MSSP_I2C_ISR 0001                                          _T2CONbits 000FCA  
                                       ??___xxtofl 0006                                          _T3CONbits 000FB1  
       EUSART_Baud_Rate_Calculation@Baud_Rate_Temp 003D                               ?_gpio_pin_read_logic 0002  
                                          _usart_1 00A4              lcd_4bit_intialize@l_data_pins_counter 0018  
                                   __pintcode_body 1A1C                               end_of_initialization 344A  
                                lcd_send_4bits@lcd 000C                                  lcd_send_4bits@ret 000F  
              EUSART_ASYNC_WriteStringBlocking@ret 0007                                            int_func 1A1C  
                                   ??_MSSP_SPI_ISR 0001                         __end_of_lcd_4bit_intialize 2834  
                          ??_lcd_4bit_send_command 0013                              gpio_pin_intialize@ret 000F  
                                        _RCSTAbits 000FAB                                            postdec1 000FE5  
                                          postdec2 000FDD                                            postinc0 000FEE  
                                          postinc2 000FDE                              ?_EUSART_ASYNC_RX_Init 0002  
                            ?_EUSART_ASYNC_TX_Init 0002                                  __end_of_usartSend 361C  
                                      ?_getMinutes 0001                                        ?_getSeconds 0001  
                  __end_of_lcd_4bit_send_char_data 331E                              _INT1_InterruptHandler 0050  
                                        _PORTBbits 000F81                                   _InterruptManager 0008  
                    gpio_pin_intialize@_pin_config 000C                                        ___fladd@grs 0038  
                     keypad_get_value@column_logic 0013                         lcd_4bit_send_char_data@lcd 0010  
                       lcd_4bit_send_char_data@ret 0013               __end_of_gpio_pin_direction_intialize 24B4  
                     _gpio_pin_direction_intialize 2370                                      ___xxtofl@sign 000A  
                                        _TRISCbits 000F94                              ??_gpio_pin_read_logic 0006  
                                      ___fldiv@grs 0023                                        ___fldiv@rem 001C  
                  lcd_4bit_send_char_data_pos@data 001F                                        _CCP1CONbits 000FBD  
                                      _CCP2CONbits 000FBA                                          _TXSTAbits 000FAC  
                               relay_turn_on@F3012 0061                                _lcd_4bit_set_cursor 309A  
                      lcd_4bit_send_string_pos@lcd 001B                        lcd_4bit_send_string_pos@ret 0021  
                      lcd_4bit_send_string_pos@row 001D                        lcd_4bit_send_string_pos@str 001F  
                         EUSART_ASYNC_Init@_eusart 0045                              keypad_get_value@value 000E  
                    convert_uint16_to_string@F3163 00BE                                        _BAUDCONbits 000FB8  
                                    __pidataCOMRAM 36EC                                     _timer0_preload 004C  
                                   _timer1_preload 004A                                     _timer2_preload 005F  
                              start_initialization 33F2                                     _timer3_preload 0048  
                     ?_lcd_4bit_send_enable_signal 000C                EUSART_Baud_Rate_Calculation@_eusart 0039  
                             ?_lcd_4bit_set_cursor 0014   MSSP_SPI_Slave_Mode_GPIO_PIN_Configurations@F3070 006A  
MSSP_SPI_Msster_Mode_GPIO_PIN_Configurations@F3055 0070   MSSP_SPI_Slave_Mode_GPIO_PIN_Configurations@F3064 006D  
MSSP_SPI_Msster_Mode_GPIO_PIN_Configurations@F3057 006F   MSSP_SPI_Slave_Mode_GPIO_PIN_Configurations@F3066 006C  
MSSP_SPI_Msster_Mode_GPIO_PIN_Configurations@F3059 006E   MSSP_SPI_Slave_Mode_GPIO_PIN_Configurations@F3068 006B  
                    ?_gpio_pin_direction_intialize 0002                                   ??_TimeValidation 0022  
             __end_of_EUSART_Baud_Rate_Calculation 155C                       _EUSART_Baud_Rate_Calculation 107E  
                        _EUSART_RxInterruptHandler 00C8                               __end_of_MSSP_I2C_ISR 3732  
                                ?_WelcomingMessage 0001                         _EUSART_FramingErrorHandler 00C6  
                           ??_EUSART_ASYNC_RX_Init 0004                             ??_EUSART_ASYNC_TX_Init 0004  
                               ??_WelcomingMessage 0022                                        __pdataBANK0 0080  
                                         ?_ADC_ISR 0001                              __end_of_EUSART_RX_ISR 3756  
                            __end_of_EUSART_TX_ISR 3746                       lcd_4bit_send_command@command 0012  
                                        ___fladd@a 002D                                          ___fladd@b 0029  
                             __end_of_MSSP_SPI_ISR 3754                                          ___fldiv@a 0014  
                                        ___fldiv@b 0010                                           ?_RB4_ISR 0001  
                                         ?_RB5_ISR 0001                                           ?_RB6_ISR 0001  
                                         ?_RB7_ISR 0001                                        __pbssCOMRAM 0048  
                            ??_lcd_4bit_set_cursor 0018        _I2C_Report_Write_Collision_InterruptHandler 0056  
                                    __pcstackBANK0 00E6                                    _MSSP_I2C_BC_ISR 3732  
                            _INT2_InterruptHandler 004E                    gpio_pin_direction_intialize@ret 000A  
                    ?_EUSART_Baud_Rate_Calculation 0039                              _TMR0_InterruptHandler 00D2  
                    keypad_initialize@rows_counter 0015                              _application_intialize 361C  
                                        __pintcode 0008                                           ?___fladd 0029  
                  gpio_pin_write_logic@_pin_config 0002                                           ?___fldiv 0010  
                                        _getHoures 2B88                                           ?___fltol 0002  
                        gpio_pin_write_logic@logic 0004                                        __smallconst 1000  
                        _RB4_InterruptHandler_HIGH 00E2                                           _CCP1_ISR 374A  
                                         _CCP2_ISR 3746                          _RB7_InterruptHandler_HIGH 00D6  
                               _gpio_pin_intialize 331E                     ??_gpio_pin_direction_intialize 0004  
                         _RB5_InterruptHandler_LOW 00DC                                           _INT0_ISR 373E  
                                         _INT1_ISR 373A                                           _INT2_ISR 3736  
                                         _RB4_Flag 0074                                           _RB5_Flag 0073  
                                         _RB6_Flag 0072                                           _RB7_Flag 0071  
                                RB4_ISR@RB4_Source 0001                                ?_gpio_pin_intialize 000C  
                         __end_of_InterruptManager 1E22                                           _PIE1bits 000F9D  
                                         _PIE2bits 000FA0                      __end_of_lcd_4bit_send_command 32AC  
                                         _PIR1bits 000F9E                                           _PIR2bits 000FA1  
                                         i2u700_40 1C84                                           i2u700_41 1C80  
                                         i2u701_40 1C94                                           i2u701_41 1C90  
                                         i2u710_40 1D2C                                           i2u702_40 1CAC  
                                         i2u710_41 1D28                                           i2u702_41 1CA8  
                                         i2u711_40 1D3A                                           i2u703_40 1CBA  
                                         i2u711_41 1D36                                           i2u703_41 1CB6  
                                         i2u720_40 1DCC                                           i2u712_40 1D4C  
                                         i2u704_40 1CCC                                           i2u720_41 1DC8  
                                         i2u712_41 1D48                                           i2u704_41 1CC8  
                                         i2u721_40 1DDA                                           i2u713_40 1D5A  
                                         i2u705_40 1CDA                                           i2u721_41 1DD6  
                                         i2u713_41 1D56                                           i2u705_41 1CD6  
                                         i2u562_40 36E6                                           i2u722_40 1DEC  
                                         i2u714_40 1D6C                                           i2u706_40 1CEC  
                                         i2u562_41 36E2                                           i2u722_41 1DE8  
                                         i2u714_41 1D68                                           i2u706_41 1CE8  
                                         i2u563_40 36CC                                           i2u723_40 1DFA  
                                         i2u715_40 1D7A                                           i2u707_40 1CFA  
                                         i2u563_41 36C8                                           i2u723_41 1DF6  
                                         i2u715_41 1D76                                           i2u707_41 1CF6  
                                         i2u564_40 36B2                                           i2u724_40 1E0C  
                                         i2u716_40 1D8C                                           i2u708_40 1D0C  
                                         i2u564_41 36AE                                           i2u724_41 1E08  
                                         i2u716_41 1D88                                           i2u708_41 1D08  
                                         i2u565_40 3698                                           i2u725_40 1E1A  
                                         i2u717_40 1D9A                                           i2u709_40 1D1A  
                                         i2u565_41 3694                                           i2u725_41 1E16  
                                         i2u717_41 1D96                                           i2u709_41 1D16  
                                         i2u718_40 1DAC                                           i2u670_40 1A8C  
                                         i2u718_41 1DA8                                           i2u670_41 1A88  
                                         i2u719_40 1DBA                                           i2u671_40 1A9A  
                                         i2u719_41 1DB6                                           i2u671_41 1A96  
                                         i2u680_40 1B30                                           i2u672_40 1AA8  
                                         i2u664_40 1A2C                                           i2u680_41 1B2C  
                                         i2u672_41 1AA4                                           i2u664_41 1A28  
                                         i2u681_40 1B40                                           i2u673_40 1AB8  
                                         i2u665_40 1A3A                                           i2u681_41 1B3C  
                                         i2u673_41 1AB4                                           i2u665_41 1A36  
                                         i2u690_40 1BE0                                           i2u682_40 1B58  
                                         i2u674_40 1AD0                                           i2u666_40 1A4C  
                                         i2u690_41 1BDC                                           i2u682_41 1B54  
                                         i2u674_41 1ACC                                           i2u666_41 1A48  
                                         i2u691_40 1BEE                                           i2u683_40 1B66  
                                         i2u675_40 1ADE                                           i2u667_40 1A5A  
                                         i2u691_41 1BEA                                           i2u683_41 1B62  
                                         i2u675_41 1ADA                                           i2u667_41 1A56  
                                         i2u692_40 1BFC                                           i2u684_40 1B74  
                                         i2u676_40 1AEC                                           i2u668_40 1A6C  
                                         i2u692_41 1BF8                                           i2u684_41 1B70  
                                         i2u676_41 1AE8                                           i2u668_41 1A68  
                                         i2u693_40 1C0C                                           i2u685_40 1B84  
                                         i2u677_40 1AFC                                           i2u669_40 1A7A  
                                         i2u693_41 1C08                                           i2u685_41 1B80  
                                         i2u677_41 1AF8                                           i2u669_41 1A76  
                                         i2u694_40 1C24                                           i2u686_40 1B9C  
                                         i2u678_40 1B14                                           i2u694_41 1C20  
                                         i2u686_41 1B98                                           i2u678_41 1B10  
                                         i2u695_40 1C32                                           i2u687_40 1BAA  
                                         i2u679_40 1B22                                           i2u695_41 1C2E  
                                         i2u687_41 1BA6                                           i2u679_41 1B1E  
                                         i2u696_40 1C40                                           i2u688_40 1BB8  
                                         i2u696_41 1C3C                                           i2u688_41 1BB4  
                                         i2u697_40 1C50                                           i2u689_40 1BC8  
                                         i2u697_41 1C4C                                           i2u689_41 1BC4  
                                         i2u698_40 1C68                                           i2u698_41 1C64  
                                         i2u699_40 1C76                                           i2u699_41 1C72  
                                       ?_getHoures 0001                                          _pressFlag 005E  
                                         _TMR0_ISR 371A                                           _TMR1_ISR 370E  
                                         _TMR2_ISR 3726                                           _TMR3_ISR 3702  
                               _lcd_4bit_intialize 270C                                       ??_getMinutes 0022  
                                     ??_getSeconds 0022                           _lcd_4bit_send_string_pos 31C2  
              EUSART_ASYNC_WriteByteBlocking@_data 0002                                         _ADCON0bits 000FC2  
                                       _ADCON1bits 000FC1                                         _ADCON2bits 000FC0  
                          __end_of_MSSP_I2C_BC_ISR 3736                               ??_gpio_pin_intialize 000E  
                   lcd_4bit_send_char_data_pos@lcd 001B                     lcd_4bit_send_char_data_pos@ret 0020  
                   lcd_4bit_send_char_data_pos@row 001D                                          _usartSend 35EE  
                              ?_lcd_4bit_intialize 0014                __end_of_lcd_4bit_send_char_data_pos 357A  
                      _lcd_4bit_send_char_data_pos 3534                            gpio_pin_write_logic@ret 000B  
                                      _INTCON2bits 000FF1                                        _INTCON3bits 000FF0  
                         ?_lcd_4bit_send_char_data 0010                                          copy_data0 3406  
                                        copy_data1 3426              EUSART_ASYNC_WriteStringBlocking@_data 0003  
                                _keypad_initialize 3142                                 ?_keypad_initialize 0010  
                           gpio_pin_read_logic@ret 000B                      ??_lcd_4bit_send_char_data_pos 0020  
                               __end_of_getMinutes 2B88                                 __end_of_getSeconds 2A70  
                                       _EECON1bits 000FA6                             ?_application_intialize 0001  
                             ??_lcd_4bit_intialize 0016                                           __Hrparam 0000  
                                         __Lrparam 0000                                ??_keypad_initialize 0012  
                   ??_EUSART_Baud_Rate_Calculation 003B                        EUSART_ASYNC_RX_Init@_eusart 0002  
                                RB6_ISR@RB6_Source 0001                              _CCP1_InterruptHandler 005A  
                           lcd_4bit_set_cursor@lcd 0014                             lcd_4bit_set_cursor@ret 001A  
                           lcd_4bit_set_cursor@row 0016                                 __end_of_btn_values 1011  
                      __end_of_gpio_pin_read_logic 2F3A                                           _calcTime 3648  
                            _TMR1_InterruptHandler 00D0                        keypad_get_value@_keypad_obj 000C  
                                       ?_usartSend 0001                                           ___xxtofl 21BC  
                                     _MSSP_I2C_ISR 372E                          __end_of_keypad_initialize 31C2  
                                         __ptext10 3142                                           __ptext11 331E  
                                         __ptext20 2DA6                                           __ptext12 2370  
                                         __ptext21 34EC                                           __ptext13 3454  
                                         __ptext30 338A                                           __ptext22 2FEE  
                                         __ptext14 107E                                           __ptext31 35B8  
                                         __ptext23 35EE                                           __ptext15 21BC  
                                         __ptext40 36B8                                           __ptext32 25E0  
                                         __ptext24 34A2                                           __ptext16 2CA0  
                                         __ptext41 36D2                                           __ptext25 366A  
                                         __ptext17 1E22                                           __ptext50 3746  
                                         __ptext42 3752                                           __ptext34 3702  
                                         __ptext26 31C2                                           __ptext18 155C  
                                         __ptext51 374A                                           __ptext43 372E  
                                         __ptext35 3726                                           __ptext27 309A  
                                         __ptext19 2F3A                                           __ptext52 374E  
                                         __ptext44 3732                                           __ptext36 370E  
                                         __ptext28 323A                                           __ptext45 3736  
                                         __ptext37 371A                                           __ptext29 32AC  
                                         __ptext46 373A                                           __ptext38 3684  
                                         __ptext47 373E                                           __ptext39 369E  
                                         __ptext48 3742                                           __ptext49 3754  
                                         _keypad_1 00B6                                       _MSSP_SPI_ISR 3752  
                                 _keypad_get_value 2834           __end_of_EUSART_ASYNC_WriteStringBlocking 34EC  
               ??_EUSART_ASYNC_WriteStringBlocking 0007                  ?_EUSART_ASYNC_WriteStringBlocking 0003  
                 _EUSART_ASYNC_WriteStringBlocking 34A2                                           isa$xinst 000000  
                                      ??_getHoures 0022                                           int$flags 007D  
                                   _lcd_send_4bits 338A                                   ?_MSSP_I2C_BC_ISR 0001  
                                       _INTCONbits 000FF2                     keypad_get_value@l_rows_counter 0015  
                     __end_of_gpio_pin_write_logic 270C                                           intlevel2 0000  
                   lcd_4bit_send_enable_signal@lcd 000C                     lcd_4bit_send_enable_signal@ret 000E  
                        _EUSART_TxInterruptHandler 00CA                       keypad_initialize@_keypad_obj 0010  
                           __end_of_lcd_send_4bits 33F2                        __end_of_lcd_4bit_set_cursor 3142  
                                      ??_usartSend 000A                                     _port_registers 0080  
                                      _SSPCON1bits 000FC6                                        _SSPCON2bits 000FC5  
                                    ___fladd@signs 0035                              _CCP2_InterruptHandler 0058  
                                     ___fladd@aexp 0036                                       ___fladd@bexp 0037  
                      lcd_4bit_send_char_data@data 0012                              _TMR2_InterruptHandler 00CE  
                                ?_InterruptManager 0001                         ??_lcd_4bit_send_string_pos 0021  
