

Microchip MPLAB XC8 Assembler V2.36 build 20220127204148 
                                                                                               Wed Feb 01 15:01:38 2023

Microchip MPLAB XC8 C Compiler v2.36 (Free license) build 20220127204148 Og1 
     1                           	processor	18F4620
     2                           	fnconf	rparam,??,?,0
     3                           	pagewidth 120
     4                           	opt	flic
     5                           	psect	idataCOMRAM,global,class=CODE,delta=1,noexec
     6                           	psect	idataBANK0,global,class=CODE,delta=1,noexec
     7                           	psect	idataBANK1,global,class=CODE,delta=1,noexec
     8                           	psect	smallconst,global,reloc=2,class=SMALLCONST,delta=1,noexec
     9                           	psect	cinit,global,reloc=2,class=CODE,delta=1
    10                           	psect	bssCOMRAM,global,class=COMRAM,space=1,delta=1,lowdata,noexec
    11                           	psect	dataCOMRAM,global,class=COMRAM,space=1,delta=1,lowdata,noexec
    12                           	psect	bssBANK0,global,class=BANK0,space=1,delta=1,lowdata,noexec
    13                           	psect	dataBANK0,global,class=BANK0,space=1,delta=1,lowdata,noexec
    14                           	psect	dataBANK1,global,class=BANK1,space=1,delta=1,lowdata,noexec
    15                           	psect	cstackBANK0,global,class=BANK0,space=1,delta=1,lowdata,noexec
    16                           	psect	cstackCOMRAM,global,class=COMRAM,space=1,delta=1,lowdata,noexec
    17                           	psect	text0,global,reloc=2,class=CODE,delta=1
    18                           	psect	text1,global,reloc=2,class=CODE,delta=1
    19                           	psect	text2,global,reloc=2,class=CODE,delta=1
    20                           	psect	text3,global,reloc=2,class=CODE,delta=1
    21                           	psect	text4,global,reloc=2,class=CODE,delta=1,inline
    22                           	psect	text5,global,reloc=2,class=CODE,delta=1
    23                           	psect	text6,global,reloc=2,class=CODE,delta=1
    24                           	psect	text7,global,reloc=2,class=CODE,delta=1
    25                           	psect	text8,global,reloc=2,class=CODE,delta=1
    26                           	psect	text9,global,reloc=2,class=CODE,delta=1
    27                           	psect	text10,global,reloc=2,class=CODE,delta=1,group=1
    28                           	psect	text11,global,reloc=2,class=CODE,delta=1,group=1
    29                           	psect	text12,global,reloc=2,class=CODE,delta=1,group=1
    30                           	psect	text13,global,reloc=2,class=CODE,delta=1,group=1
    31                           	psect	text14,global,reloc=2,class=CODE,delta=1,group=1
    32                           	psect	text15,global,reloc=2,class=CODE,delta=1
    33                           	psect	text16,global,reloc=2,class=CODE,delta=1
    34                           	psect	text17,global,reloc=2,class=CODE,delta=1
    35                           	psect	text18,global,reloc=2,class=CODE,delta=1
    36                           	psect	intcode,global,reloc=2,class=CODE,delta=1
    37                           	psect	intcode_body,global,reloc=2,class=CODE,delta=1
    38                           	psect	text20,global,reloc=2,class=CODE,delta=1
    39                           	psect	text21,global,reloc=2,class=CODE,delta=1
    40                           	psect	text22,global,reloc=2,class=CODE,delta=1
    41                           	psect	text23,global,reloc=2,class=CODE,delta=1
    42                           	psect	text24,global,reloc=2,class=CODE,delta=1
    43                           	psect	text25,global,reloc=2,class=CODE,delta=1
    44                           	psect	text26,global,reloc=2,class=CODE,delta=1
    45                           	psect	text27,global,reloc=2,class=CODE,delta=1
    46                           	psect	text28,global,reloc=2,class=CODE,delta=1
    47                           	psect	text29,global,reloc=2,class=CODE,delta=1
    48                           	psect	text30,global,reloc=2,class=CODE,delta=1
    49                           	psect	text31,global,reloc=2,class=CODE,delta=1
    50                           	psect	text32,global,reloc=2,class=CODE,delta=1
    51                           	psect	text33,global,reloc=2,class=CODE,delta=1
    52                           	psect	text34,global,reloc=2,class=CODE,delta=1
    53                           	psect	text35,global,reloc=2,class=CODE,delta=1
    54                           	psect	text36,global,reloc=2,class=CODE,delta=1
    55                           	psect	text37,global,reloc=2,class=CODE,delta=1
    56                           	psect	text38,global,reloc=2,class=CODE,delta=1
    57                           	psect	text39,global,reloc=2,class=CODE,delta=1
    58                           	psect	text40,global,reloc=2,class=CODE,delta=1
    59                           	psect	intsave_regs,global,class=BIGRAM,space=1,delta=1,noexec
    60                           	psect	text41,global,reloc=2,class=CODE,delta=1
    61                           	psect	rparam,global,class=COMRAM,space=1,delta=1,noexec
    62                           	psect	temp,global,ovrld,common,class=COMRAM,space=1,delta=1
    63                           	psect	idloc,global,abs,ovrld,class=IDLOC,space=5,delta=1,noexec
    64                           	psect	config,global,abs,ovrld,class=CONFIG,space=4,delta=1,noexec
    65  0000                     
    66                           ; Version 2.20
    67                           ; Generated 12/02/2020 GMT
    68                           ; 
    69                           ; Copyright © 2020, Microchip Technology Inc. and its subsidiaries ("Microchip")
    70                           ; All rights reserved.
    71                           ; 
    72                           ; This software is developed by Microchip Technology Inc. and its subsidiaries ("Microch
      +                          ip").
    73                           ; 
    74                           ; Redistribution and use in source and binary forms, with or without modification, are
    75                           ; permitted provided that the following conditions are met:
    76                           ; 
    77                           ;     1. Redistributions of source code must retain the above copyright notice, this lis
      +                          t of
    78                           ;        conditions and the following disclaimer.
    79                           ; 
    80                           ;     2. Redistributions in binary form must reproduce the above copyright notice, this 
      +                          list
    81                           ;        of conditions and the following disclaimer in the documentation and/or other
    82                           ;        materials provided with the distribution.
    83                           ; 
    84                           ;     3. Microchip's name may not be used to endorse or promote products derived from th
      +                          is
    85                           ;        software without specific prior written permission.
    86                           ; 
    87                           ; THIS SOFTWARE IS PROVIDED BY MICROCHIP "AS IS" AND ANY EXPRESS OR IMPLIED WARRANTIES,
    88                           ; INCLUDING, BUT NOT LIMITED TO, THE IMPLIED WARRANTIES OF MERCHANTABILITY AND FITNESS F
      +                          OR
    89                           ; PURPOSE ARE DISCLAIMED.  IN NO EVENT SHALL MICROCHIP BE LIABLE FOR ANY DIRECT, INDIREC
      +                          T,
    90                           ; INCIDENTAL, SPECIAL, EXEMPLARY, OR CONSEQUENTIAL DAMAGES (INCLUDING BUT NOT LIMITED TO
    91                           ; PROCUREMENT OF SUBSTITUTE GOODS OR SERVICES; LOSS OF USE, DATA OR PROFITS; OR BUSINESS
    92                           ; INTERRUPTION) HOWSOEVER CAUSED AND ON ANY THEORY OF LIABILITY, WHETHER IN CONTRACT, ST
      +                          RICT
    93                           ; LIABILITY, OR TORT (INCLUDING NEGLIGENCE OR OTHERWISE) ARISING IN ANY WAY OUT OF THE U
      +                          SE OF
    94                           ; THIS SOFTWARE, EVEN IF ADVISED OF THE POSSIBILITY OF SUCH DAMAGE.
    95                           ; 
    96                           ; 
    97                           ; Code-generator required, PIC18F4620 Definitions
    98                           ; 
    99                           ; SFR Addresses
   100  0000                     
   101                           	psect	idataCOMRAM
   102  002FDC                     __pidataCOMRAM:
   103                           	callstack 0
   104                           
   105                           ;initializer for MSSP_SPI_Slave_Mode_GPIO_PIN_Configurations@F3066
   106  002FDC  62                 	db	98
   107                           
   108                           ;initializer for MSSP_SPI_Slave_Mode_GPIO_PIN_Configurations@F3064
   109  002FDD  2A                 	db	42
   110                           
   111                           ;initializer for MSSP_SPI_Msster_Mode_GPIO_PIN_Configurations@F3059
   112  002FDE  1A                 	db	26
   113                           
   114                           ;initializer for MSSP_SPI_Msster_Mode_GPIO_PIN_Configurations@F3057
   115  002FDF  62                 	db	98
   116                           
   117                           ;initializer for MSSP_SPI_Msster_Mode_GPIO_PIN_Configurations@F3055
   118  002FE0  2A                 	db	42
   119                           
   120                           ;initializer for _RB7_Flag
   121  002FE1  01                 	db	1
   122                           
   123                           ;initializer for _RB6_Flag
   124  002FE2  01                 	db	1
   125                           
   126                           ;initializer for _RB5_Flag
   127  002FE3  01                 	db	1
   128                           
   129                           ;initializer for _RB4_Flag
   130  002FE4  01                 	db	1
   131                           
   132                           	psect	idataBANK0
   133  002F92                     __pidataBANK0:
   134                           	callstack 0
   135                           
   136                           ;initializer for _lat_registers
   137  002F92  89                 	db	137
   138  002F93  0F                 	db	15
   139  002F94  8A                 	db	138
   140  002F95  0F                 	db	15
   141  002F96  8B                 	db	139
   142  002F97  0F                 	db	15
   143  002F98  8C                 	db	140
   144  002F99  0F                 	db	15
   145  002F9A  8D                 	db	141
   146  002F9B  0F                 	db	15
   147                           
   148                           ;initializer for _tris_registers
   149  002F9C  92                 	db	146
   150  002F9D  0F                 	db	15
   151  002F9E  93                 	db	147
   152  002F9F  0F                 	db	15
   153  002FA0  94                 	db	148
   154  002FA1  0F                 	db	15
   155  002FA2  95                 	db	149
   156  002FA3  0F                 	db	15
   157  002FA4  96                 	db	150
   158  002FA5  0F                 	db	15
   159                           
   160                           ;initializer for MSSP_SPI_Slave_Mode_GPIO_PIN_Configurations@F3070
   161  002FA6  68                 	db	104
   162                           
   163                           ;initializer for MSSP_SPI_Slave_Mode_GPIO_PIN_Configurations@F3068
   164  002FA7  5A                 	db	90
   165                           
   166                           	psect	idataBANK1
   167  002FD2                     __pidataBANK1:
   168                           	callstack 0
   169                           
   170                           ;initializer for _port_registers
   171  002FD2  80                 	db	128
   172  002FD3  0F                 	db	15
   173  002FD4  81                 	db	129
   174  002FD5  0F                 	db	15
   175  002FD6  82                 	db	130
   176  002FD7  0F                 	db	15
   177  002FD8  83                 	db	131
   178  002FD9  0F                 	db	15
   179  002FDA  84                 	db	132
   180  002FDB  0F                 	db	15
   181                           
   182                           	psect	smallconst
   183  001000                     __psmallconst:
   184                           	callstack 0
   185  001000  00                 	db	0
   186  001001  37                 	db	55
   187  001002  38                 	db	56
   188  001003  39                 	db	57
   189  001004  2F                 	db	47
   190  001005  34                 	db	52
   191  001006  35                 	db	53
   192  001007  36                 	db	54
   193  001008  2A                 	db	42
   194  001009  31                 	db	49
   195  00100A  32                 	db	50
   196  00100B  33                 	db	51
   197  00100C  2D                 	db	45
   198  00100D  23                 	db	35
   199  00100E  30                 	db	48
   200  00100F  3D                 	db	61
   201  001010  2B                 	db	43
   202  001011                     __end_of_btn_values:
   203                           	callstack 0
   204  0000                     _SPBRGH	set	4016
   205  0000                     _SPBRG	set	4015
   206  0000                     _TXREG	set	4013
   207  0000                     _TXSTAbits	set	4012
   208  0000                     _RCREG	set	4014
   209  0000                     _RCSTAbits	set	4011
   210  0000                     _TMR3L	set	4018
   211  0000                     _TMR3H	set	4019
   212  0000                     _TMR2	set	4044
   213  0000                     _T2CONbits	set	4042
   214  0000                     _TMR1L	set	4046
   215  0000                     _TMR1H	set	4047
   216  0000                     _T1CONbits	set	4045
   217  0000                     _TMR0L	set	4054
   218  0000                     _TMR0H	set	4055
   219  0000                     _T0CONbits	set	4053
   220  0000                     _INTCON2bits	set	4081
   221  0000                     _INTCON3bits	set	4080
   222  0000                     _SSPBUF	set	4041
   223  0000                     _SSPSTATbits	set	4039
   224  0000                     _SSPADD	set	4040
   225  0000                     _SSPCON2bits	set	4037
   226  0000                     _SSPCON1bits	set	4038
   227  0000                     _EECON2	set	4007
   228  0000                     _ADCON1bits	set	4033
   229  0000                     _ADRESL	set	4035
   230  0000                     _ADRESH	set	4036
   231  0000                     _INTCONbits	set	4082
   232  0000                     _TRISD	set	3989
   233  0000                     _TRISC	set	3988
   234  0000                     _PR2	set	4043
   235  0000                     _TRISB	set	3987
   236  0000                     _TRISE	set	3990
   237  0000                     _PORTBbits	set	3969
   238  0000                     _TRISCbits	set	3988
   239  0000                     _PIE1bits	set	3997
   240  0000                     _ADCON2bits	set	4032
   241  0000                     _ADCON0bits	set	4034
   242  0000                     _PORTE	set	3972
   243  0000                     _PORTD	set	3971
   244  0000                     _PORTC	set	3970
   245  0000                     _PORTB	set	3969
   246  0000                     _PORTA	set	3968
   247  0000                     _LATA	set	3977
   248  0000                     _TRISA	set	3986
   249  0000                     _PIE2bits	set	4000
   250  0000                     _CCP2CONbits	set	4026
   251  0000                     _CCP1CONbits	set	4029
   252  0000                     _PIR1bits	set	3998
   253  0000                     _CCPR1L	set	4030
   254  0000                     _CCPR2L	set	4027
   255  0000                     _EECON1bits	set	4006
   256  0000                     _EEDATA	set	4008
   257  0000                     _EEADR	set	4009
   258  0000                     _EEADRH	set	4010
   259  0000                     _T3CONbits	set	4017
   260  0000                     _PIR2bits	set	4001
   261  0000                     _LATE	set	3981
   262  0000                     _LATD	set	3980
   263  0000                     _LATC	set	3979
   264  0000                     _LATB	set	3978
   265  0000                     _BAUDCONbits	set	4024
   266  001011                     STR_1:
   267  001011  25                 	db	37
   268  001012  69                 	db	105	;'i'
   269  001013  00                 	db	0
   270  001014  00                 	db	0	; dummy byte at the end
   271  0000                     
   272                           ; #config settings
   273                           
   274                           	psect	cinit
   275  002C3E                     __pcinit:
   276                           	callstack 0
   277  002C3E                     start_initialization:
   278                           	callstack 0
   279  002C3E                     __initialization:
   280                           	callstack 0
   281                           
   282                           ; Initialize objects allocated to BANK1 (10 bytes)
   283                           ; load TBLPTR registers with __pidataBANK1
   284  002C3E  0ED2               	movlw	low __pidataBANK1
   285  002C40  6EF6               	movwf	tblptrl,c
   286  002C42  0E2F               	movlw	high __pidataBANK1
   287  002C44  6EF7               	movwf	tblptrh,c
   288  002C46  0E00               	movlw	low (__pidataBANK1 shr (0+16))
   289  002C48  6EF8               	movwf	tblptru,c
   290  002C4A  EE01  F000         	lfsr	0,__pdataBANK1
   291  002C4E  EE10 F00A          	lfsr	1,10
   292  002C52                     copy_data0:
   293  002C52  0009               	tblrd		*+
   294  002C54  CFF5 FFEE          	movff	tablat,postinc0
   295  002C58  50E5               	movf	postdec1,w,c
   296  002C5A  50E1               	movf	fsr1l,w,c
   297  002C5C  E1FA               	bnz	copy_data0
   298                           
   299                           ; Initialize objects allocated to BANK0 (22 bytes)
   300                           ; load TBLPTR registers with __pidataBANK0
   301  002C5E  0E92               	movlw	low __pidataBANK0
   302  002C60  6EF6               	movwf	tblptrl,c
   303  002C62  0E2F               	movlw	high __pidataBANK0
   304  002C64  6EF7               	movwf	tblptrh,c
   305  002C66  0E00               	movlw	low (__pidataBANK0 shr (0+16))
   306  002C68  6EF8               	movwf	tblptru,c
   307  002C6A  EE00  F0E3         	lfsr	0,__pdataBANK0
   308  002C6E  EE10 F016          	lfsr	1,22
   309  002C72                     copy_data1:
   310  002C72  0009               	tblrd		*+
   311  002C74  CFF5 FFEE          	movff	tablat,postinc0
   312  002C78  50E5               	movf	postdec1,w,c
   313  002C7A  50E1               	movf	fsr1l,w,c
   314  002C7C  E1FA               	bnz	copy_data1
   315                           
   316                           ; Initialize objects allocated to COMRAM (9 bytes)
   317                           ; load TBLPTR registers with __pidataCOMRAM
   318  002C7E  0EDC               	movlw	low __pidataCOMRAM
   319  002C80  6EF6               	movwf	tblptrl,c
   320  002C82  0E2F               	movlw	high __pidataCOMRAM
   321  002C84  6EF7               	movwf	tblptrh,c
   322  002C86  0E00               	movlw	low (__pidataCOMRAM shr (0+16))
   323  002C88  6EF8               	movwf	tblptru,c
   324  002C8A  EE00  F073         	lfsr	0,__pdataCOMRAM
   325  002C8E  EE10 F009          	lfsr	1,9
   326  002C92                     copy_data2:
   327  002C92  0009               	tblrd		*+
   328  002C94  CFF5 FFEE          	movff	tablat,postinc0
   329  002C98  50E5               	movf	postdec1,w,c
   330  002C9A  50E1               	movf	fsr1l,w,c
   331  002C9C  E1FA               	bnz	copy_data2
   332                           
   333                           ; Clear objects allocated to BANK0 (99 bytes)
   334  002C9E  EE00  F080         	lfsr	0,__pbssBANK0
   335  002CA2  0E63               	movlw	99
   336  002CA4                     clear_0:
   337  002CA4  6AEE               	clrf	postinc0,c
   338  002CA6  06E8               	decf	wreg,f,c
   339  002CA8  E1FD               	bnz	clear_0
   340                           
   341                           ; Clear objects allocated to COMRAM (9 bytes)
   342  002CAA  EE00  F06A         	lfsr	0,__pbssCOMRAM
   343  002CAE  0E09               	movlw	9
   344  002CB0                     clear_1:
   345  002CB0  6AEE               	clrf	postinc0,c
   346  002CB2  06E8               	decf	wreg,f,c
   347  002CB4  E1FD               	bnz	clear_1
   348  002CB6                     end_of_initialization:
   349                           	callstack 0
   350  002CB6                     __end_of__initialization:
   351                           	callstack 0
   352  002CB6  907C               	bcf	int$flags,0,c	;clear compiler interrupt flag (level 1)
   353  002CB8  927C               	bcf	int$flags,1,c	;clear compiler interrupt flag (level 2)
   354  002CBA  0100               	movlb	0
   355  002CBC  EFD7  F016         	goto	_main	;jump to C main() function
   356                           
   357                           	psect	bssCOMRAM
   358  00006A                     __pbssCOMRAM:
   359                           	callstack 0
   360  00006A                     _timer1_preload:
   361                           	callstack 0
   362  00006A                     	ds	2
   363  00006C                     relay_turn_off@F3017:
   364                           	callstack 0
   365  00006C                     	ds	1
   366  00006D                     relay_turn_on@F3012:
   367                           	callstack 0
   368  00006D                     	ds	1
   369  00006E                     relay_initialize@F3007:
   370                           	callstack 0
   371  00006E                     	ds	1
   372  00006F                     led_turn_toggle@F3028:
   373                           	callstack 0
   374  00006F                     	ds	1
   375  000070                     led_turn_off@F3023:
   376                           	callstack 0
   377  000070                     	ds	1
   378  000071                     led_turn_on@F3018:
   379                           	callstack 0
   380  000071                     	ds	1
   381  000072                     led_initialize@F3013:
   382                           	callstack 0
   383  000072                     	ds	1
   384                           
   385                           	psect	dataCOMRAM
   386  000073                     __pdataCOMRAM:
   387                           	callstack 0
   388  000073                     MSSP_SPI_Slave_Mode_GPIO_PIN_Configurations@F3066:
   389                           	callstack 0
   390  000073                     	ds	1
   391  000074                     MSSP_SPI_Slave_Mode_GPIO_PIN_Configurations@F3064:
   392                           	callstack 0
   393  000074                     	ds	1
   394  000075                     MSSP_SPI_Msster_Mode_GPIO_PIN_Configurations@F3059:
   395                           	callstack 0
   396  000075                     	ds	1
   397  000076                     MSSP_SPI_Msster_Mode_GPIO_PIN_Configurations@F3057:
   398                           	callstack 0
   399  000076                     	ds	1
   400  000077                     MSSP_SPI_Msster_Mode_GPIO_PIN_Configurations@F3055:
   401                           	callstack 0
   402  000077                     	ds	1
   403  000078                     _RB7_Flag:
   404                           	callstack 0
   405  000078                     	ds	1
   406  000079                     _RB6_Flag:
   407                           	callstack 0
   408  000079                     	ds	1
   409  00007A                     _RB5_Flag:
   410                           	callstack 0
   411  00007A                     	ds	1
   412  00007B                     _RB4_Flag:
   413                           	callstack 0
   414  00007B                     	ds	1
   415                           
   416                           	psect	bssBANK0
   417  000080                     __pbssBANK0:
   418                           	callstack 0
   419  000080                     	ds	6
   420  000086                     _Freq:
   421                           	callstack 0
   422  000086                     	ds	4
   423  00008A                     _Total_Period_MicroSecond:
   424                           	callstack 0
   425  00008A                     	ds	4
   426  00008E                     _Timer3_OverFlow:
   427                           	callstack 0
   428  00008E                     	ds	4
   429  000092                     _Second_Copture:
   430                           	callstack 0
   431  000092                     	ds	2
   432  000094                     _EUSART_OverrunErrorHandler:
   433                           	callstack 0
   434  000094                     	ds	2
   435  000096                     _EUSART_FramingErrorHandler:
   436                           	callstack 0
   437  000096                     	ds	2
   438  000098                     _EUSART_RxInterruptHandler:
   439                           	callstack 0
   440  000098                     	ds	2
   441  00009A                     _EUSART_TxInterruptHandler:
   442                           	callstack 0
   443  00009A                     	ds	2
   444  00009C                     _timer3_preload:
   445                           	callstack 0
   446  00009C                     	ds	2
   447  00009E                     _TMR3_InterruptHandler:
   448                           	callstack 0
   449  00009E                     	ds	2
   450  0000A0                     _TMR2_InterruptHandler:
   451                           	callstack 0
   452  0000A0                     	ds	2
   453  0000A2                     _TMR1_InterruptHandler:
   454                           	callstack 0
   455  0000A2                     	ds	2
   456  0000A4                     _timer0_preload:
   457                           	callstack 0
   458  0000A4                     	ds	2
   459  0000A6                     _TMR0_InterruptHandler:
   460                           	callstack 0
   461  0000A6                     	ds	2
   462  0000A8                     _RB7_InterruptHandler_LOW:
   463                           	callstack 0
   464  0000A8                     	ds	2
   465  0000AA                     _RB7_InterruptHandler_HIGH:
   466                           	callstack 0
   467  0000AA                     	ds	2
   468  0000AC                     _RB6_InterruptHandler_LOW:
   469                           	callstack 0
   470  0000AC                     	ds	2
   471  0000AE                     _RB6_InterruptHandler_HIGH:
   472                           	callstack 0
   473  0000AE                     	ds	2
   474  0000B0                     _RB5_InterruptHandler_LOW:
   475                           	callstack 0
   476  0000B0                     	ds	2
   477  0000B2                     _RB5_InterruptHandler_HIGH:
   478                           	callstack 0
   479  0000B2                     	ds	2
   480  0000B4                     _RB4_InterruptHandler_LOW:
   481                           	callstack 0
   482  0000B4                     	ds	2
   483  0000B6                     _RB4_InterruptHandler_HIGH:
   484                           	callstack 0
   485  0000B6                     	ds	2
   486  0000B8                     _INT2_InterruptHandler:
   487                           	callstack 0
   488  0000B8                     	ds	2
   489  0000BA                     _INT1_InterruptHandler:
   490                           	callstack 0
   491  0000BA                     	ds	2
   492  0000BC                     _INT0_InterruptHandler:
   493                           	callstack 0
   494  0000BC                     	ds	2
   495  0000BE                     _I2C_Report_Receive_Overflow_InterruptHandle:
   496                           	callstack 0
   497  0000BE                     	ds	2
   498  0000C0                     _I2C_DefaultInterruptHandle:
   499                           	callstack 0
   500  0000C0                     	ds	2
   501  0000C2                     _I2C_Report_Write_Collision_InterruptHandler:
   502                           	callstack 0
   503  0000C2                     	ds	2
   504  0000C4                     _CCP2_InterruptHandler:
   505                           	callstack 0
   506  0000C4                     	ds	2
   507  0000C6                     _CCP1_InterruptHandler:
   508                           	callstack 0
   509  0000C6                     	ds	2
   510  0000C8                     _ADC_InterruptHandler:
   511                           	callstack 0
   512  0000C8                     	ds	2
   513  0000CA                     _CCP1_Second_Copture_Flag:
   514                           	callstack 0
   515  0000CA                     	ds	1
   516  0000CB                     _timer2_preload:
   517                           	callstack 0
   518  0000CB                     	ds	1
   519  0000CC                     _ccp_obj:
   520                           	callstack 0
   521  0000CC                     	ds	17
   522  0000DD                     _timer3_obj:
   523                           	callstack 0
   524  0000DD                     	ds	6
   525                           
   526                           	psect	dataBANK0
   527  0000E3                     __pdataBANK0:
   528                           	callstack 0
   529  0000E3                     _lat_registers:
   530                           	callstack 0
   531  0000E3                     	ds	10
   532  0000ED                     _tris_registers:
   533                           	callstack 0
   534  0000ED                     	ds	10
   535  0000F7                     MSSP_SPI_Slave_Mode_GPIO_PIN_Configurations@F3070:
   536                           	callstack 0
   537  0000F7                     	ds	1
   538  0000F8                     MSSP_SPI_Slave_Mode_GPIO_PIN_Configurations@F3068:
   539                           	callstack 0
   540  0000F8                     	ds	1
   541                           
   542                           	psect	dataBANK1
   543  000100                     __pdataBANK1:
   544                           	callstack 0
   545  000100                     _port_registers:
   546                           	callstack 0
   547  000100                     	ds	10
   548                           
   549                           	psect	cstackBANK0
   550  0000F9                     __pcstackBANK0:
   551                           	callstack 0
   552  0000F9                     CCP_Init@_ccp_obj:
   553                           	callstack 0
   554                           
   555                           ; 2 bytes @ 0x0
   556  0000F9                     	ds	2
   557  0000FB                     CCP_Init@ret:
   558                           	callstack 0
   559                           
   560                           ; 1 bytes @ 0x2
   561  0000FB                     	ds	1
   562                           
   563                           	psect	cstackCOMRAM
   564  000001                     __pcstackCOMRAM:
   565                           	callstack 0
   566  000001                     RB4_ISR@RB4_Source:
   567                           	callstack 0
   568  000001                     RB5_ISR@RB5_Source:
   569                           	callstack 0
   570  000001                     RB6_ISR@RB6_Source:
   571                           	callstack 0
   572  000001                     RB7_ISR@RB7_Source:
   573                           	callstack 0
   574                           
   575                           ; 1 bytes @ 0x0
   576  000001                     	ds	1
   577  000002                     ??_InterruptManager:
   578                           
   579                           ; 1 bytes @ 0x1
   580  000002                     	ds	2
   581  000004                     ?___xxtofl:
   582                           	callstack 0
   583  000004                     CCP_Interrupt_Config@_ccp_obj:
   584                           	callstack 0
   585  000004                     CCP_Mode_Timer_Select@_ccp_obj:
   586                           	callstack 0
   587  000004                     gpio_pin_direction_intialize@_pin_config:
   588                           	callstack 0
   589  000004                     gpio_pin_write_logic@_pin_config:
   590                           	callstack 0
   591  000004                     Timer3_Mode_Select@_timer:
   592                           	callstack 0
   593  000004                     ___xxtofl@val:
   594                           	callstack 0
   595                           
   596                           ; 4 bytes @ 0x3
   597  000004                     	ds	2
   598  000006                     ??_gpio_pin_direction_intialize:
   599  000006                     gpio_pin_write_logic@logic:
   600                           	callstack 0
   601  000006                     Timer3_Init@_timer:
   602                           	callstack 0
   603                           
   604                           ; 2 bytes @ 0x5
   605  000006                     	ds	1
   606  000007                     ??_gpio_pin_write_logic:
   607  000007                     CCP_Capture_Mode_Config@_ccp_obj:
   608                           	callstack 0
   609  000007                     CCP_Compare_Mode_Config@_ccp_obj:
   610                           	callstack 0
   611                           
   612                           ; 2 bytes @ 0x6
   613  000007                     	ds	1
   614  000008                     ??_Timer3_Init:
   615  000008                     ??___xxtofl:
   616                           
   617                           ; 1 bytes @ 0x7
   618  000008                     	ds	1
   619  000009                     ??_CCP_Capture_Mode_Config:
   620  000009                     ??_CCP_Compare_Mode_Config:
   621                           
   622                           ; 1 bytes @ 0x8
   623  000009                     	ds	1
   624  00000A                     Timer3_Init@ret:
   625                           	callstack 0
   626                           
   627                           ; 1 bytes @ 0x9
   628  00000A                     	ds	1
   629  00000B                     CCP_Capture_Mode_Config@ret:
   630                           	callstack 0
   631  00000B                     CCP_Compare_Mode_Config@ret:
   632                           	callstack 0
   633                           
   634                           ; 1 bytes @ 0xA
   635  00000B                     	ds	1
   636  00000C                     gpio_pin_direction_intialize@ret:
   637                           	callstack 0
   638  00000C                     ___xxtofl@sign:
   639                           	callstack 0
   640                           
   641                           ; 1 bytes @ 0xB
   642  00000C                     	ds	1
   643  00000D                     gpio_pin_write_logic@ret:
   644                           	callstack 0
   645  00000D                     ___xxtofl@exp:
   646                           	callstack 0
   647                           
   648                           ; 1 bytes @ 0xC
   649  00000D                     	ds	1
   650  00000E                     gpio_pin_intialize@_pin_config:
   651                           	callstack 0
   652  00000E                     ___xxtofl@arg:
   653                           	callstack 0
   654                           
   655                           ; 4 bytes @ 0xD
   656  00000E                     	ds	2
   657  000010                     ??_gpio_pin_intialize:
   658                           
   659                           ; 1 bytes @ 0xF
   660  000010                     	ds	1
   661  000011                     gpio_pin_intialize@ret:
   662                           	callstack 0
   663                           
   664                           ; 1 bytes @ 0x10
   665  000011                     	ds	1
   666  000012                     ?___flmul:
   667                           	callstack 0
   668  000012                     ___flmul@b:
   669                           	callstack 0
   670                           
   671                           ; 4 bytes @ 0x11
   672  000012                     	ds	4
   673  000016                     ___flmul@a:
   674                           	callstack 0
   675                           
   676                           ; 4 bytes @ 0x15
   677  000016                     	ds	4
   678  00001A                     ??___flmul:
   679                           
   680                           ; 1 bytes @ 0x19
   681  00001A                     	ds	4
   682  00001E                     ___flmul@sign:
   683                           	callstack 0
   684                           
   685                           ; 1 bytes @ 0x1D
   686  00001E                     	ds	1
   687  00001F                     ___flmul@aexp:
   688                           	callstack 0
   689                           
   690                           ; 1 bytes @ 0x1E
   691  00001F                     	ds	1
   692  000020                     ___flmul@grs:
   693                           	callstack 0
   694                           
   695                           ; 4 bytes @ 0x1F
   696  000020                     	ds	4
   697  000024                     ___flmul@bexp:
   698                           	callstack 0
   699                           
   700                           ; 1 bytes @ 0x23
   701  000024                     	ds	1
   702  000025                     ___flmul@prod:
   703                           	callstack 0
   704                           
   705                           ; 4 bytes @ 0x24
   706  000025                     	ds	4
   707  000029                     ___flmul@temp:
   708                           	callstack 0
   709                           
   710                           ; 2 bytes @ 0x28
   711  000029                     	ds	2
   712  00002B                     ?___fldiv:
   713                           	callstack 0
   714  00002B                     ___fldiv@b:
   715                           	callstack 0
   716                           
   717                           ; 4 bytes @ 0x2A
   718  00002B                     	ds	4
   719  00002F                     ___fldiv@a:
   720                           	callstack 0
   721                           
   722                           ; 4 bytes @ 0x2E
   723  00002F                     	ds	4
   724  000033                     ??___fldiv:
   725                           
   726                           ; 1 bytes @ 0x32
   727  000033                     	ds	4
   728  000037                     ___fldiv@rem:
   729                           	callstack 0
   730                           
   731                           ; 4 bytes @ 0x36
   732  000037                     	ds	4
   733  00003B                     ___fldiv@sign:
   734                           	callstack 0
   735                           
   736                           ; 1 bytes @ 0x3A
   737  00003B                     	ds	1
   738  00003C                     ___fldiv@new_exp:
   739                           	callstack 0
   740                           
   741                           ; 2 bytes @ 0x3B
   742  00003C                     	ds	2
   743  00003E                     ___fldiv@grs:
   744                           	callstack 0
   745                           
   746                           ; 4 bytes @ 0x3D
   747  00003E                     	ds	4
   748  000042                     ___fldiv@bexp:
   749                           	callstack 0
   750                           
   751                           ; 1 bytes @ 0x41
   752  000042                     	ds	1
   753  000043                     ___fldiv@aexp:
   754                           	callstack 0
   755                           
   756                           ; 1 bytes @ 0x42
   757  000043                     	ds	1
   758  000044                     ?___fladd:
   759                           	callstack 0
   760  000044                     ___fladd@b:
   761                           	callstack 0
   762                           
   763                           ; 4 bytes @ 0x43
   764  000044                     	ds	4
   765  000048                     ___fladd@a:
   766                           	callstack 0
   767                           
   768                           ; 4 bytes @ 0x47
   769  000048                     	ds	4
   770  00004C                     ??___fladd:
   771                           
   772                           ; 1 bytes @ 0x4B
   773  00004C                     	ds	4
   774  000050                     ___fladd@signs:
   775                           	callstack 0
   776                           
   777                           ; 1 bytes @ 0x4F
   778  000050                     	ds	1
   779  000051                     ___fladd@aexp:
   780                           	callstack 0
   781                           
   782                           ; 1 bytes @ 0x50
   783  000051                     	ds	1
   784  000052                     ___fladd@bexp:
   785                           	callstack 0
   786                           
   787                           ; 1 bytes @ 0x51
   788  000052                     	ds	1
   789  000053                     ___fladd@grs:
   790                           	callstack 0
   791                           
   792                           ; 1 bytes @ 0x52
   793  000053                     	ds	1
   794  000054                     ?___fltol:
   795                           	callstack 0
   796  000054                     ___fltol@f1:
   797                           	callstack 0
   798                           
   799                           ; 4 bytes @ 0x53
   800  000054                     	ds	4
   801  000058                     ??___fltol:
   802                           
   803                           ; 1 bytes @ 0x57
   804  000058                     	ds	4
   805  00005C                     ___fltol@sign1:
   806                           	callstack 0
   807                           
   808                           ; 1 bytes @ 0x5B
   809  00005C                     	ds	1
   810  00005D                     ___fltol@exp1:
   811                           	callstack 0
   812                           
   813                           ; 1 bytes @ 0x5C
   814  00005D                     	ds	1
   815  00005E                     CCP_PWM_Mode_Config@_ccp_obj:
   816                           	callstack 0
   817                           
   818                           ; 2 bytes @ 0x5D
   819  00005E                     	ds	2
   820  000060                     ??_CCP_PWM_Mode_Config:
   821                           
   822                           ; 1 bytes @ 0x5F
   823  000060                     	ds	1
   824  000061                     _CCP_PWM_Mode_Config$5409:
   825                           	callstack 0
   826                           
   827                           ; 4 bytes @ 0x60
   828  000061                     	ds	4
   829  000065                     _CCP_PWM_Mode_Config$5410:
   830                           	callstack 0
   831                           
   832                           ; 4 bytes @ 0x64
   833  000065                     	ds	4
   834  000069                     
   835                           ; 1 bytes @ 0x68
   836  000069                     	ds	1
   837  00006A                     
   838                           ; 1 bytes @ 0x69
   839 ;;
   840 ;;Main: autosize = 0, tempsize = 0, incstack = 0, save=0
   841 ;;
   842 ;; *************** function _main *****************
   843 ;; Defined at:
   844 ;;		line 28 in file "application.c"
   845 ;; Parameters:    Size  Location     Type
   846 ;;		None
   847 ;; Auto vars:     Size  Location     Type
   848 ;;  ret             1    0        unsigned char 
   849 ;; Return value:  Size  Location     Type
   850 ;;                  2  1724[None  ] int 
   851 ;; Registers used:
   852 ;;		wreg, fsr2l, fsr2h, status,2, status,0, prodl, prodh, cstack
   853 ;; Tracked objects:
   854 ;;		On entry : 0/0
   855 ;;		On exit  : 0/0
   856 ;;		Unchanged: 0/0
   857 ;; Data sizes:     COMRAM   BANK0   BANK1   BANK2   BANK3   BANK4   BANK5   BANK6   BANK7   BANK8   BANK9  BANK10  BANK1
      +1  BANK12  BANK13  BANK14  BANK15
   858 ;;      Params:         0       0       0       0       0       0       0       0       0       0       0       0       
      +0       0       0       0       0
   859 ;;      Locals:         0       0       0       0       0       0       0       0       0       0       0       0       
      +0       0       0       0       0
   860 ;;      Temps:          0       0       0       0       0       0       0       0       0       0       0       0       
      +0       0       0       0       0
   861 ;;      Totals:         0       0       0       0       0       0       0       0       0       0       0       0       
      +0       0       0       0       0
   862 ;;Total ram usage:        0 bytes
   863 ;; Hardware stack levels required when called: 6
   864 ;; This function calls:
   865 ;;		_CCP_Init
   866 ;;		_Timer3_Init
   867 ;;		_application_intialize
   868 ;; This function is called by:
   869 ;;		Startup code after reset
   870 ;; This function uses a non-reentrant model
   871 ;;
   872                           
   873                           	psect	text0
   874  002DAE                     __ptext0:
   875                           	callstack 0
   876  002DAE                     _main:
   877                           	callstack 25
   878  002DAE                     
   879                           ;application.c: 31:     application_intialize();
   880  002DAE  ECF7  F017         	call	_application_intialize	;wreg free
   881  002DB2                     
   882                           ;application.c: 33:     ccp_obj.CCP1_InterruptHandler = CCP1_DefaultInterruptHandler;
   883  002DB2  0E1A               	movlw	low _CCP1_DefaultInterruptHandler
   884  002DB4  0100               	movlb	0	; () banked
   885  002DB6  6FD7               	movwf	(_ccp_obj+11)& (0+255),b
   886  002DB8  0E30               	movlw	high _CCP1_DefaultInterruptHandler
   887  002DBA  6FD8               	movwf	(_ccp_obj+12)& (0+255),b
   888  002DBC                     
   889                           ; BSR set to: 0
   890                           ;application.c: 34:     ccp_obj.ccp_inst = CCP1_INST;
   891  002DBC  0E00               	movlw	0
   892  002DBE  6FCC               	movwf	_ccp_obj& (0+255),b
   893  002DC0                     
   894                           ; BSR set to: 0
   895                           ;application.c: 35:     ccp_obj.ccp_mode = CCP_CAPTURE_MODE_SELECTED;
   896  002DC0  0E00               	movlw	0
   897  002DC2  6FCD               	movwf	(_ccp_obj+1)& (0+255),b
   898  002DC4                     
   899                           ; BSR set to: 0
   900                           ;application.c: 36:     ccp_obj.ccp_mode_variant = ((uint8)0x05);
   901  002DC4  0E05               	movlw	5
   902  002DC6  6FCE               	movwf	(_ccp_obj+2)& (0+255),b
   903  002DC8                     
   904                           ; BSR set to: 0
   905                           ;application.c: 37:     ccp_obj.ccp_capture_timer = CCP1_CCP2_TIMER3;
   906  002DC8  0E00               	movlw	0
   907  002DCA  6FD0               	movwf	(_ccp_obj+4)& (0+255),b
   908  002DCC                     
   909                           ; BSR set to: 0
   910                           ;application.c: 38:     ccp_obj.ccp_pin.port = PORTC_INDEX;
   911  002DCC  51CF               	movf	(_ccp_obj+3)& (0+255),w,b
   912  002DCE  0BF8               	andlw	-8
   913  002DD0  0902               	iorlw	2
   914  002DD2  6FCF               	movwf	(_ccp_obj+3)& (0+255),b
   915  002DD4                     
   916                           ; BSR set to: 0
   917                           ;application.c: 39:     ccp_obj.ccp_pin.pin = GPIO_PIN2;
   918  002DD4  51CF               	movf	(_ccp_obj+3)& (0+255),w,b
   919  002DD6  0BC7               	andlw	-57
   920  002DD8  0910               	iorlw	16
   921  002DDA  6FCF               	movwf	(_ccp_obj+3)& (0+255),b
   922  002DDC                     
   923                           ; BSR set to: 0
   924                           ;application.c: 40:     ccp_obj.ccp_pin.direction = GPIO_DIRECTION_INPUT;
   925  002DDC  8DCF               	bsf	(_ccp_obj+3)& (0+255),6,b
   926  002DDE                     
   927                           ; BSR set to: 0
   928  002DDE  0ECC               	movlw	low _ccp_obj
   929  002DE0  6FF9               	movwf	CCP_Init@_ccp_obj& (0+255),b
   930  002DE2  0E00               	movlw	high _ccp_obj
   931  002DE4  6FFA               	movwf	(CCP_Init@_ccp_obj+1)& (0+255),b
   932  002DE6  EC70  F013         	call	_CCP_Init	;wreg free
   933  002DEA                     
   934                           ;application.c: 43:     timer3_obj.TMR3_InterruptHandler = Timer3_DefaultInterruptHandle
      +                          r;
   935  002DEA  0EA8               	movlw	low _Timer3_DefaultInterruptHandler
   936  002DEC  0100               	movlb	0	; () banked
   937  002DEE  6FDD               	movwf	_timer3_obj& (0+255),b
   938  002DF0  0E2F               	movlw	high _Timer3_DefaultInterruptHandler
   939  002DF2  6FDE               	movwf	(_timer3_obj+1)& (0+255),b
   940  002DF4                     
   941                           ; BSR set to: 0
   942                           ;application.c: 44:     timer3_obj.timer3_mode = 0;
   943  002DF4  95E2               	bcf	(_timer3_obj+5)& (0+255),2,b
   944  002DF6                     
   945                           ; BSR set to: 0
   946                           ;application.c: 45:     timer3_obj.priority = INTERRUPT_LOW_PRIORITY;
   947  002DF6  0E00               	movlw	0
   948  002DF8  6FDF               	movwf	(_timer3_obj+2)& (0+255),b
   949  002DFA                     
   950                           ; BSR set to: 0
   951                           ;application.c: 46:     timer3_obj.timer3_prescaler_value = 0;
   952  002DFA  0EFC               	movlw	-4
   953  002DFC  17E2               	andwf	(_timer3_obj+5)& (0+255),f,b
   954  002DFE                     
   955                           ; BSR set to: 0
   956                           ;application.c: 47:     timer3_obj.timer3_preload_value = 0;
   957  002DFE  0E00               	movlw	0
   958  002E00  6FE1               	movwf	(_timer3_obj+4)& (0+255),b
   959  002E02  0E00               	movlw	0
   960  002E04  6FE0               	movwf	(_timer3_obj+3)& (0+255),b
   961  002E06                     
   962                           ; BSR set to: 0
   963                           ;application.c: 48:     timer3_obj.timer3_reg_wr_mode = 0;
   964  002E06  99E2               	bcf	(_timer3_obj+5)& (0+255),4,b
   965  002E08                     
   966                           ; BSR set to: 0
   967  002E08  0EDD               	movlw	low _timer3_obj
   968  002E0A  6E06               	movwf	Timer3_Init@_timer^0,c
   969  002E0C  0E00               	movlw	high _timer3_obj
   970  002E0E  6E07               	movwf	(Timer3_Init@_timer+1)^0,c
   971  002E10  ECCA  F015         	call	_Timer3_Init	;wreg free
   972  002E14                     l1725:
   973  002E14  EF0A  F017         	goto	l1725
   974  002E18  EF07  F000         	goto	start
   975  002E1C                     __end_of_main:
   976                           	callstack 0
   977                           
   978 ;; *************** function _application_intialize *****************
   979 ;; Defined at:
   980 ;;		line 57 in file "application.c"
   981 ;; Parameters:    Size  Location     Type
   982 ;;		None
   983 ;; Auto vars:     Size  Location     Type
   984 ;;  ret             1    0        unsigned char 
   985 ;; Return value:  Size  Location     Type
   986 ;;                  1    wreg      void 
   987 ;; Registers used:
   988 ;;		wreg, status,2, cstack
   989 ;; Tracked objects:
   990 ;;		On entry : 0/0
   991 ;;		On exit  : 0/0
   992 ;;		Unchanged: 0/0
   993 ;; Data sizes:     COMRAM   BANK0   BANK1   BANK2   BANK3   BANK4   BANK5   BANK6   BANK7   BANK8   BANK9  BANK10  BANK1
      +1  BANK12  BANK13  BANK14  BANK15
   994 ;;      Params:         0       0       0       0       0       0       0       0       0       0       0       0       
      +0       0       0       0       0
   995 ;;      Locals:         0       0       0       0       0       0       0       0       0       0       0       0       
      +0       0       0       0       0
   996 ;;      Temps:          0       0       0       0       0       0       0       0       0       0       0       0       
      +0       0       0       0       0
   997 ;;      Totals:         0       0       0       0       0       0       0       0       0       0       0       0       
      +0       0       0       0       0
   998 ;;Total ram usage:        0 bytes
   999 ;; Hardware stack levels used: 1
  1000 ;; Hardware stack levels required when called: 4
  1001 ;; This function calls:
  1002 ;;		_ecu_layer_intialize
  1003 ;; This function is called by:
  1004 ;;		_main
  1005 ;; This function uses a non-reentrant model
  1006 ;;
  1007                           
  1008                           	psect	text1
  1009  002FEE                     __ptext1:
  1010                           	callstack 0
  1011  002FEE                     _application_intialize:
  1012                           	callstack 26
  1013  002FEE                     
  1014                           ;application.c: 59:     ecu_layer_intialize();
  1015  002FEE  EC0A  F018         	call	_ecu_layer_intialize	;wreg free
  1016  002FF2  0012               	return		;funcret
  1017  002FF4                     __end_of_application_intialize:
  1018                           	callstack 0
  1019                           
  1020 ;; *************** function _ecu_layer_intialize *****************
  1021 ;; Defined at:
  1022 ;;		line 10 in file "ECU_Layer/ecu_layer_init.c"
  1023 ;; Parameters:    Size  Location     Type
  1024 ;;		None
  1025 ;; Auto vars:     Size  Location     Type
  1026 ;;  ret             1    0        unsigned char 
  1027 ;; Return value:  Size  Location     Type
  1028 ;;                  1    wreg      void 
  1029 ;; Registers used:
  1030 ;;		wreg, status,2
  1031 ;; Tracked objects:
  1032 ;;		On entry : 0/0
  1033 ;;		On exit  : 0/0
  1034 ;;		Unchanged: 0/0
  1035 ;; Data sizes:     COMRAM   BANK0   BANK1   BANK2   BANK3   BANK4   BANK5   BANK6   BANK7   BANK8   BANK9  BANK10  BANK1
      +1  BANK12  BANK13  BANK14  BANK15
  1036 ;;      Params:         0       0       0       0       0       0       0       0       0       0       0       0       
      +0       0       0       0       0
  1037 ;;      Locals:         0       0       0       0       0       0       0       0       0       0       0       0       
      +0       0       0       0       0
  1038 ;;      Temps:          0       0       0       0       0       0       0       0       0       0       0       0       
      +0       0       0       0       0
  1039 ;;      Totals:         0       0       0       0       0       0       0       0       0       0       0       0       
      +0       0       0       0       0
  1040 ;;Total ram usage:        0 bytes
  1041 ;; Hardware stack levels used: 1
  1042 ;; Hardware stack levels required when called: 3
  1043 ;; This function calls:
  1044 ;;		Nothing
  1045 ;; This function is called by:
  1046 ;;		_application_intialize
  1047 ;; This function uses a non-reentrant model
  1048 ;;
  1049                           
  1050                           	psect	text2
  1051  003014                     __ptext2:
  1052                           	callstack 0
  1053  003014                     _ecu_layer_intialize:
  1054                           	callstack 26
  1055  003014  0012               	return		;funcret
  1056  003016                     __end_of_ecu_layer_intialize:
  1057                           	callstack 0
  1058                           
  1059 ;; *************** function _Timer3_Init *****************
  1060 ;; Defined at:
  1061 ;;		line 17 in file "MCAL_Layer/Timer3/hal_timr3.c"
  1062 ;; Parameters:    Size  Location     Type
  1063 ;;  _timer          2    5[COMRAM] PTR const struct .
  1064 ;;		 -> timer3_obj(6), 
  1065 ;; Auto vars:     Size  Location     Type
  1066 ;;  ret             1    9[COMRAM] unsigned char 
  1067 ;; Return value:  Size  Location     Type
  1068 ;;                  1    wreg      unsigned char 
  1069 ;; Registers used:
  1070 ;;		wreg, fsr2l, fsr2h, status,2, status,0, cstack
  1071 ;; Tracked objects:
  1072 ;;		On entry : 0/0
  1073 ;;		On exit  : 0/0
  1074 ;;		Unchanged: 0/0
  1075 ;; Data sizes:     COMRAM   BANK0   BANK1   BANK2   BANK3   BANK4   BANK5   BANK6   BANK7   BANK8   BANK9  BANK10  BANK1
      +1  BANK12  BANK13  BANK14  BANK15
  1076 ;;      Params:         2       0       0       0       0       0       0       0       0       0       0       0       
      +0       0       0       0       0
  1077 ;;      Locals:         1       0       0       0       0       0       0       0       0       0       0       0       
      +0       0       0       0       0
  1078 ;;      Temps:          2       0       0       0       0       0       0       0       0       0       0       0       
      +0       0       0       0       0
  1079 ;;      Totals:         5       0       0       0       0       0       0       0       0       0       0       0       
      +0       0       0       0       0
  1080 ;;Total ram usage:        5 bytes
  1081 ;; Hardware stack levels used: 1
  1082 ;; Hardware stack levels required when called: 4
  1083 ;; This function calls:
  1084 ;;		_Timer3_Mode_Select
  1085 ;; This function is called by:
  1086 ;;		_main
  1087 ;; This function uses a non-reentrant model
  1088 ;;
  1089                           
  1090                           	psect	text3
  1091  002B94                     __ptext3:
  1092                           	callstack 0
  1093  002B94                     _Timer3_Init:
  1094                           	callstack 26
  1095  002B94                     
  1096                           ;MCAL_Layer/Timer3/hal_timr3.c: 19:     if(((void*)0) == _timer){
  1097  002B94  5006               	movf	Timer3_Init@_timer^0,w,c
  1098  002B96  1007               	iorwf	(Timer3_Init@_timer+1)^0,w,c
  1099  002B98  A4D8               	btfss	status,2,c
  1100  002B9A  EFD1  F015         	goto	u5941
  1101  002B9E  EFD3  F015         	goto	u5940
  1102  002BA2                     u5941:
  1103  002BA2  EFD7  F015         	goto	l1528
  1104  002BA6                     u5940:
  1105  002BA6                     
  1106                           ;MCAL_Layer/Timer3/hal_timr3.c: 20:         ret = (Std_ReturnType)0x00;
  1107  002BA6  0E00               	movlw	0
  1108  002BA8  6E0A               	movwf	Timer3_Init@ret^0,c
  1109                           
  1110                           ;MCAL_Layer/Timer3/hal_timr3.c: 21:     }
  1111  002BAA  EF1D  F016         	goto	l6900
  1112  002BAE                     l1528:
  1113                           
  1114                           ;MCAL_Layer/Timer3/hal_timr3.c: 23:         (T3CONbits.TMR3ON = 0);
  1115  002BAE  90B1               	bcf	177,0,c	;volatile
  1116  002BB0                     
  1117                           ;MCAL_Layer/Timer3/hal_timr3.c: 24:         (T3CONbits.T3CKPS = _timer->timer3_prescaler
      +                          _value);
  1118  002BB0  EE20 F005          	lfsr	2,5
  1119  002BB4  5006               	movf	Timer3_Init@_timer^0,w,c
  1120  002BB6  26D9               	addwf	fsr2l,f,c
  1121  002BB8  5007               	movf	(Timer3_Init@_timer+1)^0,w,c
  1122  002BBA  22DA               	addwfc	fsr2h,f,c
  1123  002BBC  50DF               	movf	223,w,c
  1124  002BBE  0B03               	andlw	3
  1125  002BC0  6E08               	movwf	??_Timer3_Init^0,c
  1126  002BC2  3A08               	swapf	??_Timer3_Init^0,f,c
  1127  002BC4  50B1               	movf	177,w,c	;volatile
  1128  002BC6  1808               	xorwf	??_Timer3_Init^0,w,c
  1129  002BC8  0BCF               	andlw	-49
  1130  002BCA  1808               	xorwf	??_Timer3_Init^0,w,c
  1131  002BCC  6EB1               	movwf	177,c	;volatile
  1132  002BCE                     
  1133                           ;MCAL_Layer/Timer3/hal_timr3.c: 25:         Timer3_Mode_Select(_timer);
  1134  002BCE  C006  F004         	movff	Timer3_Init@_timer,Timer3_Mode_Select@_timer
  1135  002BD2  C007  F005         	movff	Timer3_Init@_timer+1,Timer3_Mode_Select@_timer+1
  1136  002BD6  EC60  F016         	call	_Timer3_Mode_Select	;wreg free
  1137  002BDA                     
  1138                           ;MCAL_Layer/Timer3/hal_timr3.c: 26:         TMR3H = (_timer->timer3_preload_value) >> 8;
  1139  002BDA  EE20 F003          	lfsr	2,3
  1140  002BDE  5006               	movf	Timer3_Init@_timer^0,w,c
  1141  002BE0  26D9               	addwf	fsr2l,f,c
  1142  002BE2  5007               	movf	(Timer3_Init@_timer+1)^0,w,c
  1143  002BE4  22DA               	addwfc	fsr2h,f,c
  1144  002BE6  CFDE F008          	movff	postinc2,??_Timer3_Init
  1145  002BEA  CFDD F009          	movff	postdec2,??_Timer3_Init+1
  1146  002BEE  C009  F008         	movff	??_Timer3_Init+1,??_Timer3_Init
  1147  002BF2  6A09               	clrf	(??_Timer3_Init+1)^0,c
  1148  002BF4  5008               	movf	??_Timer3_Init^0,w,c
  1149  002BF6  6EB3               	movwf	179,c	;volatile
  1150  002BF8                     
  1151                           ;MCAL_Layer/Timer3/hal_timr3.c: 27:         TMR3L = (uint8)(_timer->timer3_preload_value
      +                          );
  1152  002BF8  EE20 F003          	lfsr	2,3
  1153  002BFC  5006               	movf	Timer3_Init@_timer^0,w,c
  1154  002BFE  26D9               	addwf	fsr2l,f,c
  1155  002C00  5007               	movf	(Timer3_Init@_timer+1)^0,w,c
  1156  002C02  22DA               	addwfc	fsr2h,f,c
  1157  002C04  50DF               	movf	indf2,w,c
  1158  002C06  6EB2               	movwf	178,c	;volatile
  1159  002C08                     
  1160                           ;MCAL_Layer/Timer3/hal_timr3.c: 28:         timer3_preload = _timer->timer3_preload_valu
      +                          e;
  1161  002C08  EE20 F003          	lfsr	2,3
  1162  002C0C  5006               	movf	Timer3_Init@_timer^0,w,c
  1163  002C0E  26D9               	addwf	fsr2l,f,c
  1164  002C10  5007               	movf	(Timer3_Init@_timer+1)^0,w,c
  1165  002C12  22DA               	addwfc	fsr2h,f,c
  1166  002C14  CFDE F09C          	movff	postinc2,_timer3_preload
  1167  002C18  CFDD F09D          	movff	postdec2,_timer3_preload+1
  1168  002C1C                     
  1169                           ;MCAL_Layer/Timer3/hal_timr3.c: 31:         (PIE2bits.TMR3IE = 1);
  1170  002C1C  82A0               	bsf	160,1,c	;volatile
  1171  002C1E                     
  1172                           ;MCAL_Layer/Timer3/hal_timr3.c: 32:         (PIR2bits.TMR3IF = 0);
  1173  002C1E  92A1               	bcf	161,1,c	;volatile
  1174  002C20                     
  1175                           ;MCAL_Layer/Timer3/hal_timr3.c: 33:         TMR3_InterruptHandler = _timer->TMR3_Interru
      +                          ptHandler;
  1176  002C20  C006  FFD9         	movff	Timer3_Init@_timer,fsr2l
  1177  002C24  C007  FFDA         	movff	Timer3_Init@_timer+1,fsr2h
  1178  002C28  CFDE F09E          	movff	postinc2,_TMR3_InterruptHandler
  1179  002C2C  CFDD F09F          	movff	postdec2,_TMR3_InterruptHandler+1
  1180  002C30                     
  1181                           ;MCAL_Layer/Timer3/hal_timr3.c: 49:         (INTCONbits.GIE = 1);
  1182  002C30  8EF2               	bsf	242,7,c	;volatile
  1183  002C32                     
  1184                           ;MCAL_Layer/Timer3/hal_timr3.c: 50:         (INTCONbits.PEIE = 1);
  1185  002C32  8CF2               	bsf	242,6,c	;volatile
  1186  002C34                     
  1187                           ;MCAL_Layer/Timer3/hal_timr3.c: 53:         (T3CONbits.TMR3ON = 1);
  1188  002C34  80B1               	bsf	177,0,c	;volatile
  1189  002C36                     
  1190                           ;MCAL_Layer/Timer3/hal_timr3.c: 54:         ret = (Std_ReturnType)0x01;
  1191  002C36  0E01               	movlw	1
  1192  002C38  6E0A               	movwf	Timer3_Init@ret^0,c
  1193  002C3A                     l6900:
  1194                           
  1195                           ;MCAL_Layer/Timer3/hal_timr3.c: 56:     return ret;
  1196  002C3A  500A               	movf	Timer3_Init@ret^0,w,c
  1197  002C3C  0012               	return		;funcret
  1198  002C3E                     __end_of_Timer3_Init:
  1199                           	callstack 0
  1200                           
  1201 ;; *************** function _Timer3_Mode_Select *****************
  1202 ;; Defined at:
  1203 ;;		line 111 in file "MCAL_Layer/Timer3/hal_timr3.c"
  1204 ;; Parameters:    Size  Location     Type
  1205 ;;  _timer          2    3[COMRAM] PTR const struct .
  1206 ;;		 -> timer3_obj(6), 
  1207 ;; Auto vars:     Size  Location     Type
  1208 ;;		None
  1209 ;; Return value:  Size  Location     Type
  1210 ;;                  1    wreg      void 
  1211 ;; Registers used:
  1212 ;;		wreg, fsr2l, fsr2h, status,2, status,0
  1213 ;; Tracked objects:
  1214 ;;		On entry : 0/0
  1215 ;;		On exit  : 0/0
  1216 ;;		Unchanged: 0/0
  1217 ;; Data sizes:     COMRAM   BANK0   BANK1   BANK2   BANK3   BANK4   BANK5   BANK6   BANK7   BANK8   BANK9  BANK10  BANK1
      +1  BANK12  BANK13  BANK14  BANK15
  1218 ;;      Params:         2       0       0       0       0       0       0       0       0       0       0       0       
      +0       0       0       0       0
  1219 ;;      Locals:         0       0       0       0       0       0       0       0       0       0       0       0       
      +0       0       0       0       0
  1220 ;;      Temps:          0       0       0       0       0       0       0       0       0       0       0       0       
      +0       0       0       0       0
  1221 ;;      Totals:         2       0       0       0       0       0       0       0       0       0       0       0       
      +0       0       0       0       0
  1222 ;;Total ram usage:        2 bytes
  1223 ;; Hardware stack levels used: 1
  1224 ;; Hardware stack levels required when called: 3
  1225 ;; This function calls:
  1226 ;;		Nothing
  1227 ;; This function is called by:
  1228 ;;		_Timer3_Init
  1229 ;; This function uses a non-reentrant model
  1230 ;;
  1231                           
  1232                           	psect	text4
  1233  002CC0                     __ptext4:
  1234                           	callstack 0
  1235  002CC0                     _Timer3_Mode_Select:
  1236                           	callstack 26
  1237  002CC0                     
  1238                           ;MCAL_Layer/Timer3/hal_timr3.c: 112:     if(0 == _timer->timer3_mode){
  1239  002CC0  EE20 F005          	lfsr	2,5
  1240  002CC4  5004               	movf	Timer3_Mode_Select@_timer^0,w,c
  1241  002CC6  26D9               	addwf	fsr2l,f,c
  1242  002CC8  5005               	movf	(Timer3_Mode_Select@_timer+1)^0,w,c
  1243  002CCA  22DA               	addwfc	fsr2h,f,c
  1244  002CCC  B4DF               	btfsc	indf2,2,c
  1245  002CCE  EF6B  F016         	goto	u5621
  1246  002CD2  EF6D  F016         	goto	u5620
  1247  002CD6                     u5621:
  1248  002CD6  EF70  F016         	goto	l6532
  1249  002CDA                     u5620:
  1250  002CDA                     
  1251                           ;MCAL_Layer/Timer3/hal_timr3.c: 113:         (T3CONbits.TMR3CS = 0);
  1252  002CDA  92B1               	bcf	177,1,c	;volatile
  1253                           
  1254                           ;MCAL_Layer/Timer3/hal_timr3.c: 114:     }
  1255  002CDC  EF9E  F016         	goto	l1562
  1256  002CE0                     l6532:
  1257  002CE0  EE20 F005          	lfsr	2,5
  1258  002CE4  5004               	movf	Timer3_Mode_Select@_timer^0,w,c
  1259  002CE6  26D9               	addwf	fsr2l,f,c
  1260  002CE8  5005               	movf	(Timer3_Mode_Select@_timer+1)^0,w,c
  1261  002CEA  22DA               	addwfc	fsr2h,f,c
  1262  002CEC  A4DF               	btfss	indf2,2,c
  1263  002CEE  EF7B  F016         	goto	u5631
  1264  002CF2  EF7D  F016         	goto	u5630
  1265  002CF6                     u5631:
  1266  002CF6  EF9E  F016         	goto	l1562
  1267  002CFA                     u5630:
  1268  002CFA                     
  1269                           ;MCAL_Layer/Timer3/hal_timr3.c: 116:         (T3CONbits.TMR3CS = 1);
  1270  002CFA  82B1               	bsf	177,1,c	;volatile
  1271  002CFC                     
  1272                           ;MCAL_Layer/Timer3/hal_timr3.c: 117:         if(1 == _timer->timer3_counter_mode){
  1273  002CFC  EE20 F005          	lfsr	2,5
  1274  002D00  5004               	movf	Timer3_Mode_Select@_timer^0,w,c
  1275  002D02  26D9               	addwf	fsr2l,f,c
  1276  002D04  5005               	movf	(Timer3_Mode_Select@_timer+1)^0,w,c
  1277  002D06  22DA               	addwfc	fsr2h,f,c
  1278  002D08  A6DF               	btfss	indf2,3,c
  1279  002D0A  EF89  F016         	goto	u5641
  1280  002D0E  EF8B  F016         	goto	u5640
  1281  002D12                     u5641:
  1282  002D12  EF8E  F016         	goto	l6540
  1283  002D16                     u5640:
  1284  002D16                     
  1285                           ;MCAL_Layer/Timer3/hal_timr3.c: 118:             (T3CONbits.T3SYNC = 1);
  1286  002D16  84B1               	bsf	177,2,c	;volatile
  1287                           
  1288                           ;MCAL_Layer/Timer3/hal_timr3.c: 119:         }
  1289  002D18  EF9E  F016         	goto	l1562
  1290  002D1C                     l6540:
  1291  002D1C  EE20 F005          	lfsr	2,5
  1292  002D20  5004               	movf	Timer3_Mode_Select@_timer^0,w,c
  1293  002D22  26D9               	addwf	fsr2l,f,c
  1294  002D24  5005               	movf	(Timer3_Mode_Select@_timer+1)^0,w,c
  1295  002D26  22DA               	addwfc	fsr2h,f,c
  1296  002D28  B6DF               	btfsc	indf2,3,c
  1297  002D2A  EF99  F016         	goto	u5651
  1298  002D2E  EF9B  F016         	goto	u5650
  1299  002D32                     u5651:
  1300  002D32  EF9E  F016         	goto	l1561
  1301  002D36                     u5650:
  1302  002D36                     
  1303                           ;MCAL_Layer/Timer3/hal_timr3.c: 121:             (T3CONbits.T3SYNC = 0);
  1304  002D36  94B1               	bcf	177,2,c	;volatile
  1305                           
  1306                           ;MCAL_Layer/Timer3/hal_timr3.c: 122:         }
  1307  002D38  EF9E  F016         	goto	l1562
  1308  002D3C                     l1561:
  1309  002D3C                     l1562:
  1310  002D3C  0012               	return		;funcret
  1311  002D3E                     __end_of_Timer3_Mode_Select:
  1312                           	callstack 0
  1313                           
  1314 ;; *************** function _CCP_Init *****************
  1315 ;; Defined at:
  1316 ;;		line 25 in file "MCAL_Layer/CCP/hal_ccp.c"
  1317 ;; Parameters:    Size  Location     Type
  1318 ;;  _ccp_obj        2    0[BANK0 ] PTR const struct .
  1319 ;;		 -> ccp_obj(17), 
  1320 ;; Auto vars:     Size  Location     Type
  1321 ;;  ret             1    2[BANK0 ] unsigned char 
  1322 ;; Return value:  Size  Location     Type
  1323 ;;                  1    wreg      unsigned char 
  1324 ;; Registers used:
  1325 ;;		wreg, fsr2l, fsr2h, status,2, status,0, prodl, prodh, cstack
  1326 ;; Tracked objects:
  1327 ;;		On entry : 0/0
  1328 ;;		On exit  : 0/0
  1329 ;;		Unchanged: 0/0
  1330 ;; Data sizes:     COMRAM   BANK0   BANK1   BANK2   BANK3   BANK4   BANK5   BANK6   BANK7   BANK8   BANK9  BANK10  BANK1
      +1  BANK12  BANK13  BANK14  BANK15
  1331 ;;      Params:         0       2       0       0       0       0       0       0       0       0       0       0       
      +0       0       0       0       0
  1332 ;;      Locals:         0       1       0       0       0       0       0       0       0       0       0       0       
      +0       0       0       0       0
  1333 ;;      Temps:          1       0       0       0       0       0       0       0       0       0       0       0       
      +0       0       0       0       0
  1334 ;;      Totals:         1       3       0       0       0       0       0       0       0       0       0       0       
      +0       0       0       0       0
  1335 ;;Total ram usage:        4 bytes
  1336 ;; Hardware stack levels used: 1
  1337 ;; Hardware stack levels required when called: 5
  1338 ;; This function calls:
  1339 ;;		_CCP_Capture_Mode_Config
  1340 ;;		_CCP_Compare_Mode_Config
  1341 ;;		_CCP_Interrupt_Config
  1342 ;;		_CCP_PWM_Mode_Config
  1343 ;;		_gpio_pin_intialize
  1344 ;; This function is called by:
  1345 ;;		_main
  1346 ;; This function uses a non-reentrant model
  1347 ;;
  1348                           
  1349                           	psect	text5
  1350  0026E0                     __ptext5:
  1351                           	callstack 0
  1352  0026E0                     _CCP_Init:
  1353                           	callstack 25
  1354  0026E0                     
  1355                           ;MCAL_Layer/CCP/hal_ccp.c: 27:     if(((void*)0) == _ccp_obj){
  1356  0026E0  0100               	movlb	0	; () banked
  1357  0026E2  51F9               	movf	CCP_Init@_ccp_obj& (0+255),w,b
  1358  0026E4  11FA               	iorwf	(CCP_Init@_ccp_obj+1)& (0+255),w,b
  1359  0026E6  A4D8               	btfss	status,2,c
  1360  0026E8  EF78  F013         	goto	u9271
  1361  0026EC  EF7A  F013         	goto	u9270
  1362  0026F0                     u9271:
  1363  0026F0  EF7E  F013         	goto	l9398
  1364  0026F4                     u9270:
  1365  0026F4                     
  1366                           ; BSR set to: 0
  1367                           ;MCAL_Layer/CCP/hal_ccp.c: 28:         ret = (Std_ReturnType)0x00;
  1368  0026F4  0E00               	movlw	0
  1369  0026F6  6FFB               	movwf	CCP_Init@ret& (0+255),b
  1370                           
  1371                           ;MCAL_Layer/CCP/hal_ccp.c: 29:     }
  1372  0026F8  EF0F  F014         	goto	l513
  1373  0026FC                     l9398:
  1374                           
  1375                           ; BSR set to: 0
  1376                           ;MCAL_Layer/CCP/hal_ccp.c: 32:         if(CCP1_INST == _ccp_obj->ccp_inst){
  1377  0026FC  C0F9  FFD9         	movff	CCP_Init@_ccp_obj,fsr2l
  1378  002700  C0FA  FFDA         	movff	CCP_Init@_ccp_obj+1,fsr2h
  1379  002704  50DF               	movf	indf2,w,c
  1380  002706  A4D8               	btfss	status,2,c
  1381  002708  EF88  F013         	goto	u9281
  1382  00270C  EF8A  F013         	goto	u9280
  1383  002710                     u9281:
  1384  002710  EF8E  F013         	goto	l9402
  1385  002714                     u9280:
  1386  002714                     
  1387                           ; BSR set to: 0
  1388                           ;MCAL_Layer/CCP/hal_ccp.c: 33:             (CCP1CONbits.CCP1M = ((uint8)0x00));
  1389  002714  0EF0               	movlw	-16
  1390  002716  16BD               	andwf	189,f,c	;volatile
  1391                           
  1392                           ;MCAL_Layer/CCP/hal_ccp.c: 34:         }
  1393  002718  EF9C  F013         	goto	l9406
  1394  00271C                     l9402:
  1395                           
  1396                           ; BSR set to: 0
  1397  00271C  C0F9  FFD9         	movff	CCP_Init@_ccp_obj,fsr2l
  1398  002720  C0FA  FFDA         	movff	CCP_Init@_ccp_obj+1,fsr2h
  1399  002724  04DE               	decf	postinc2,w,c
  1400  002726  A4D8               	btfss	status,2,c
  1401  002728  EF98  F013         	goto	u9291
  1402  00272C  EF9A  F013         	goto	u9290
  1403  002730                     u9291:
  1404  002730  EF9C  F013         	goto	l9406
  1405  002734                     u9290:
  1406  002734                     
  1407                           ; BSR set to: 0
  1408                           ;MCAL_Layer/CCP/hal_ccp.c: 36:             (CCP2CONbits.CCP2M = ((uint8)0x00));
  1409  002734  0EF0               	movlw	-16
  1410  002736  16BA               	andwf	186,f,c	;volatile
  1411  002738                     l9406:
  1412                           
  1413                           ; BSR set to: 0
  1414                           ;MCAL_Layer/CCP/hal_ccp.c: 41:         if(CCP_CAPTURE_MODE_SELECTED == _ccp_obj->ccp_mod
      +                          e){
  1415  002738  EE20 F001          	lfsr	2,1
  1416  00273C  51F9               	movf	CCP_Init@_ccp_obj& (0+255),w,b
  1417  00273E  26D9               	addwf	fsr2l,f,c
  1418  002740  51FA               	movf	(CCP_Init@_ccp_obj+1)& (0+255),w,b
  1419  002742  22DA               	addwfc	fsr2h,f,c
  1420  002744  50DF               	movf	indf2,w,c
  1421  002746  A4D8               	btfss	status,2,c
  1422  002748  EFA8  F013         	goto	u9301
  1423  00274C  EFAA  F013         	goto	u9300
  1424  002750                     u9301:
  1425  002750  EFB2  F013         	goto	l9410
  1426  002754                     u9300:
  1427  002754                     
  1428                           ; BSR set to: 0
  1429  002754  C0F9  F007         	movff	CCP_Init@_ccp_obj,CCP_Capture_Mode_Config@_ccp_obj
  1430  002758  C0FA  F008         	movff	CCP_Init@_ccp_obj+1,CCP_Capture_Mode_Config@_ccp_obj+1
  1431  00275C  EC11  F014         	call	_CCP_Capture_Mode_Config	;wreg free
  1432                           
  1433                           ;MCAL_Layer/CCP/hal_ccp.c: 43:         }
  1434  002760  EFDF  F013         	goto	l9418
  1435  002764                     l9410:
  1436                           
  1437                           ; BSR set to: 0
  1438  002764  EE20 F001          	lfsr	2,1
  1439  002768  51F9               	movf	CCP_Init@_ccp_obj& (0+255),w,b
  1440  00276A  26D9               	addwf	fsr2l,f,c
  1441  00276C  51FA               	movf	(CCP_Init@_ccp_obj+1)& (0+255),w,b
  1442  00276E  22DA               	addwfc	fsr2h,f,c
  1443  002770  04DE               	decf	postinc2,w,c
  1444  002772  A4D8               	btfss	status,2,c
  1445  002774  EFBE  F013         	goto	u9311
  1446  002778  EFC0  F013         	goto	u9310
  1447  00277C                     u9311:
  1448  00277C  EFC8  F013         	goto	l9414
  1449  002780                     u9310:
  1450  002780                     
  1451                           ; BSR set to: 0
  1452  002780  C0F9  F007         	movff	CCP_Init@_ccp_obj,CCP_Compare_Mode_Config@_ccp_obj
  1453  002784  C0FA  F008         	movff	CCP_Init@_ccp_obj+1,CCP_Compare_Mode_Config@_ccp_obj+1
  1454  002788  EC1A  F012         	call	_CCP_Compare_Mode_Config	;wreg free
  1455                           
  1456                           ;MCAL_Layer/CCP/hal_ccp.c: 47:         }
  1457  00278C  EFDF  F013         	goto	l9418
  1458  002790                     l9414:
  1459                           
  1460                           ; BSR set to: 0
  1461  002790  EE20 F001          	lfsr	2,1
  1462  002794  51F9               	movf	CCP_Init@_ccp_obj& (0+255),w,b
  1463  002796  26D9               	addwf	fsr2l,f,c
  1464  002798  51FA               	movf	(CCP_Init@_ccp_obj+1)& (0+255),w,b
  1465  00279A  22DA               	addwfc	fsr2h,f,c
  1466  00279C  0E02               	movlw	2
  1467  00279E  18DE               	xorwf	postinc2,w,c
  1468  0027A0  A4D8               	btfss	status,2,c
  1469  0027A2  EFD5  F013         	goto	u9321
  1470  0027A6  EFD7  F013         	goto	u9320
  1471  0027AA                     u9321:
  1472  0027AA  EFDF  F013         	goto	l521
  1473  0027AE                     u9320:
  1474  0027AE                     
  1475                           ; BSR set to: 0
  1476                           ;MCAL_Layer/CCP/hal_ccp.c: 51:             CCP_PWM_Mode_Config(_ccp_obj);
  1477  0027AE  C0F9  F05E         	movff	CCP_Init@_ccp_obj,CCP_PWM_Mode_Config@_ccp_obj
  1478  0027B2  C0FA  F05F         	movff	CCP_Init@_ccp_obj+1,CCP_PWM_Mode_Config@_ccp_obj+1
  1479  0027B6  EC58  F010         	call	_CCP_PWM_Mode_Config	;wreg free
  1480                           
  1481                           ;MCAL_Layer/CCP/hal_ccp.c: 52:         }
  1482  0027BA  EFDF  F013         	goto	l9418
  1483  0027BE                     l521:
  1484  0027BE                     l9418:
  1485  0027BE  0E03               	movlw	3
  1486  0027C0  0100               	movlb	0	; () banked
  1487  0027C2  25F9               	addwf	CCP_Init@_ccp_obj& (0+255),w,b
  1488  0027C4  6E0E               	movwf	gpio_pin_intialize@_pin_config^0,c
  1489  0027C6  0E00               	movlw	0
  1490  0027C8  21FA               	addwfc	(CCP_Init@_ccp_obj+1)& (0+255),w,b
  1491  0027CA  6E0F               	movwf	(gpio_pin_intialize@_pin_config+1)^0,c
  1492  0027CC  EC0E  F017         	call	_gpio_pin_intialize	;wreg free
  1493  0027D0                     
  1494                           ;MCAL_Layer/CCP/hal_ccp.c: 59:         CCP_Interrupt_Config(_ccp_obj);
  1495  0027D0  C0F9  F004         	movff	CCP_Init@_ccp_obj,CCP_Interrupt_Config@_ccp_obj
  1496  0027D4  C0FA  F005         	movff	CCP_Init@_ccp_obj+1,CCP_Interrupt_Config@_ccp_obj+1
  1497  0027D8  EC44  F017         	call	_CCP_Interrupt_Config	;wreg free
  1498  0027DC                     
  1499                           ;MCAL_Layer/CCP/hal_ccp.c: 62:         if(CCP1_INST == _ccp_obj->ccp_inst){
  1500  0027DC  C0F9  FFD9         	movff	CCP_Init@_ccp_obj,fsr2l
  1501  0027E0  C0FA  FFDA         	movff	CCP_Init@_ccp_obj+1,fsr2h
  1502  0027E4  50DF               	movf	indf2,w,c
  1503  0027E6  A4D8               	btfss	status,2,c
  1504  0027E8  EFF8  F013         	goto	u9331
  1505  0027EC  EFFA  F013         	goto	u9330
  1506  0027F0                     u9331:
  1507  0027F0  EFFE  F013         	goto	l9426
  1508  0027F4                     u9330:
  1509  0027F4                     
  1510                           ;MCAL_Layer/CCP/hal_ccp.c: 63:             (CCP1CONbits.CCP1M = ((uint8)0x00));
  1511  0027F4  0EF0               	movlw	-16
  1512  0027F6  16BD               	andwf	189,f,c	;volatile
  1513                           
  1514                           ;MCAL_Layer/CCP/hal_ccp.c: 64:         }
  1515  0027F8  EF0C  F014         	goto	l9430
  1516  0027FC                     l9426:
  1517  0027FC  C0F9  FFD9         	movff	CCP_Init@_ccp_obj,fsr2l
  1518  002800  C0FA  FFDA         	movff	CCP_Init@_ccp_obj+1,fsr2h
  1519  002804  04DE               	decf	postinc2,w,c
  1520  002806  A4D8               	btfss	status,2,c
  1521  002808  EF08  F014         	goto	u9341
  1522  00280C  EF0A  F014         	goto	u9340
  1523  002810                     u9341:
  1524  002810  EF0C  F014         	goto	l9430
  1525  002814                     u9340:
  1526  002814                     
  1527                           ;MCAL_Layer/CCP/hal_ccp.c: 66:             (CCP2CONbits.CCP2M = ((uint8)0x00));
  1528  002814  0EF0               	movlw	-16
  1529  002816  16BA               	andwf	186,f,c	;volatile
  1530  002818                     l9430:
  1531                           
  1532                           ;MCAL_Layer/CCP/hal_ccp.c: 70:         ret = (Std_ReturnType)0x01;
  1533  002818  0E01               	movlw	1
  1534  00281A  0100               	movlb	0	; () banked
  1535  00281C  6FFB               	movwf	CCP_Init@ret& (0+255),b
  1536  00281E                     l513:
  1537                           
  1538                           ; BSR set to: 0
  1539                           ;MCAL_Layer/CCP/hal_ccp.c: 72:     return ret;
  1540  00281E  51FB               	movf	CCP_Init@ret& (0+255),w,b
  1541  002820                     
  1542                           ; BSR set to: 0
  1543  002820  0012               	return		;funcret
  1544  002822                     __end_of_CCP_Init:
  1545                           	callstack 0
  1546                           
  1547 ;; *************** function _gpio_pin_intialize *****************
  1548 ;; Defined at:
  1549 ;;		line 144 in file "MCAL_Layer/GPIO/hal_gpio.c"
  1550 ;; Parameters:    Size  Location     Type
  1551 ;;  _pin_config     2   13[COMRAM] PTR const struct .
  1552 ;;		 -> ccp_obj(17), relay_initialize@pin_obj(1), led_initialize@pin_obj(1), 
  1553 ;; Auto vars:     Size  Location     Type
  1554 ;;  ret             1   16[COMRAM] unsigned char 
  1555 ;; Return value:  Size  Location     Type
  1556 ;;                  1    wreg      unsigned char 
  1557 ;; Registers used:
  1558 ;;		wreg, fsr2l, fsr2h, status,2, status,0, prodl, prodh, cstack
  1559 ;; Tracked objects:
  1560 ;;		On entry : 0/0
  1561 ;;		On exit  : 0/0
  1562 ;;		Unchanged: 0/0
  1563 ;; Data sizes:     COMRAM   BANK0   BANK1   BANK2   BANK3   BANK4   BANK5   BANK6   BANK7   BANK8   BANK9  BANK10  BANK1
      +1  BANK12  BANK13  BANK14  BANK15
  1564 ;;      Params:         2       0       0       0       0       0       0       0       0       0       0       0       
      +0       0       0       0       0
  1565 ;;      Locals:         1       0       0       0       0       0       0       0       0       0       0       0       
      +0       0       0       0       0
  1566 ;;      Temps:          1       0       0       0       0       0       0       0       0       0       0       0       
      +0       0       0       0       0
  1567 ;;      Totals:         4       0       0       0       0       0       0       0       0       0       0       0       
      +0       0       0       0       0
  1568 ;;Total ram usage:        4 bytes
  1569 ;; Hardware stack levels used: 1
  1570 ;; Hardware stack levels required when called: 4
  1571 ;; This function calls:
  1572 ;;		_gpio_pin_direction_intialize
  1573 ;;		_gpio_pin_write_logic
  1574 ;; This function is called by:
  1575 ;;		_CCP_Init
  1576 ;;		_seven_segement_intialize
  1577 ;;		_lcd_4bit_intialize
  1578 ;;		_lcd_8bit_intialize
  1579 ;;		_dc_motor_initialize
  1580 ;;		_keypad_initialize
  1581 ;;		_led_initialize
  1582 ;;		_relay_initialize
  1583 ;;		_Ultrasonic_Init
  1584 ;; This function uses a non-reentrant model
  1585 ;;
  1586                           
  1587                           	psect	text6
  1588  002E1C                     __ptext6:
  1589                           	callstack 0
  1590  002E1C                     _gpio_pin_intialize:
  1591                           	callstack 25
  1592  002E1C                     
  1593                           ;MCAL_Layer/GPIO/hal_gpio.c: 146:     if(((void*)0) == _pin_config || _pin_config->pin >
      +                           8 -1){
  1594  002E1C  500E               	movf	gpio_pin_intialize@_pin_config^0,w,c
  1595  002E1E  100F               	iorwf	(gpio_pin_intialize@_pin_config+1)^0,w,c
  1596  002E20  B4D8               	btfsc	status,2,c
  1597  002E22  EF15  F017         	goto	u9051
  1598  002E26  EF17  F017         	goto	u9050
  1599  002E2A                     u9051:
  1600  002E2A  EF28  F017         	goto	l9106
  1601  002E2E                     u9050:
  1602  002E2E  C00E  FFD9         	movff	gpio_pin_intialize@_pin_config,fsr2l
  1603  002E32  C00F  FFDA         	movff	gpio_pin_intialize@_pin_config+1,fsr2h
  1604  002E36  30DF               	rrcf	223,w,c
  1605  002E38  32E8               	rrcf	wreg,f,c
  1606  002E3A  32E8               	rrcf	wreg,f,c
  1607  002E3C  0B07               	andlw	7
  1608  002E3E  6E10               	movwf	??_gpio_pin_intialize^0,c
  1609  002E40  0E07               	movlw	7
  1610  002E42  6410               	cpfsgt	??_gpio_pin_intialize^0,c
  1611  002E44  EF26  F017         	goto	u9061
  1612  002E48  EF28  F017         	goto	u9060
  1613  002E4C                     u9061:
  1614  002E4C  EF2C  F017         	goto	l9108
  1615  002E50                     u9060:
  1616  002E50                     l9106:
  1617                           
  1618                           ;MCAL_Layer/GPIO/hal_gpio.c: 147:         ret = (Std_ReturnType)0x00;
  1619  002E50  0E00               	movlw	0
  1620  002E52  6E11               	movwf	gpio_pin_intialize@ret^0,c
  1621                           
  1622                           ;MCAL_Layer/GPIO/hal_gpio.c: 148:     }
  1623  002E54  EF42  F017         	goto	l9110
  1624  002E58                     l9108:
  1625                           
  1626                           ;MCAL_Layer/GPIO/hal_gpio.c: 150:         ret = gpio_pin_direction_intialize(_pin_config
      +                          );
  1627  002E58  C00E  F004         	movff	gpio_pin_intialize@_pin_config,gpio_pin_direction_intialize@_pin_config
  1628  002E5C  C00F  F005         	movff	gpio_pin_intialize@_pin_config+1,gpio_pin_direction_intialize@_pin_config+1
  1629  002E60  ECCE  F012         	call	_gpio_pin_direction_intialize	;wreg free
  1630  002E64  6E11               	movwf	gpio_pin_intialize@ret^0,c
  1631                           
  1632                           ;MCAL_Layer/GPIO/hal_gpio.c: 151:         ret = gpio_pin_write_logic(_pin_config, _pin_c
      +                          onfig->logic);
  1633  002E66  C00E  F004         	movff	gpio_pin_intialize@_pin_config,gpio_pin_write_logic@_pin_config
  1634  002E6A  C00F  F005         	movff	gpio_pin_intialize@_pin_config+1,gpio_pin_write_logic@_pin_config+1
  1635  002E6E  C00E  FFD9         	movff	gpio_pin_intialize@_pin_config,fsr2l
  1636  002E72  C00F  FFDA         	movff	gpio_pin_intialize@_pin_config+1,fsr2h
  1637  002E76  0E00               	movlw	0
  1638  002E78  BEDF               	btfsc	indf2,7,c
  1639  002E7A  0E01               	movlw	1
  1640  002E7C  6E06               	movwf	gpio_pin_write_logic@logic^0,c
  1641  002E7E  ECB1  F014         	call	_gpio_pin_write_logic	;wreg free
  1642  002E82  6E11               	movwf	gpio_pin_intialize@ret^0,c
  1643  002E84                     l9110:
  1644                           
  1645                           ;MCAL_Layer/GPIO/hal_gpio.c: 153:     return ret;
  1646  002E84  5011               	movf	gpio_pin_intialize@ret^0,w,c
  1647  002E86  0012               	return		;funcret
  1648  002E88                     __end_of_gpio_pin_intialize:
  1649                           	callstack 0
  1650                           
  1651 ;; *************** function _gpio_pin_write_logic *****************
  1652 ;; Defined at:
  1653 ;;		line 75 in file "MCAL_Layer/GPIO/hal_gpio.c"
  1654 ;; Parameters:    Size  Location     Type
  1655 ;;  _pin_config     2    3[COMRAM] PTR const struct .
  1656 ;;		 -> ccp_obj(17), relay_turn_off@pin_obj(1), relay_turn_on@pin_obj(1), relay_initialize@pin_obj(1), 
  1657 ;;		 -> led_turn_off@pin_obj(1), led_turn_on@pin_obj(1), led_initialize@pin_obj(1), 
  1658 ;;  logic           1    5[COMRAM] enum E2933
  1659 ;; Auto vars:     Size  Location     Type
  1660 ;;  ret             1   12[COMRAM] unsigned char 
  1661 ;; Return value:  Size  Location     Type
  1662 ;;                  1    wreg      unsigned char 
  1663 ;; Registers used:
  1664 ;;		wreg, fsr2l, fsr2h, status,2, status,0, prodl, prodh
  1665 ;; Tracked objects:
  1666 ;;		On entry : 0/0
  1667 ;;		On exit  : 0/0
  1668 ;;		Unchanged: 0/0
  1669 ;; Data sizes:     COMRAM   BANK0   BANK1   BANK2   BANK3   BANK4   BANK5   BANK6   BANK7   BANK8   BANK9  BANK10  BANK1
      +1  BANK12  BANK13  BANK14  BANK15
  1670 ;;      Params:         3       0       0       0       0       0       0       0       0       0       0       0       
      +0       0       0       0       0
  1671 ;;      Locals:         1       0       0       0       0       0       0       0       0       0       0       0       
      +0       0       0       0       0
  1672 ;;      Temps:          6       0       0       0       0       0       0       0       0       0       0       0       
      +0       0       0       0       0
  1673 ;;      Totals:        10       0       0       0       0       0       0       0       0       0       0       0       
      +0       0       0       0       0
  1674 ;;Total ram usage:       10 bytes
  1675 ;; Hardware stack levels used: 1
  1676 ;; Hardware stack levels required when called: 3
  1677 ;; This function calls:
  1678 ;;		Nothing
  1679 ;; This function is called by:
  1680 ;;		_gpio_pin_intialize
  1681 ;;		_seven_segement_write_number
  1682 ;;		_lcd_4bit_send_command
  1683 ;;		_lcd_4bit_send_char_data
  1684 ;;		_lcd_8bit_send_command
  1685 ;;		_lcd_8bit_send_char_data
  1686 ;;		_lcd_send_4bits
  1687 ;;		_lcd_4bit_send_enable_signal
  1688 ;;		_lcd_8bit_send_enable_signal
  1689 ;;		_dc_motor_move_right
  1690 ;;		_dc_motor_move_left
  1691 ;;		_dc_motor_stop
  1692 ;;		_keypad_get_value
  1693 ;;		_led_turn_on
  1694 ;;		_led_turn_off
  1695 ;;		_relay_turn_on
  1696 ;;		_relay_turn_off
  1697 ;;		_Ultrasonic_Calculate_Distance
  1698 ;; This function uses a non-reentrant model
  1699 ;;
  1700                           
  1701                           	psect	text7
  1702  002962                     __ptext7:
  1703                           	callstack 0
  1704  002962                     _gpio_pin_write_logic:
  1705                           	callstack 25
  1706  002962                     
  1707                           ;MCAL_Layer/GPIO/hal_gpio.c: 76:     Std_ReturnType ret = (Std_ReturnType)0x01;
  1708  002962  0E01               	movlw	1
  1709  002964  6E0D               	movwf	gpio_pin_write_logic@ret^0,c
  1710  002966                     
  1711                           ;MCAL_Layer/GPIO/hal_gpio.c: 77:     if(((void*)0) == _pin_config || _pin_config->pin > 
      +                          8 -1){
  1712  002966  5004               	movf	gpio_pin_write_logic@_pin_config^0,w,c
  1713  002968  1005               	iorwf	(gpio_pin_write_logic@_pin_config+1)^0,w,c
  1714  00296A  B4D8               	btfsc	status,2,c
  1715  00296C  EFBA  F014         	goto	u7941
  1716  002970  EFBC  F014         	goto	u7940
  1717  002974                     u7941:
  1718  002974  EFCD  F014         	goto	l8486
  1719  002978                     u7940:
  1720  002978  C004  FFD9         	movff	gpio_pin_write_logic@_pin_config,fsr2l
  1721  00297C  C005  FFDA         	movff	gpio_pin_write_logic@_pin_config+1,fsr2h
  1722  002980  30DF               	rrcf	223,w,c
  1723  002982  32E8               	rrcf	wreg,f,c
  1724  002984  32E8               	rrcf	wreg,f,c
  1725  002986  0B07               	andlw	7
  1726  002988  6E07               	movwf	??_gpio_pin_write_logic^0,c
  1727  00298A  0E07               	movlw	7
  1728  00298C  6407               	cpfsgt	??_gpio_pin_write_logic^0,c
  1729  00298E  EFCB  F014         	goto	u7951
  1730  002992  EFCD  F014         	goto	u7950
  1731  002996                     u7951:
  1732  002996  EF30  F015         	goto	l8494
  1733  00299A                     u7950:
  1734  00299A                     l8486:
  1735                           
  1736                           ;MCAL_Layer/GPIO/hal_gpio.c: 78:         ret = (Std_ReturnType)0x00;
  1737  00299A  0E00               	movlw	0
  1738  00299C  6E0D               	movwf	gpio_pin_write_logic@ret^0,c
  1739                           
  1740                           ;MCAL_Layer/GPIO/hal_gpio.c: 79:     }
  1741  00299E  EF45  F015         	goto	l8496
  1742  0029A2                     l8488:
  1743                           
  1744                           ;MCAL_Layer/GPIO/hal_gpio.c: 83:                 (*lat_registers[_pin_config->port] &= ~
      +                          ((uint8)1 << _pin_config->pin));
  1745  0029A2  C004  FFD9         	movff	gpio_pin_write_logic@_pin_config,fsr2l
  1746  0029A6  C005  FFDA         	movff	gpio_pin_write_logic@_pin_config+1,fsr2h
  1747  0029AA  30DF               	rrcf	223,w,c
  1748  0029AC  32E8               	rrcf	wreg,f,c
  1749  0029AE  32E8               	rrcf	wreg,f,c
  1750  0029B0  0B07               	andlw	7
  1751  0029B2  6E07               	movwf	??_gpio_pin_write_logic^0,c
  1752  0029B4  0E01               	movlw	1
  1753  0029B6  6E08               	movwf	(??_gpio_pin_write_logic+1)^0,c
  1754  0029B8  2A07               	incf	??_gpio_pin_write_logic^0,f,c
  1755  0029BA  EFE1  F014         	goto	u7964
  1756  0029BE                     u7965:
  1757  0029BE  90D8               	bcf	status,0,c
  1758  0029C0  3608               	rlcf	(??_gpio_pin_write_logic+1)^0,f,c
  1759  0029C2                     u7964:
  1760  0029C2  2E07               	decfsz	??_gpio_pin_write_logic^0,f,c
  1761  0029C4  EFDF  F014         	goto	u7965
  1762  0029C8  5008               	movf	(??_gpio_pin_write_logic+1)^0,w,c
  1763  0029CA  0AFF               	xorlw	255
  1764  0029CC  6E09               	movwf	(??_gpio_pin_write_logic+2)^0,c
  1765  0029CE  C004  FFD9         	movff	gpio_pin_write_logic@_pin_config,fsr2l
  1766  0029D2  C005  FFDA         	movff	gpio_pin_write_logic@_pin_config+1,fsr2h
  1767  0029D6  50DF               	movf	223,w,c
  1768  0029D8  0B07               	andlw	7
  1769  0029DA  6E0A               	movwf	(??_gpio_pin_write_logic+3)^0,c
  1770  0029DC  500A               	movf	(??_gpio_pin_write_logic+3)^0,w,c
  1771  0029DE  0D02               	mullw	2
  1772  0029E0  0EE3               	movlw	low _lat_registers
  1773  0029E2  24F3               	addwf	243,w,c
  1774  0029E4  6ED9               	movwf	fsr2l,c
  1775  0029E6  0E00               	movlw	high _lat_registers
  1776  0029E8  20F4               	addwfc	prodh,w,c
  1777  0029EA  6EDA               	movwf	fsr2h,c
  1778  0029EC  CFDE F00B          	movff	postinc2,??_gpio_pin_write_logic+4
  1779  0029F0  CFDD F00C          	movff	postdec2,??_gpio_pin_write_logic+5
  1780  0029F4  C00B  FFD9         	movff	??_gpio_pin_write_logic+4,fsr2l
  1781  0029F8  C00C  FFDA         	movff	??_gpio_pin_write_logic+5,fsr2h
  1782  0029FC  5009               	movf	(??_gpio_pin_write_logic+2)^0,w,c
  1783  0029FE  16DF               	andwf	indf2,f,c
  1784                           
  1785                           ;MCAL_Layer/GPIO/hal_gpio.c: 84:                 break;
  1786  002A00  EF45  F015         	goto	l8496
  1787  002A04                     l8490:
  1788                           
  1789                           ;MCAL_Layer/GPIO/hal_gpio.c: 86:                 (*lat_registers[_pin_config->port] |= (
      +                          (uint8)1 << _pin_config->pin));
  1790  002A04  C004  FFD9         	movff	gpio_pin_write_logic@_pin_config,fsr2l
  1791  002A08  C005  FFDA         	movff	gpio_pin_write_logic@_pin_config+1,fsr2h
  1792  002A0C  30DF               	rrcf	223,w,c
  1793  002A0E  32E8               	rrcf	wreg,f,c
  1794  002A10  32E8               	rrcf	wreg,f,c
  1795  002A12  0B07               	andlw	7
  1796  002A14  6E07               	movwf	??_gpio_pin_write_logic^0,c
  1797  002A16  0E01               	movlw	1
  1798  002A18  6E08               	movwf	(??_gpio_pin_write_logic+1)^0,c
  1799  002A1A  2A07               	incf	??_gpio_pin_write_logic^0,f,c
  1800  002A1C  EF12  F015         	goto	u7974
  1801  002A20                     u7975:
  1802  002A20  90D8               	bcf	status,0,c
  1803  002A22  3608               	rlcf	(??_gpio_pin_write_logic+1)^0,f,c
  1804  002A24                     u7974:
  1805  002A24  2E07               	decfsz	??_gpio_pin_write_logic^0,f,c
  1806  002A26  EF10  F015         	goto	u7975
  1807  002A2A  C004  FFD9         	movff	gpio_pin_write_logic@_pin_config,fsr2l
  1808  002A2E  C005  FFDA         	movff	gpio_pin_write_logic@_pin_config+1,fsr2h
  1809  002A32  50DF               	movf	223,w,c
  1810  002A34  0B07               	andlw	7
  1811  002A36  6E09               	movwf	(??_gpio_pin_write_logic+2)^0,c
  1812  002A38  5009               	movf	(??_gpio_pin_write_logic+2)^0,w,c
  1813  002A3A  0D02               	mullw	2
  1814  002A3C  0EE3               	movlw	low _lat_registers
  1815  002A3E  24F3               	addwf	243,w,c
  1816  002A40  6ED9               	movwf	fsr2l,c
  1817  002A42  0E00               	movlw	high _lat_registers
  1818  002A44  20F4               	addwfc	prodh,w,c
  1819  002A46  6EDA               	movwf	fsr2h,c
  1820  002A48  CFDE F00A          	movff	postinc2,??_gpio_pin_write_logic+3
  1821  002A4C  CFDD F00B          	movff	postdec2,??_gpio_pin_write_logic+4
  1822  002A50  C00A  FFD9         	movff	??_gpio_pin_write_logic+3,fsr2l
  1823  002A54  C00B  FFDA         	movff	??_gpio_pin_write_logic+4,fsr2h
  1824  002A58  5008               	movf	(??_gpio_pin_write_logic+1)^0,w,c
  1825  002A5A  12DF               	iorwf	indf2,f,c
  1826                           
  1827                           ;MCAL_Layer/GPIO/hal_gpio.c: 87:                 break;
  1828  002A5C  EF45  F015         	goto	l8496
  1829  002A60                     l8494:
  1830  002A60  5006               	movf	gpio_pin_write_logic@logic^0,w,c
  1831  002A62  6E07               	movwf	??_gpio_pin_write_logic^0,c
  1832  002A64  6A08               	clrf	(??_gpio_pin_write_logic+1)^0,c
  1833                           
  1834                           ; Switch on 2 bytes has been partitioned into a top level switch of size 1, and 1 sub-sw
      +                          itches
  1835                           ; Switch size 1, requested type "simple"
  1836                           ; Number of cases is 1, Range of values is 0 to 0
  1837                           ; switch strategies available:
  1838                           ; Name         Instructions Cycles
  1839                           ; simple_byte            4     3 (average)
  1840                           ;	Chosen strategy is simple_byte
  1841  002A66  5008               	movf	(??_gpio_pin_write_logic+1)^0,w,c
  1842  002A68  0A00               	xorlw	0	; case 0
  1843  002A6A  B4D8               	btfsc	status,2,c
  1844  002A6C  EF3A  F015         	goto	l10342
  1845  002A70  EFCD  F014         	goto	l8486
  1846  002A74                     l10342:
  1847                           
  1848                           ; Switch size 1, requested type "simple"
  1849                           ; Number of cases is 2, Range of values is 0 to 1
  1850                           ; switch strategies available:
  1851                           ; Name         Instructions Cycles
  1852                           ; simple_byte            7     4 (average)
  1853                           ;	Chosen strategy is simple_byte
  1854  002A74  5007               	movf	??_gpio_pin_write_logic^0,w,c
  1855  002A76  0A00               	xorlw	0	; case 0
  1856  002A78  B4D8               	btfsc	status,2,c
  1857  002A7A  EFD1  F014         	goto	l8488
  1858  002A7E  0A01               	xorlw	1	; case 1
  1859  002A80  B4D8               	btfsc	status,2,c
  1860  002A82  EF02  F015         	goto	l8490
  1861  002A86  EFCD  F014         	goto	l8486
  1862  002A8A                     l8496:
  1863                           
  1864                           ;MCAL_Layer/GPIO/hal_gpio.c: 91:     return ret;
  1865  002A8A  500D               	movf	gpio_pin_write_logic@ret^0,w,c
  1866  002A8C  0012               	return		;funcret
  1867  002A8E                     __end_of_gpio_pin_write_logic:
  1868                           	callstack 0
  1869                           
  1870 ;; *************** function _gpio_pin_direction_intialize *****************
  1871 ;; Defined at:
  1872 ;;		line 25 in file "MCAL_Layer/GPIO/hal_gpio.c"
  1873 ;; Parameters:    Size  Location     Type
  1874 ;;  _pin_config     2    3[COMRAM] PTR const struct .
  1875 ;;		 -> ccp_obj(17), MSSP_SPI_Slave_Mode_GPIO_PIN_Configurations@SPI_SS(1), MSSP_SPI_Slave_Mode_GPIO_PIN_Configurations@
      +SPI_CLK(1), MSSP_SPI_Slave_Mode_GPIO_PIN_Configurations@SPI_SDI(1), 
  1876 ;;		 -> MSSP_SPI_Slave_Mode_GPIO_PIN_Configurations@SPI_SDO(1), MSSP_SPI_Msster_Mode_GPIO_PIN_Configurations@SPI_CLK(1),
      + MSSP_SPI_Msster_Mode_GPIO_PIN_Configurations@SPI_SDI(1), MSSP_SPI_Msster_Mode_GPIO_PIN_Configurations@SPI_SDO(1), 
  1877 ;;		 -> relay_initialize@pin_obj(1), led_initialize@pin_obj(1), 
  1878 ;; Auto vars:     Size  Location     Type
  1879 ;;  ret             1   11[COMRAM] unsigned char 
  1880 ;; Return value:  Size  Location     Type
  1881 ;;                  1    wreg      unsigned char 
  1882 ;; Registers used:
  1883 ;;		wreg, fsr2l, fsr2h, status,2, status,0, prodl, prodh
  1884 ;; Tracked objects:
  1885 ;;		On entry : 0/0
  1886 ;;		On exit  : 0/0
  1887 ;;		Unchanged: 0/0
  1888 ;; Data sizes:     COMRAM   BANK0   BANK1   BANK2   BANK3   BANK4   BANK5   BANK6   BANK7   BANK8   BANK9  BANK10  BANK1
      +1  BANK12  BANK13  BANK14  BANK15
  1889 ;;      Params:         2       0       0       0       0       0       0       0       0       0       0       0       
      +0       0       0       0       0
  1890 ;;      Locals:         1       0       0       0       0       0       0       0       0       0       0       0       
      +0       0       0       0       0
  1891 ;;      Temps:          6       0       0       0       0       0       0       0       0       0       0       0       
      +0       0       0       0       0
  1892 ;;      Totals:         9       0       0       0       0       0       0       0       0       0       0       0       
      +0       0       0       0       0
  1893 ;;Total ram usage:        9 bytes
  1894 ;; Hardware stack levels used: 1
  1895 ;; Hardware stack levels required when called: 3
  1896 ;; This function calls:
  1897 ;;		Nothing
  1898 ;; This function is called by:
  1899 ;;		_gpio_pin_intialize
  1900 ;;		_button_initialize
  1901 ;;		_keypad_initialize
  1902 ;;		_Interrupt_RBx_Init
  1903 ;;		_Interrupt_INTx_Pin_Init
  1904 ;;		_MSSP_SPI_Msster_Mode_GPIO_PIN_Configurations
  1905 ;;		_MSSP_SPI_Slave_Mode_GPIO_PIN_Configurations
  1906 ;; This function uses a non-reentrant model
  1907 ;;
  1908                           
  1909                           	psect	text8
  1910  00259C                     __ptext8:
  1911                           	callstack 0
  1912  00259C                     _gpio_pin_direction_intialize:
  1913                           	callstack 25
  1914  00259C                     
  1915                           ;MCAL_Layer/GPIO/hal_gpio.c: 26:     Std_ReturnType ret = (Std_ReturnType)0x01;
  1916  00259C  0E01               	movlw	1
  1917  00259E  6E0C               	movwf	gpio_pin_direction_intialize@ret^0,c
  1918  0025A0                     
  1919                           ;MCAL_Layer/GPIO/hal_gpio.c: 27:     if(((void*)0) == _pin_config || _pin_config->pin > 
      +                          8 -1){
  1920  0025A0  5004               	movf	gpio_pin_direction_intialize@_pin_config^0,w,c
  1921  0025A2  1005               	iorwf	(gpio_pin_direction_intialize@_pin_config+1)^0,w,c
  1922  0025A4  B4D8               	btfsc	status,2,c
  1923  0025A6  EFD7  F012         	goto	u7981
  1924  0025AA  EFD9  F012         	goto	u7980
  1925  0025AE                     u7981:
  1926  0025AE  EFEA  F012         	goto	l8510
  1927  0025B2                     u7980:
  1928  0025B2  C004  FFD9         	movff	gpio_pin_direction_intialize@_pin_config,fsr2l
  1929  0025B6  C005  FFDA         	movff	gpio_pin_direction_intialize@_pin_config+1,fsr2h
  1930  0025BA  30DF               	rrcf	223,w,c
  1931  0025BC  32E8               	rrcf	wreg,f,c
  1932  0025BE  32E8               	rrcf	wreg,f,c
  1933  0025C0  0B07               	andlw	7
  1934  0025C2  6E06               	movwf	??_gpio_pin_direction_intialize^0,c
  1935  0025C4  0E07               	movlw	7
  1936  0025C6  6406               	cpfsgt	??_gpio_pin_direction_intialize^0,c
  1937  0025C8  EFE8  F012         	goto	u7991
  1938  0025CC  EFEA  F012         	goto	u7990
  1939  0025D0                     u7991:
  1940  0025D0  EF4D  F013         	goto	l8518
  1941  0025D4                     u7990:
  1942  0025D4                     l8510:
  1943                           
  1944                           ;MCAL_Layer/GPIO/hal_gpio.c: 28:         ret = (Std_ReturnType)0x00;
  1945  0025D4  0E00               	movlw	0
  1946  0025D6  6E0C               	movwf	gpio_pin_direction_intialize@ret^0,c
  1947                           
  1948                           ;MCAL_Layer/GPIO/hal_gpio.c: 29:     }
  1949  0025D8  EF6E  F013         	goto	l8520
  1950  0025DC                     l8512:
  1951                           
  1952                           ;MCAL_Layer/GPIO/hal_gpio.c: 33:                 (*tris_registers[_pin_config->port] &= 
      +                          ~((uint8)1 << _pin_config->pin));
  1953  0025DC  C004  FFD9         	movff	gpio_pin_direction_intialize@_pin_config,fsr2l
  1954  0025E0  C005  FFDA         	movff	gpio_pin_direction_intialize@_pin_config+1,fsr2h
  1955  0025E4  30DF               	rrcf	223,w,c
  1956  0025E6  32E8               	rrcf	wreg,f,c
  1957  0025E8  32E8               	rrcf	wreg,f,c
  1958  0025EA  0B07               	andlw	7
  1959  0025EC  6E06               	movwf	??_gpio_pin_direction_intialize^0,c
  1960  0025EE  0E01               	movlw	1
  1961  0025F0  6E07               	movwf	(??_gpio_pin_direction_intialize+1)^0,c
  1962  0025F2  2A06               	incf	??_gpio_pin_direction_intialize^0,f,c
  1963  0025F4  EFFE  F012         	goto	u8004
  1964  0025F8                     u8005:
  1965  0025F8  90D8               	bcf	status,0,c
  1966  0025FA  3607               	rlcf	(??_gpio_pin_direction_intialize+1)^0,f,c
  1967  0025FC                     u8004:
  1968  0025FC  2E06               	decfsz	??_gpio_pin_direction_intialize^0,f,c
  1969  0025FE  EFFC  F012         	goto	u8005
  1970  002602  5007               	movf	(??_gpio_pin_direction_intialize+1)^0,w,c
  1971  002604  0AFF               	xorlw	255
  1972  002606  6E08               	movwf	(??_gpio_pin_direction_intialize+2)^0,c
  1973  002608  C004  FFD9         	movff	gpio_pin_direction_intialize@_pin_config,fsr2l
  1974  00260C  C005  FFDA         	movff	gpio_pin_direction_intialize@_pin_config+1,fsr2h
  1975  002610  50DF               	movf	223,w,c
  1976  002612  0B07               	andlw	7
  1977  002614  6E09               	movwf	(??_gpio_pin_direction_intialize+3)^0,c
  1978  002616  5009               	movf	(??_gpio_pin_direction_intialize+3)^0,w,c
  1979  002618  0D02               	mullw	2
  1980  00261A  0EED               	movlw	low _tris_registers
  1981  00261C  24F3               	addwf	243,w,c
  1982  00261E  6ED9               	movwf	fsr2l,c
  1983  002620  0E00               	movlw	high _tris_registers
  1984  002622  20F4               	addwfc	prodh,w,c
  1985  002624  6EDA               	movwf	fsr2h,c
  1986  002626  CFDE F00A          	movff	postinc2,??_gpio_pin_direction_intialize+4
  1987  00262A  CFDD F00B          	movff	postdec2,??_gpio_pin_direction_intialize+5
  1988  00262E  C00A  FFD9         	movff	??_gpio_pin_direction_intialize+4,fsr2l
  1989  002632  C00B  FFDA         	movff	??_gpio_pin_direction_intialize+5,fsr2h
  1990  002636  5008               	movf	(??_gpio_pin_direction_intialize+2)^0,w,c
  1991  002638  16DF               	andwf	indf2,f,c
  1992                           
  1993                           ;MCAL_Layer/GPIO/hal_gpio.c: 34:                 break;
  1994  00263A  EF6E  F013         	goto	l8520
  1995  00263E                     l8514:
  1996                           
  1997                           ;MCAL_Layer/GPIO/hal_gpio.c: 36:                 (*tris_registers[_pin_config->port] |= 
      +                          ((uint8)1 << _pin_config->pin));
  1998  00263E  C004  FFD9         	movff	gpio_pin_direction_intialize@_pin_config,fsr2l
  1999  002642  C005  FFDA         	movff	gpio_pin_direction_intialize@_pin_config+1,fsr2h
  2000  002646  30DF               	rrcf	223,w,c
  2001  002648  32E8               	rrcf	wreg,f,c
  2002  00264A  32E8               	rrcf	wreg,f,c
  2003  00264C  0B07               	andlw	7
  2004  00264E  6E06               	movwf	??_gpio_pin_direction_intialize^0,c
  2005  002650  0E01               	movlw	1
  2006  002652  6E07               	movwf	(??_gpio_pin_direction_intialize+1)^0,c
  2007  002654  2A06               	incf	??_gpio_pin_direction_intialize^0,f,c
  2008  002656  EF2F  F013         	goto	u8014
  2009  00265A                     u8015:
  2010  00265A  90D8               	bcf	status,0,c
  2011  00265C  3607               	rlcf	(??_gpio_pin_direction_intialize+1)^0,f,c
  2012  00265E                     u8014:
  2013  00265E  2E06               	decfsz	??_gpio_pin_direction_intialize^0,f,c
  2014  002660  EF2D  F013         	goto	u8015
  2015  002664  C004  FFD9         	movff	gpio_pin_direction_intialize@_pin_config,fsr2l
  2016  002668  C005  FFDA         	movff	gpio_pin_direction_intialize@_pin_config+1,fsr2h
  2017  00266C  50DF               	movf	223,w,c
  2018  00266E  0B07               	andlw	7
  2019  002670  6E08               	movwf	(??_gpio_pin_direction_intialize+2)^0,c
  2020  002672  5008               	movf	(??_gpio_pin_direction_intialize+2)^0,w,c
  2021  002674  0D02               	mullw	2
  2022  002676  0EED               	movlw	low _tris_registers
  2023  002678  24F3               	addwf	243,w,c
  2024  00267A  6ED9               	movwf	fsr2l,c
  2025  00267C  0E00               	movlw	high _tris_registers
  2026  00267E  20F4               	addwfc	prodh,w,c
  2027  002680  6EDA               	movwf	fsr2h,c
  2028  002682  CFDE F009          	movff	postinc2,??_gpio_pin_direction_intialize+3
  2029  002686  CFDD F00A          	movff	postdec2,??_gpio_pin_direction_intialize+4
  2030  00268A  C009  FFD9         	movff	??_gpio_pin_direction_intialize+3,fsr2l
  2031  00268E  C00A  FFDA         	movff	??_gpio_pin_direction_intialize+4,fsr2h
  2032  002692  5007               	movf	(??_gpio_pin_direction_intialize+1)^0,w,c
  2033  002694  12DF               	iorwf	indf2,f,c
  2034                           
  2035                           ;MCAL_Layer/GPIO/hal_gpio.c: 37:                 break;
  2036  002696  EF6E  F013         	goto	l8520
  2037  00269A                     l8518:
  2038  00269A  C004  FFD9         	movff	gpio_pin_direction_intialize@_pin_config,fsr2l
  2039  00269E  C005  FFDA         	movff	gpio_pin_direction_intialize@_pin_config+1,fsr2h
  2040  0026A2  BCDF               	btfsc	indf2,6,c
  2041  0026A4  EF56  F013         	goto	u8021
  2042  0026A8  EF59  F013         	goto	u8020
  2043  0026AC                     u8021:
  2044  0026AC  0E01               	movlw	1
  2045  0026AE  EF5A  F013         	goto	u8030
  2046  0026B2                     u8020:
  2047  0026B2  0E00               	movlw	0
  2048  0026B4                     u8030:
  2049  0026B4  6E06               	movwf	??_gpio_pin_direction_intialize^0,c
  2050  0026B6  6A07               	clrf	(??_gpio_pin_direction_intialize+1)^0,c
  2051                           
  2052                           ; Switch on 2 bytes has been partitioned into a top level switch of size 1, and 1 sub-sw
      +                          itches
  2053                           ; Switch size 1, requested type "simple"
  2054                           ; Number of cases is 1, Range of values is 0 to 0
  2055                           ; switch strategies available:
  2056                           ; Name         Instructions Cycles
  2057                           ; simple_byte            4     3 (average)
  2058                           ;	Chosen strategy is simple_byte
  2059  0026B8  5007               	movf	(??_gpio_pin_direction_intialize+1)^0,w,c
  2060  0026BA  0A00               	xorlw	0	; case 0
  2061  0026BC  B4D8               	btfsc	status,2,c
  2062  0026BE  EF63  F013         	goto	l10344
  2063  0026C2  EFEA  F012         	goto	l8510
  2064  0026C6                     l10344:
  2065                           
  2066                           ; Switch size 1, requested type "simple"
  2067                           ; Number of cases is 2, Range of values is 0 to 1
  2068                           ; switch strategies available:
  2069                           ; Name         Instructions Cycles
  2070                           ; simple_byte            7     4 (average)
  2071                           ;	Chosen strategy is simple_byte
  2072  0026C6  5006               	movf	??_gpio_pin_direction_intialize^0,w,c
  2073  0026C8  0A00               	xorlw	0	; case 0
  2074  0026CA  B4D8               	btfsc	status,2,c
  2075  0026CC  EFEE  F012         	goto	l8512
  2076  0026D0  0A01               	xorlw	1	; case 1
  2077  0026D2  B4D8               	btfsc	status,2,c
  2078  0026D4  EF1F  F013         	goto	l8514
  2079  0026D8  EFEA  F012         	goto	l8510
  2080  0026DC                     l8520:
  2081                           
  2082                           ;MCAL_Layer/GPIO/hal_gpio.c: 41:     return ret;
  2083  0026DC  500C               	movf	gpio_pin_direction_intialize@ret^0,w,c
  2084  0026DE  0012               	return		;funcret
  2085  0026E0                     __end_of_gpio_pin_direction_intialize:
  2086                           	callstack 0
  2087                           
  2088 ;; *************** function _CCP_PWM_Mode_Config *****************
  2089 ;; Defined at:
  2090 ;;		line 269 in file "MCAL_Layer/CCP/hal_ccp.c"
  2091 ;; Parameters:    Size  Location     Type
  2092 ;;  _ccp_obj        2   93[COMRAM] PTR const struct .
  2093 ;;		 -> ccp_obj(17), 
  2094 ;; Auto vars:     Size  Location     Type
  2095 ;;		None
  2096 ;; Return value:  Size  Location     Type
  2097 ;;                  1    wreg      void 
  2098 ;; Registers used:
  2099 ;;		wreg, fsr2l, fsr2h, status,2, status,0, prodl, prodh, cstack
  2100 ;; Tracked objects:
  2101 ;;		On entry : 0/0
  2102 ;;		On exit  : 0/0
  2103 ;;		Unchanged: 0/0
  2104 ;; Data sizes:     COMRAM   BANK0   BANK1   BANK2   BANK3   BANK4   BANK5   BANK6   BANK7   BANK8   BANK9  BANK10  BANK1
      +1  BANK12  BANK13  BANK14  BANK15
  2105 ;;      Params:         2       0       0       0       0       0       0       0       0       0       0       0       
      +0       0       0       0       0
  2106 ;;      Locals:         8       0       0       0       0       0       0       0       0       0       0       0       
      +0       0       0       0       0
  2107 ;;      Temps:          1       0       0       0       0       0       0       0       0       0       0       0       
      +0       0       0       0       0
  2108 ;;      Totals:        11       0       0       0       0       0       0       0       0       0       0       0       
      +0       0       0       0       0
  2109 ;;Total ram usage:       11 bytes
  2110 ;; Hardware stack levels used: 1
  2111 ;; Hardware stack levels required when called: 4
  2112 ;; This function calls:
  2113 ;;		___fladd
  2114 ;;		___fldiv
  2115 ;;		___flmul
  2116 ;;		___fltol
  2117 ;;		___xxtofl
  2118 ;; This function is called by:
  2119 ;;		_CCP_Init
  2120 ;; This function uses a non-reentrant model
  2121 ;;
  2122                           
  2123                           	psect	text9
  2124  0020B0                     __ptext9:
  2125                           	callstack 0
  2126  0020B0                     _CCP_PWM_Mode_Config:
  2127                           	callstack 25
  2128  0020B0                     
  2129                           ;MCAL_Layer/CCP/hal_ccp.c: 271:     PR2 = (uint8)(((float)4000000UL / ((float)_ccp_obj->
      +                          PWM_Frequency * 4.0 * (float)_ccp_obj->timer2_prescaler_value *
  2130  0020B0  0E00               	movlw	0
  2131  0020B2  6E16               	movwf	___flmul@a^0,c
  2132  0020B4  0E00               	movlw	0
  2133  0020B6  6E17               	movwf	(___flmul@a+1)^0,c
  2134  0020B8  0E80               	movlw	128
  2135  0020BA  6E18               	movwf	(___flmul@a+2)^0,c
  2136  0020BC  0E40               	movlw	64
  2137  0020BE  6E19               	movwf	(___flmul@a+3)^0,c
  2138  0020C0  EE20 F005          	lfsr	2,5
  2139  0020C4  505E               	movf	CCP_PWM_Mode_Config@_ccp_obj^0,w,c
  2140  0020C6  26D9               	addwf	fsr2l,f,c
  2141  0020C8  505F               	movf	(CCP_PWM_Mode_Config@_ccp_obj+1)^0,w,c
  2142  0020CA  22DA               	addwfc	fsr2h,f,c
  2143  0020CC  CFDE F004          	movff	postinc2,___xxtofl@val
  2144  0020D0  CFDE F005          	movff	postinc2,___xxtofl@val+1
  2145  0020D4  CFDE F006          	movff	postinc2,___xxtofl@val+2
  2146  0020D8  CFDE F007          	movff	postinc2,___xxtofl@val+3
  2147  0020DC  0E00               	movlw	0
  2148  0020DE  EC40  F011         	call	___xxtofl
  2149  0020E2  C004  F012         	movff	?___xxtofl,___flmul@b
  2150  0020E6  C005  F013         	movff	?___xxtofl+1,___flmul@b+1
  2151  0020EA  C006  F014         	movff	?___xxtofl+2,___flmul@b+2
  2152  0020EE  C007  F015         	movff	?___xxtofl+3,___flmul@b+3
  2153  0020F2  EC6B  F00A         	call	___flmul	;wreg free
  2154  0020F6  C012  F061         	movff	?___flmul,_CCP_PWM_Mode_Config$5409
  2155  0020FA  C013  F062         	movff	?___flmul+1,_CCP_PWM_Mode_Config$5409+1
  2156  0020FE  C014  F063         	movff	?___flmul+2,_CCP_PWM_Mode_Config$5409+2
  2157  002102  C015  F064         	movff	?___flmul+3,_CCP_PWM_Mode_Config$5409+3
  2158                           
  2159                           ;MCAL_Layer/CCP/hal_ccp.c: 271:     PR2 = (uint8)(((float)4000000UL / ((float)_ccp_obj->
      +                          PWM_Frequency * 4.0 * (float)_ccp_obj->timer2_prescaler_value *
  2160  002106  EE20 F00A          	lfsr	2,10
  2161  00210A  505E               	movf	CCP_PWM_Mode_Config@_ccp_obj^0,w,c
  2162  00210C  26D9               	addwf	fsr2l,f,c
  2163  00210E  505F               	movf	(CCP_PWM_Mode_Config@_ccp_obj+1)^0,w,c
  2164  002110  22DA               	addwfc	fsr2h,f,c
  2165  002112  50DF               	movf	indf2,w,c
  2166  002114  6E60               	movwf	??_CCP_PWM_Mode_Config^0,c
  2167  002116  5060               	movf	??_CCP_PWM_Mode_Config^0,w,c
  2168  002118  6E04               	movwf	___xxtofl@val^0,c
  2169  00211A  6A05               	clrf	(___xxtofl@val+1)^0,c
  2170  00211C  6A06               	clrf	(___xxtofl@val+2)^0,c
  2171  00211E  6A07               	clrf	(___xxtofl@val+3)^0,c
  2172  002120  0E00               	movlw	0
  2173  002122  EC40  F011         	call	___xxtofl
  2174  002126  C004  F016         	movff	?___xxtofl,___flmul@a
  2175  00212A  C005  F017         	movff	?___xxtofl+1,___flmul@a+1
  2176  00212E  C006  F018         	movff	?___xxtofl+2,___flmul@a+2
  2177  002132  C007  F019         	movff	?___xxtofl+3,___flmul@a+3
  2178  002136  C061  F012         	movff	_CCP_PWM_Mode_Config$5409,___flmul@b
  2179  00213A  C062  F013         	movff	_CCP_PWM_Mode_Config$5409+1,___flmul@b+1
  2180  00213E  C063  F014         	movff	_CCP_PWM_Mode_Config$5409+2,___flmul@b+2
  2181  002142  C064  F015         	movff	_CCP_PWM_Mode_Config$5409+3,___flmul@b+3
  2182  002146  EC6B  F00A         	call	___flmul	;wreg free
  2183  00214A  C012  F065         	movff	?___flmul,_CCP_PWM_Mode_Config$5410
  2184  00214E  C013  F066         	movff	?___flmul+1,_CCP_PWM_Mode_Config$5410+1
  2185  002152  C014  F067         	movff	?___flmul+2,_CCP_PWM_Mode_Config$5410+2
  2186  002156  C015  F068         	movff	?___flmul+3,_CCP_PWM_Mode_Config$5410+3
  2187                           
  2188                           ;MCAL_Layer/CCP/hal_ccp.c: 271:     PR2 = (uint8)(((float)4000000UL / ((float)_ccp_obj->
      +                          PWM_Frequency * 4.0 * (float)_ccp_obj->timer2_prescaler_value *
  2189  00215A  0E00               	movlw	0
  2190  00215C  6E48               	movwf	___fladd@a^0,c
  2191  00215E  0E00               	movlw	0
  2192  002160  6E49               	movwf	(___fladd@a+1)^0,c
  2193  002162  0E80               	movlw	128
  2194  002164  6E4A               	movwf	(___fladd@a+2)^0,c
  2195  002166  0EBF               	movlw	191
  2196  002168  6E4B               	movwf	(___fladd@a+3)^0,c
  2197  00216A  EE20 F009          	lfsr	2,9
  2198  00216E  505E               	movf	CCP_PWM_Mode_Config@_ccp_obj^0,w,c
  2199  002170  26D9               	addwf	fsr2l,f,c
  2200  002172  505F               	movf	(CCP_PWM_Mode_Config@_ccp_obj+1)^0,w,c
  2201  002174  22DA               	addwfc	fsr2h,f,c
  2202  002176  50DF               	movf	indf2,w,c
  2203  002178  6E60               	movwf	??_CCP_PWM_Mode_Config^0,c
  2204  00217A  5060               	movf	??_CCP_PWM_Mode_Config^0,w,c
  2205  00217C  6E04               	movwf	___xxtofl@val^0,c
  2206  00217E  6A05               	clrf	(___xxtofl@val+1)^0,c
  2207  002180  6A06               	clrf	(___xxtofl@val+2)^0,c
  2208  002182  6A07               	clrf	(___xxtofl@val+3)^0,c
  2209  002184  0E00               	movlw	0
  2210  002186  EC40  F011         	call	___xxtofl
  2211  00218A  C004  F016         	movff	?___xxtofl,___flmul@a
  2212  00218E  C005  F017         	movff	?___xxtofl+1,___flmul@a+1
  2213  002192  C006  F018         	movff	?___xxtofl+2,___flmul@a+2
  2214  002196  C007  F019         	movff	?___xxtofl+3,___flmul@a+3
  2215  00219A  C065  F012         	movff	_CCP_PWM_Mode_Config$5410,___flmul@b
  2216  00219E  C066  F013         	movff	_CCP_PWM_Mode_Config$5410+1,___flmul@b+1
  2217  0021A2  C067  F014         	movff	_CCP_PWM_Mode_Config$5410+2,___flmul@b+2
  2218  0021A6  C068  F015         	movff	_CCP_PWM_Mode_Config$5410+3,___flmul@b+3
  2219  0021AA  EC6B  F00A         	call	___flmul	;wreg free
  2220  0021AE  C012  F02F         	movff	?___flmul,___fldiv@a
  2221  0021B2  C013  F030         	movff	?___flmul+1,___fldiv@a+1
  2222  0021B6  C014  F031         	movff	?___flmul+2,___fldiv@a+2
  2223  0021BA  C015  F032         	movff	?___flmul+3,___fldiv@a+3
  2224  0021BE  0E00               	movlw	0
  2225  0021C0  6E2B               	movwf	___fldiv@b^0,c
  2226  0021C2  0E24               	movlw	36
  2227  0021C4  6E2C               	movwf	(___fldiv@b+1)^0,c
  2228  0021C6  0E74               	movlw	116
  2229  0021C8  6E2D               	movwf	(___fldiv@b+2)^0,c
  2230  0021CA  0E4A               	movlw	74
  2231  0021CC  6E2E               	movwf	(___fldiv@b+3)^0,c
  2232  0021CE  EC8B  F00E         	call	___fldiv	;wreg free
  2233  0021D2  C02B  F044         	movff	?___fldiv,___fladd@b
  2234  0021D6  C02C  F045         	movff	?___fldiv+1,___fladd@b+1
  2235  0021DA  C02D  F046         	movff	?___fldiv+2,___fladd@b+2
  2236  0021DE  C02E  F047         	movff	?___fldiv+3,___fladd@b+3
  2237  0021E2  EC0B  F008         	call	___fladd	;wreg free
  2238  0021E6  C044  F054         	movff	?___fladd,___fltol@f1
  2239  0021EA  C045  F055         	movff	?___fladd+1,___fltol@f1+1
  2240  0021EE  C046  F056         	movff	?___fladd+2,___fltol@f1+2
  2241  0021F2  C047  F057         	movff	?___fladd+3,___fltol@f1+3
  2242  0021F6  EC47  F015         	call	___fltol	;wreg free
  2243  0021FA  5054               	movf	?___fltol^0,w,c
  2244  0021FC  6ECB               	movwf	203,c	;volatile
  2245  0021FE                     
  2246                           ;MCAL_Layer/CCP/hal_ccp.c: 274:     if(CCP1_INST == _ccp_obj->ccp_inst){
  2247  0021FE  C05E  FFD9         	movff	CCP_PWM_Mode_Config@_ccp_obj,fsr2l
  2248  002202  C05F  FFDA         	movff	CCP_PWM_Mode_Config@_ccp_obj+1,fsr2h
  2249  002206  50DF               	movf	indf2,w,c
  2250  002208  A4D8               	btfss	status,2,c
  2251  00220A  EF09  F011         	goto	u9151
  2252  00220E  EF0B  F011         	goto	u9150
  2253  002212                     u9151:
  2254  002212  EF20  F011         	goto	l9292
  2255  002216                     u9150:
  2256  002216                     
  2257                           ;MCAL_Layer/CCP/hal_ccp.c: 275:         if(((uint8)0x0C) == _ccp_obj->ccp_mode_variant){
  2258  002216  EE20 F002          	lfsr	2,2
  2259  00221A  505E               	movf	CCP_PWM_Mode_Config@_ccp_obj^0,w,c
  2260  00221C  26D9               	addwf	fsr2l,f,c
  2261  00221E  505F               	movf	(CCP_PWM_Mode_Config@_ccp_obj+1)^0,w,c
  2262  002220  22DA               	addwfc	fsr2h,f,c
  2263  002222  0E0C               	movlw	12
  2264  002224  18DE               	xorwf	postinc2,w,c
  2265  002226  A4D8               	btfss	status,2,c
  2266  002228  EF18  F011         	goto	u9161
  2267  00222C  EF1A  F011         	goto	u9160
  2268  002230                     u9161:
  2269  002230  EF3F  F011         	goto	l585
  2270  002234                     u9160:
  2271  002234                     
  2272                           ;MCAL_Layer/CCP/hal_ccp.c: 276:             (CCP1CONbits.CCP1M = ((uint8)0x0C));
  2273  002234  50BD               	movf	189,w,c	;volatile
  2274  002236  0BF0               	andlw	-16
  2275  002238  090C               	iorlw	12
  2276  00223A  6EBD               	movwf	189,c	;volatile
  2277                           
  2278                           ;MCAL_Layer/CCP/hal_ccp.c: 277:         }
  2279  00223C  EF3F  F011         	goto	l585
  2280  002240                     l9292:
  2281  002240  C05E  FFD9         	movff	CCP_PWM_Mode_Config@_ccp_obj,fsr2l
  2282  002244  C05F  FFDA         	movff	CCP_PWM_Mode_Config@_ccp_obj+1,fsr2h
  2283  002248  04DE               	decf	postinc2,w,c
  2284  00224A  A4D8               	btfss	status,2,c
  2285  00224C  EF2A  F011         	goto	u9171
  2286  002250  EF2C  F011         	goto	u9170
  2287  002254                     u9171:
  2288  002254  EF3F  F011         	goto	l585
  2289  002258                     u9170:
  2290  002258                     
  2291                           ;MCAL_Layer/CCP/hal_ccp.c: 281:         if(((uint8)0x0C) == _ccp_obj->ccp_mode_variant){
  2292  002258  EE20 F002          	lfsr	2,2
  2293  00225C  505E               	movf	CCP_PWM_Mode_Config@_ccp_obj^0,w,c
  2294  00225E  26D9               	addwf	fsr2l,f,c
  2295  002260  505F               	movf	(CCP_PWM_Mode_Config@_ccp_obj+1)^0,w,c
  2296  002262  22DA               	addwfc	fsr2h,f,c
  2297  002264  0E0C               	movlw	12
  2298  002266  18DE               	xorwf	postinc2,w,c
  2299  002268  A4D8               	btfss	status,2,c
  2300  00226A  EF39  F011         	goto	u9181
  2301  00226E  EF3B  F011         	goto	u9180
  2302  002272                     u9181:
  2303  002272  EF3F  F011         	goto	l585
  2304  002276                     u9180:
  2305  002276                     
  2306                           ;MCAL_Layer/CCP/hal_ccp.c: 282:             (CCP2CONbits.CCP2M = ((uint8)0x0C));
  2307  002276  50BA               	movf	186,w,c	;volatile
  2308  002278  0BF0               	andlw	-16
  2309  00227A  090C               	iorlw	12
  2310  00227C  6EBA               	movwf	186,c	;volatile
  2311  00227E                     l585:
  2312  00227E  0012               	return		;funcret
  2313  002280                     __end_of_CCP_PWM_Mode_Config:
  2314                           	callstack 0
  2315                           
  2316 ;; *************** function ___xxtofl *****************
  2317 ;; Defined at:
  2318 ;;		line 10 in file "C:\Program Files\Microchip\xc8\v2.36\pic\sources\c99\common\xxtofl.c"
  2319 ;; Parameters:    Size  Location     Type
  2320 ;;  sign            1    wreg     unsigned char 
  2321 ;;  val             4    3[COMRAM] long 
  2322 ;; Auto vars:     Size  Location     Type
  2323 ;;  sign            1   11[COMRAM] unsigned char 
  2324 ;;  arg             4   13[COMRAM] unsigned long 
  2325 ;;  exp             1   12[COMRAM] unsigned char 
  2326 ;; Return value:  Size  Location     Type
  2327 ;;                  4    3[COMRAM] unsigned char 
  2328 ;; Registers used:
  2329 ;;		wreg, status,2, status,0
  2330 ;; Tracked objects:
  2331 ;;		On entry : 0/0
  2332 ;;		On exit  : 0/0
  2333 ;;		Unchanged: 0/0
  2334 ;; Data sizes:     COMRAM   BANK0   BANK1   BANK2   BANK3   BANK4   BANK5   BANK6   BANK7   BANK8   BANK9  BANK10  BANK1
      +1  BANK12  BANK13  BANK14  BANK15
  2335 ;;      Params:         4       0       0       0       0       0       0       0       0       0       0       0       
      +0       0       0       0       0
  2336 ;;      Locals:         6       0       0       0       0       0       0       0       0       0       0       0       
      +0       0       0       0       0
  2337 ;;      Temps:          4       0       0       0       0       0       0       0       0       0       0       0       
      +0       0       0       0       0
  2338 ;;      Totals:        14       0       0       0       0       0       0       0       0       0       0       0       
      +0       0       0       0       0
  2339 ;;Total ram usage:       14 bytes
  2340 ;; Hardware stack levels used: 1
  2341 ;; Hardware stack levels required when called: 3
  2342 ;; This function calls:
  2343 ;;		Nothing
  2344 ;; This function is called by:
  2345 ;;		_CCP_PWM_Mode_Config
  2346 ;;		_Ultrasonic_Calculate_Distance
  2347 ;;		_CCP_PWM_Set_Duty
  2348 ;;		_I2C_Master_Mode_Clock_Configurations
  2349 ;;		_EUSART_Baud_Rate_Calculation
  2350 ;; This function uses a non-reentrant model
  2351 ;;
  2352                           
  2353                           	psect	text10
  2354  002280                     __ptext10:
  2355                           	callstack 0
  2356  002280                     ___xxtofl:
  2357                           	callstack 25
  2358                           
  2359                           ;incstack = 0
  2360                           ;___xxtofl@sign stored from wreg
  2361  002280  6E0C               	movwf	___xxtofl@sign^0,c
  2362  002282  500C               	movf	___xxtofl@sign^0,w,c
  2363  002284  B4D8               	btfsc	status,2,c
  2364  002286  EF47  F011         	goto	u8951
  2365  00228A  EF49  F011         	goto	u8950
  2366  00228E                     u8951:
  2367  00228E  EF6B  F011         	goto	l2389
  2368  002292                     u8950:
  2369  002292  BE07               	btfsc	(___xxtofl@val+3)^0,7,c
  2370  002294  EF50  F011         	goto	u8960
  2371  002298  EF4E  F011         	goto	u8961
  2372  00229C                     u8961:
  2373  00229C  EF6B  F011         	goto	l2389
  2374  0022A0                     u8960:
  2375  0022A0  C004  F008         	movff	___xxtofl@val,??___xxtofl
  2376  0022A4  C005  F009         	movff	___xxtofl@val+1,??___xxtofl+1
  2377  0022A8  C006  F00A         	movff	___xxtofl@val+2,??___xxtofl+2
  2378  0022AC  C007  F00B         	movff	___xxtofl@val+3,??___xxtofl+3
  2379  0022B0  1E08               	comf	??___xxtofl^0,f,c
  2380  0022B2  1E09               	comf	(??___xxtofl+1)^0,f,c
  2381  0022B4  1E0A               	comf	(??___xxtofl+2)^0,f,c
  2382  0022B6  1E0B               	comf	(??___xxtofl+3)^0,f,c
  2383  0022B8  2A08               	incf	??___xxtofl^0,f,c
  2384  0022BA  0E00               	movlw	0
  2385  0022BC  2209               	addwfc	(??___xxtofl+1)^0,f,c
  2386  0022BE  220A               	addwfc	(??___xxtofl+2)^0,f,c
  2387  0022C0  220B               	addwfc	(??___xxtofl+3)^0,f,c
  2388  0022C2  C008  F00E         	movff	??___xxtofl,___xxtofl@arg
  2389  0022C6  C009  F00F         	movff	??___xxtofl+1,___xxtofl@arg+1
  2390  0022CA  C00A  F010         	movff	??___xxtofl+2,___xxtofl@arg+2
  2391  0022CE  C00B  F011         	movff	??___xxtofl+3,___xxtofl@arg+3
  2392  0022D2  EF73  F011         	goto	l9060
  2393  0022D6                     l2389:
  2394  0022D6  C004  F00E         	movff	___xxtofl@val,___xxtofl@arg
  2395  0022DA  C005  F00F         	movff	___xxtofl@val+1,___xxtofl@arg+1
  2396  0022DE  C006  F010         	movff	___xxtofl@val+2,___xxtofl@arg+2
  2397  0022E2  C007  F011         	movff	___xxtofl@val+3,___xxtofl@arg+3
  2398  0022E6                     l9060:
  2399  0022E6  5004               	movf	___xxtofl@val^0,w,c
  2400  0022E8  1005               	iorwf	(___xxtofl@val+1)^0,w,c
  2401  0022EA  1006               	iorwf	(___xxtofl@val+2)^0,w,c
  2402  0022EC  1007               	iorwf	(___xxtofl@val+3)^0,w,c
  2403  0022EE  A4D8               	btfss	status,2,c
  2404  0022F0  EF7C  F011         	goto	u8971
  2405  0022F4  EF7E  F011         	goto	u8970
  2406  0022F8                     u8971:
  2407  0022F8  EF88  F011         	goto	l9066
  2408  0022FC                     u8970:
  2409  0022FC  0E00               	movlw	0
  2410  0022FE  6E04               	movwf	?___xxtofl^0,c
  2411  002300  0E00               	movlw	0
  2412  002302  6E05               	movwf	(?___xxtofl+1)^0,c
  2413  002304  0E00               	movlw	0
  2414  002306  6E06               	movwf	(?___xxtofl+2)^0,c
  2415  002308  0E00               	movlw	0
  2416  00230A  6E07               	movwf	(?___xxtofl+3)^0,c
  2417  00230C  EF19  F012         	goto	l2392
  2418  002310                     l9066:
  2419  002310  0E96               	movlw	150
  2420  002312  6E0D               	movwf	___xxtofl@exp^0,c
  2421  002314  EF92  F011         	goto	l9070
  2422  002318                     l9068:
  2423  002318  2A0D               	incf	___xxtofl@exp^0,f,c
  2424  00231A  90D8               	bcf	status,0,c
  2425  00231C  3211               	rrcf	(___xxtofl@arg+3)^0,f,c
  2426  00231E  3210               	rrcf	(___xxtofl@arg+2)^0,f,c
  2427  002320  320F               	rrcf	(___xxtofl@arg+1)^0,f,c
  2428  002322  320E               	rrcf	___xxtofl@arg^0,f,c
  2429  002324                     l9070:
  2430  002324  0E00               	movlw	0
  2431  002326  140E               	andwf	___xxtofl@arg^0,w,c
  2432  002328  6E08               	movwf	??___xxtofl^0,c
  2433  00232A  0E00               	movlw	0
  2434  00232C  140F               	andwf	(___xxtofl@arg+1)^0,w,c
  2435  00232E  6E09               	movwf	(??___xxtofl+1)^0,c
  2436  002330  0E00               	movlw	0
  2437  002332  1410               	andwf	(___xxtofl@arg+2)^0,w,c
  2438  002334  6E0A               	movwf	(??___xxtofl+2)^0,c
  2439  002336  0EFE               	movlw	254
  2440  002338  1411               	andwf	(___xxtofl@arg+3)^0,w,c
  2441  00233A  6E0B               	movwf	(??___xxtofl+3)^0,c
  2442  00233C  5008               	movf	??___xxtofl^0,w,c
  2443  00233E  1009               	iorwf	(??___xxtofl+1)^0,w,c
  2444  002340  100A               	iorwf	(??___xxtofl+2)^0,w,c
  2445  002342  100B               	iorwf	(??___xxtofl+3)^0,w,c
  2446  002344  A4D8               	btfss	status,2,c
  2447  002346  EFA7  F011         	goto	u8981
  2448  00234A  EFA9  F011         	goto	u8980
  2449  00234E                     u8981:
  2450  00234E  EF8C  F011         	goto	l9068
  2451  002352                     u8980:
  2452  002352  EFB7  F011         	goto	l2396
  2453  002356                     l9072:
  2454  002356  2A0D               	incf	___xxtofl@exp^0,f,c
  2455  002358  0E01               	movlw	1
  2456  00235A  260E               	addwf	___xxtofl@arg^0,f,c
  2457  00235C  0E00               	movlw	0
  2458  00235E  220F               	addwfc	(___xxtofl@arg+1)^0,f,c
  2459  002360  2210               	addwfc	(___xxtofl@arg+2)^0,f,c
  2460  002362  2211               	addwfc	(___xxtofl@arg+3)^0,f,c
  2461  002364  90D8               	bcf	status,0,c
  2462  002366  3211               	rrcf	(___xxtofl@arg+3)^0,f,c
  2463  002368  3210               	rrcf	(___xxtofl@arg+2)^0,f,c
  2464  00236A  320F               	rrcf	(___xxtofl@arg+1)^0,f,c
  2465  00236C  320E               	rrcf	___xxtofl@arg^0,f,c
  2466  00236E                     l2396:
  2467  00236E  0E00               	movlw	0
  2468  002370  140E               	andwf	___xxtofl@arg^0,w,c
  2469  002372  6E08               	movwf	??___xxtofl^0,c
  2470  002374  0E00               	movlw	0
  2471  002376  140F               	andwf	(___xxtofl@arg+1)^0,w,c
  2472  002378  6E09               	movwf	(??___xxtofl+1)^0,c
  2473  00237A  0E00               	movlw	0
  2474  00237C  1410               	andwf	(___xxtofl@arg+2)^0,w,c
  2475  00237E  6E0A               	movwf	(??___xxtofl+2)^0,c
  2476  002380  0EFF               	movlw	255
  2477  002382  1411               	andwf	(___xxtofl@arg+3)^0,w,c
  2478  002384  6E0B               	movwf	(??___xxtofl+3)^0,c
  2479  002386  5008               	movf	??___xxtofl^0,w,c
  2480  002388  1009               	iorwf	(??___xxtofl+1)^0,w,c
  2481  00238A  100A               	iorwf	(??___xxtofl+2)^0,w,c
  2482  00238C  100B               	iorwf	(??___xxtofl+3)^0,w,c
  2483  00238E  A4D8               	btfss	status,2,c
  2484  002390  EFCC  F011         	goto	u8991
  2485  002394  EFCE  F011         	goto	u8990
  2486  002398                     u8991:
  2487  002398  EFAB  F011         	goto	l9072
  2488  00239C                     u8990:
  2489  00239C  EFD6  F011         	goto	l9080
  2490  0023A0                     l9078:
  2491  0023A0  060D               	decf	___xxtofl@exp^0,f,c
  2492  0023A2  90D8               	bcf	status,0,c
  2493  0023A4  360E               	rlcf	___xxtofl@arg^0,f,c
  2494  0023A6  360F               	rlcf	(___xxtofl@arg+1)^0,f,c
  2495  0023A8  3610               	rlcf	(___xxtofl@arg+2)^0,f,c
  2496  0023AA  3611               	rlcf	(___xxtofl@arg+3)^0,f,c
  2497  0023AC                     l9080:
  2498  0023AC  BE10               	btfsc	(___xxtofl@arg+2)^0,7,c
  2499  0023AE  EFDB  F011         	goto	u9001
  2500  0023B2  EFDD  F011         	goto	u9000
  2501  0023B6                     u9001:
  2502  0023B6  EFE5  F011         	goto	l2403
  2503  0023BA                     u9000:
  2504  0023BA  0E02               	movlw	2
  2505  0023BC  600D               	cpfslt	___xxtofl@exp^0,c
  2506  0023BE  EFE3  F011         	goto	u9011
  2507  0023C2  EFE5  F011         	goto	u9010
  2508  0023C6                     u9011:
  2509  0023C6  EFD0  F011         	goto	l9078
  2510  0023CA                     u9010:
  2511  0023CA                     l2403:
  2512  0023CA  B00D               	btfsc	___xxtofl@exp^0,0,c
  2513  0023CC  EFEA  F011         	goto	u9021
  2514  0023D0  EFEC  F011         	goto	u9020
  2515  0023D4                     u9021:
  2516  0023D4  EFED  F011         	goto	l9086
  2517  0023D8                     u9020:
  2518  0023D8  9E10               	bcf	(___xxtofl@arg+2)^0,7,c
  2519  0023DA                     l9086:
  2520  0023DA  90D8               	bcf	status,0,c
  2521  0023DC  320D               	rrcf	___xxtofl@exp^0,f,c
  2522  0023DE  C00D  F008         	movff	___xxtofl@exp,??___xxtofl
  2523  0023E2  6A09               	clrf	(??___xxtofl+1)^0,c
  2524  0023E4  6A0A               	clrf	(??___xxtofl+2)^0,c
  2525  0023E6  6A0B               	clrf	(??___xxtofl+3)^0,c
  2526  0023E8  C008  F00B         	movff	??___xxtofl,??___xxtofl+3
  2527  0023EC  6A0A               	clrf	(??___xxtofl+2)^0,c
  2528  0023EE  6A09               	clrf	(??___xxtofl+1)^0,c
  2529  0023F0  6A08               	clrf	??___xxtofl^0,c
  2530  0023F2  5008               	movf	??___xxtofl^0,w,c
  2531  0023F4  120E               	iorwf	___xxtofl@arg^0,f,c
  2532  0023F6  5009               	movf	(??___xxtofl+1)^0,w,c
  2533  0023F8  120F               	iorwf	(___xxtofl@arg+1)^0,f,c
  2534  0023FA  500A               	movf	(??___xxtofl+2)^0,w,c
  2535  0023FC  1210               	iorwf	(___xxtofl@arg+2)^0,f,c
  2536  0023FE  500B               	movf	(??___xxtofl+3)^0,w,c
  2537  002400  1211               	iorwf	(___xxtofl@arg+3)^0,f,c
  2538  002402  500C               	movf	___xxtofl@sign^0,w,c
  2539  002404  B4D8               	btfsc	status,2,c
  2540  002406  EF07  F012         	goto	u9031
  2541  00240A  EF09  F012         	goto	u9030
  2542  00240E                     u9031:
  2543  00240E  EF11  F012         	goto	l9096
  2544  002412                     u9030:
  2545  002412  BE07               	btfsc	(___xxtofl@val+3)^0,7,c
  2546  002414  EF10  F012         	goto	u9040
  2547  002418  EF0E  F012         	goto	u9041
  2548  00241C                     u9041:
  2549  00241C  EF11  F012         	goto	l9096
  2550  002420                     u9040:
  2551  002420  8E11               	bsf	(___xxtofl@arg+3)^0,7,c
  2552  002422                     l9096:
  2553  002422  C00E  F004         	movff	___xxtofl@arg,?___xxtofl
  2554  002426  C00F  F005         	movff	___xxtofl@arg+1,?___xxtofl+1
  2555  00242A  C010  F006         	movff	___xxtofl@arg+2,?___xxtofl+2
  2556  00242E  C011  F007         	movff	___xxtofl@arg+3,?___xxtofl+3
  2557  002432                     l2392:
  2558  002432  0012               	return		;funcret
  2559  002434                     __end_of___xxtofl:
  2560                           	callstack 0
  2561                           
  2562 ;; *************** function ___fltol *****************
  2563 ;; Defined at:
  2564 ;;		line 43 in file "C:\Program Files\Microchip\xc8\v2.36\pic\sources\c99\common\fltol.c"
  2565 ;; Parameters:    Size  Location     Type
  2566 ;;  f1              4   83[COMRAM] unsigned char 
  2567 ;; Auto vars:     Size  Location     Type
  2568 ;;  exp1            1   92[COMRAM] unsigned char 
  2569 ;;  sign1           1   91[COMRAM] unsigned char 
  2570 ;; Return value:  Size  Location     Type
  2571 ;;                  4   83[COMRAM] long 
  2572 ;; Registers used:
  2573 ;;		wreg, status,2, status,0
  2574 ;; Tracked objects:
  2575 ;;		On entry : 0/0
  2576 ;;		On exit  : 0/0
  2577 ;;		Unchanged: 0/0
  2578 ;; Data sizes:     COMRAM   BANK0   BANK1   BANK2   BANK3   BANK4   BANK5   BANK6   BANK7   BANK8   BANK9  BANK10  BANK1
      +1  BANK12  BANK13  BANK14  BANK15
  2579 ;;      Params:         4       0       0       0       0       0       0       0       0       0       0       0       
      +0       0       0       0       0
  2580 ;;      Locals:         2       0       0       0       0       0       0       0       0       0       0       0       
      +0       0       0       0       0
  2581 ;;      Temps:          4       0       0       0       0       0       0       0       0       0       0       0       
      +0       0       0       0       0
  2582 ;;      Totals:        10       0       0       0       0       0       0       0       0       0       0       0       
      +0       0       0       0       0
  2583 ;;Total ram usage:       10 bytes
  2584 ;; Hardware stack levels used: 1
  2585 ;; Hardware stack levels required when called: 3
  2586 ;; This function calls:
  2587 ;;		Nothing
  2588 ;; This function is called by:
  2589 ;;		_CCP_PWM_Mode_Config
  2590 ;;		_Ultrasonic_Calculate_Distance
  2591 ;;		_CCP_PWM_Set_Duty
  2592 ;;		_I2C_Master_Mode_Clock_Configurations
  2593 ;;		_EUSART_Baud_Rate_Calculation
  2594 ;; This function uses a non-reentrant model
  2595 ;;
  2596                           
  2597                           	psect	text11
  2598  002A8E                     __ptext11:
  2599                           	callstack 0
  2600  002A8E                     ___fltol:
  2601                           	callstack 25
  2602  002A8E  3456               	rlcf	(___fltol@f1+2)^0,w,c
  2603  002A90  3457               	rlcf	(___fltol@f1+3)^0,w,c
  2604  002A92  6E5D               	movwf	___fltol@exp1^0,c
  2605  002A94  505D               	movf	___fltol@exp1^0,w,c
  2606  002A96  A4D8               	btfss	status,2,c
  2607  002A98  EF50  F015         	goto	u8881
  2608  002A9C  EF52  F015         	goto	u8880
  2609  002AA0                     u8881:
  2610  002AA0  EF5C  F015         	goto	l9016
  2611  002AA4                     u8880:
  2612  002AA4                     l9012:
  2613  002AA4  0E00               	movlw	0
  2614  002AA6  6E54               	movwf	?___fltol^0,c
  2615  002AA8  0E00               	movlw	0
  2616  002AAA  6E55               	movwf	(?___fltol+1)^0,c
  2617  002AAC  0E00               	movlw	0
  2618  002AAE  6E56               	movwf	(?___fltol+2)^0,c
  2619  002AB0  0E00               	movlw	0
  2620  002AB2  6E57               	movwf	(?___fltol+3)^0,c
  2621  002AB4  EFC9  F015         	goto	l2031
  2622  002AB8                     l9016:
  2623  002AB8  C054  F058         	movff	___fltol@f1,??___fltol
  2624  002ABC  C055  F059         	movff	___fltol@f1+1,??___fltol+1
  2625  002AC0  C056  F05A         	movff	___fltol@f1+2,??___fltol+2
  2626  002AC4  C057  F05B         	movff	___fltol@f1+3,??___fltol+3
  2627  002AC8  0E20               	movlw	32
  2628  002ACA  EF6C  F015         	goto	u8890
  2629  002ACE                     u8895:
  2630  002ACE  90D8               	bcf	status,0,c
  2631  002AD0  325B               	rrcf	(??___fltol+3)^0,f,c
  2632  002AD2  325A               	rrcf	(??___fltol+2)^0,f,c
  2633  002AD4  3259               	rrcf	(??___fltol+1)^0,f,c
  2634  002AD6  3258               	rrcf	??___fltol^0,f,c
  2635  002AD8                     u8890:
  2636  002AD8  2EE8               	decfsz	wreg,f,c
  2637  002ADA  EF67  F015         	goto	u8895
  2638  002ADE  5058               	movf	??___fltol^0,w,c
  2639  002AE0  6E5C               	movwf	___fltol@sign1^0,c
  2640  002AE2  8E56               	bsf	(___fltol@f1+2)^0,7,c
  2641  002AE4  0EFF               	movlw	255
  2642  002AE6  1654               	andwf	___fltol@f1^0,f,c
  2643  002AE8  0EFF               	movlw	255
  2644  002AEA  1655               	andwf	(___fltol@f1+1)^0,f,c
  2645  002AEC  0EFF               	movlw	255
  2646  002AEE  1656               	andwf	(___fltol@f1+2)^0,f,c
  2647  002AF0  0E00               	movlw	0
  2648  002AF2  1657               	andwf	(___fltol@f1+3)^0,f,c
  2649  002AF4  0E96               	movlw	150
  2650  002AF6  5E5D               	subwf	___fltol@exp1^0,f,c
  2651  002AF8  BE5D               	btfsc	___fltol@exp1^0,7,c
  2652  002AFA  EF83  F015         	goto	u8900
  2653  002AFE  EF81  F015         	goto	u8901
  2654  002B02                     u8901:
  2655  002B02  EF99  F015         	goto	l9036
  2656  002B06                     u8900:
  2657  002B06  505D               	movf	___fltol@exp1^0,w,c
  2658  002B08  0A80               	xorlw	128
  2659  002B0A  0F97               	addlw	151
  2660  002B0C  B0D8               	btfsc	status,0,c
  2661  002B0E  EF8B  F015         	goto	u8911
  2662  002B12  EF8D  F015         	goto	u8910
  2663  002B16                     u8911:
  2664  002B16  EF8F  F015         	goto	l9032
  2665  002B1A                     u8910:
  2666  002B1A  EF52  F015         	goto	l9012
  2667  002B1E                     l9032:
  2668  002B1E  90D8               	bcf	status,0,c
  2669  002B20  3257               	rrcf	(___fltol@f1+3)^0,f,c
  2670  002B22  3256               	rrcf	(___fltol@f1+2)^0,f,c
  2671  002B24  3255               	rrcf	(___fltol@f1+1)^0,f,c
  2672  002B26  3254               	rrcf	___fltol@f1^0,f,c
  2673  002B28  3E5D               	incfsz	___fltol@exp1^0,f,c
  2674  002B2A  EF8F  F015         	goto	l9032
  2675  002B2E  EFB1  F015         	goto	l9046
  2676  002B32                     l9036:
  2677  002B32  0E1F               	movlw	31
  2678  002B34  645D               	cpfsgt	___fltol@exp1^0,c
  2679  002B36  EF9F  F015         	goto	u8921
  2680  002B3A  EFA1  F015         	goto	u8920
  2681  002B3E                     u8921:
  2682  002B3E  EFA9  F015         	goto	l9044
  2683  002B42                     u8920:
  2684  002B42  EF52  F015         	goto	l9012
  2685  002B46                     l9042:
  2686  002B46  90D8               	bcf	status,0,c
  2687  002B48  3654               	rlcf	___fltol@f1^0,f,c
  2688  002B4A  3655               	rlcf	(___fltol@f1+1)^0,f,c
  2689  002B4C  3656               	rlcf	(___fltol@f1+2)^0,f,c
  2690  002B4E  3657               	rlcf	(___fltol@f1+3)^0,f,c
  2691  002B50  065D               	decf	___fltol@exp1^0,f,c
  2692  002B52                     l9044:
  2693  002B52  505D               	movf	___fltol@exp1^0,w,c
  2694  002B54  A4D8               	btfss	status,2,c
  2695  002B56  EFAF  F015         	goto	u8931
  2696  002B5A  EFB1  F015         	goto	u8930
  2697  002B5E                     u8931:
  2698  002B5E  EFA3  F015         	goto	l9042
  2699  002B62                     u8930:
  2700  002B62                     l9046:
  2701  002B62  505C               	movf	___fltol@sign1^0,w,c
  2702  002B64  B4D8               	btfsc	status,2,c
  2703  002B66  EFB7  F015         	goto	u8941
  2704  002B6A  EFB9  F015         	goto	u8940
  2705  002B6E                     u8941:
  2706  002B6E  EFC1  F015         	goto	l9050
  2707  002B72                     u8940:
  2708  002B72  1E57               	comf	(___fltol@f1+3)^0,f,c
  2709  002B74  1E56               	comf	(___fltol@f1+2)^0,f,c
  2710  002B76  1E55               	comf	(___fltol@f1+1)^0,f,c
  2711  002B78  6C54               	negf	___fltol@f1^0,c
  2712  002B7A  0E00               	movlw	0
  2713  002B7C  2255               	addwfc	(___fltol@f1+1)^0,f,c
  2714  002B7E  2256               	addwfc	(___fltol@f1+2)^0,f,c
  2715  002B80  2257               	addwfc	(___fltol@f1+3)^0,f,c
  2716  002B82                     l9050:
  2717  002B82  C054  F054         	movff	___fltol@f1,?___fltol
  2718  002B86  C055  F055         	movff	___fltol@f1+1,?___fltol+1
  2719  002B8A  C056  F056         	movff	___fltol@f1+2,?___fltol+2
  2720  002B8E  C057  F057         	movff	___fltol@f1+3,?___fltol+3
  2721  002B92                     l2031:
  2722  002B92  0012               	return		;funcret
  2723  002B94                     __end_of___fltol:
  2724                           	callstack 0
  2725                           
  2726 ;; *************** function ___flmul *****************
  2727 ;; Defined at:
  2728 ;;		line 8 in file "C:\Program Files\Microchip\xc8\v2.36\pic\sources\c99\common\sprcmul.c"
  2729 ;; Parameters:    Size  Location     Type
  2730 ;;  b               4   17[COMRAM] long 
  2731 ;;  a               4   21[COMRAM] long 
  2732 ;; Auto vars:     Size  Location     Type
  2733 ;;  prod            4   36[COMRAM] struct .
  2734 ;;  grs             4   31[COMRAM] unsigned long 
  2735 ;;  temp            2   40[COMRAM] struct .
  2736 ;;  bexp            1   35[COMRAM] unsigned char 
  2737 ;;  aexp            1   30[COMRAM] unsigned char 
  2738 ;;  sign            1   29[COMRAM] unsigned char 
  2739 ;; Return value:  Size  Location     Type
  2740 ;;                  4   17[COMRAM] unsigned char 
  2741 ;; Registers used:
  2742 ;;		wreg, status,2, status,0, prodl, prodh
  2743 ;; Tracked objects:
  2744 ;;		On entry : 0/0
  2745 ;;		On exit  : 0/0
  2746 ;;		Unchanged: 0/0
  2747 ;; Data sizes:     COMRAM   BANK0   BANK1   BANK2   BANK3   BANK4   BANK5   BANK6   BANK7   BANK8   BANK9  BANK10  BANK1
      +1  BANK12  BANK13  BANK14  BANK15
  2748 ;;      Params:         8       0       0       0       0       0       0       0       0       0       0       0       
      +0       0       0       0       0
  2749 ;;      Locals:        13       0       0       0       0       0       0       0       0       0       0       0       
      +0       0       0       0       0
  2750 ;;      Temps:          4       0       0       0       0       0       0       0       0       0       0       0       
      +0       0       0       0       0
  2751 ;;      Totals:        25       0       0       0       0       0       0       0       0       0       0       0       
      +0       0       0       0       0
  2752 ;;Total ram usage:       25 bytes
  2753 ;; Hardware stack levels used: 1
  2754 ;; Hardware stack levels required when called: 3
  2755 ;; This function calls:
  2756 ;;		Nothing
  2757 ;; This function is called by:
  2758 ;;		_CCP_PWM_Mode_Config
  2759 ;;		_CCP_PWM_Set_Duty
  2760 ;; This function uses a non-reentrant model
  2761 ;;
  2762                           
  2763                           	psect	text12
  2764  0014D6                     __ptext12:
  2765                           	callstack 0
  2766  0014D6                     ___flmul:
  2767                           	callstack 25
  2768  0014D6  5015               	movf	(___flmul@b+3)^0,w,c
  2769  0014D8  0B80               	andlw	128
  2770  0014DA  6E1E               	movwf	___flmul@sign^0,c
  2771  0014DC  5015               	movf	(___flmul@b+3)^0,w,c
  2772  0014DE  2415               	addwf	(___flmul@b+3)^0,w,c
  2773  0014E0  6E24               	movwf	___flmul@bexp^0,c
  2774  0014E2  AE14               	btfss	(___flmul@b+2)^0,7,c
  2775  0014E4  EF76  F00A         	goto	u8691
  2776  0014E8  EF78  F00A         	goto	u8690
  2777  0014EC                     u8691:
  2778  0014EC  EF79  F00A         	goto	l8886
  2779  0014F0                     u8690:
  2780  0014F0  8024               	bsf	___flmul@bexp^0,0,c
  2781  0014F2                     l8886:
  2782  0014F2  5024               	movf	___flmul@bexp^0,w,c
  2783  0014F4  B4D8               	btfsc	status,2,c
  2784  0014F6  EF7F  F00A         	goto	u8701
  2785  0014FA  EF81  F00A         	goto	u8700
  2786  0014FE                     u8701:
  2787  0014FE  EF94  F00A         	goto	l8894
  2788  001502                     u8700:
  2789  001502  2824               	incf	___flmul@bexp^0,w,c
  2790  001504  A4D8               	btfss	status,2,c
  2791  001506  EF87  F00A         	goto	u8711
  2792  00150A  EF89  F00A         	goto	u8710
  2793  00150E                     u8711:
  2794  00150E  EF91  F00A         	goto	l8892
  2795  001512                     u8710:
  2796  001512  0E00               	movlw	0
  2797  001514  6E12               	movwf	___flmul@b^0,c
  2798  001516  0E00               	movlw	0
  2799  001518  6E13               	movwf	(___flmul@b+1)^0,c
  2800  00151A  0E00               	movlw	0
  2801  00151C  6E14               	movwf	(___flmul@b+2)^0,c
  2802  00151E  0E00               	movlw	0
  2803  001520  6E15               	movwf	(___flmul@b+3)^0,c
  2804  001522                     l8892:
  2805  001522  8E14               	bsf	(___flmul@b+2)^0,7,c
  2806  001524  EF9C  F00A         	goto	l8896
  2807  001528                     l8894:
  2808  001528  0E00               	movlw	0
  2809  00152A  6E12               	movwf	___flmul@b^0,c
  2810  00152C  0E00               	movlw	0
  2811  00152E  6E13               	movwf	(___flmul@b+1)^0,c
  2812  001530  0E00               	movlw	0
  2813  001532  6E14               	movwf	(___flmul@b+2)^0,c
  2814  001534  0E00               	movlw	0
  2815  001536  6E15               	movwf	(___flmul@b+3)^0,c
  2816  001538                     l8896:
  2817  001538  5019               	movf	(___flmul@a+3)^0,w,c
  2818  00153A  0B80               	andlw	128
  2819  00153C  1A1E               	xorwf	___flmul@sign^0,f,c
  2820  00153E  5019               	movf	(___flmul@a+3)^0,w,c
  2821  001540  2419               	addwf	(___flmul@a+3)^0,w,c
  2822  001542  6E1F               	movwf	___flmul@aexp^0,c
  2823  001544  AE18               	btfss	(___flmul@a+2)^0,7,c
  2824  001546  EFA7  F00A         	goto	u8721
  2825  00154A  EFA9  F00A         	goto	u8720
  2826  00154E                     u8721:
  2827  00154E  EFAA  F00A         	goto	l8904
  2828  001552                     u8720:
  2829  001552  801F               	bsf	___flmul@aexp^0,0,c
  2830  001554                     l8904:
  2831  001554  501F               	movf	___flmul@aexp^0,w,c
  2832  001556  B4D8               	btfsc	status,2,c
  2833  001558  EFB0  F00A         	goto	u8731
  2834  00155C  EFB2  F00A         	goto	u8730
  2835  001560                     u8731:
  2836  001560  EFC5  F00A         	goto	l8912
  2837  001564                     u8730:
  2838  001564  281F               	incf	___flmul@aexp^0,w,c
  2839  001566  A4D8               	btfss	status,2,c
  2840  001568  EFB8  F00A         	goto	u8741
  2841  00156C  EFBA  F00A         	goto	u8740
  2842  001570                     u8741:
  2843  001570  EFC2  F00A         	goto	l8910
  2844  001574                     u8740:
  2845  001574  0E00               	movlw	0
  2846  001576  6E16               	movwf	___flmul@a^0,c
  2847  001578  0E00               	movlw	0
  2848  00157A  6E17               	movwf	(___flmul@a+1)^0,c
  2849  00157C  0E00               	movlw	0
  2850  00157E  6E18               	movwf	(___flmul@a+2)^0,c
  2851  001580  0E00               	movlw	0
  2852  001582  6E19               	movwf	(___flmul@a+3)^0,c
  2853  001584                     l8910:
  2854  001584  8E18               	bsf	(___flmul@a+2)^0,7,c
  2855  001586  EFCD  F00A         	goto	l2348
  2856  00158A                     l8912:
  2857  00158A  0E00               	movlw	0
  2858  00158C  6E16               	movwf	___flmul@a^0,c
  2859  00158E  0E00               	movlw	0
  2860  001590  6E17               	movwf	(___flmul@a+1)^0,c
  2861  001592  0E00               	movlw	0
  2862  001594  6E18               	movwf	(___flmul@a+2)^0,c
  2863  001596  0E00               	movlw	0
  2864  001598  6E19               	movwf	(___flmul@a+3)^0,c
  2865  00159A                     l2348:
  2866  00159A  501F               	movf	___flmul@aexp^0,w,c
  2867  00159C  B4D8               	btfsc	status,2,c
  2868  00159E  EFD3  F00A         	goto	u8751
  2869  0015A2  EFD5  F00A         	goto	u8750
  2870  0015A6                     u8751:
  2871  0015A6  EFDD  F00A         	goto	l8916
  2872  0015AA                     u8750:
  2873  0015AA  5024               	movf	___flmul@bexp^0,w,c
  2874  0015AC  A4D8               	btfss	status,2,c
  2875  0015AE  EFDB  F00A         	goto	u8761
  2876  0015B2  EFDD  F00A         	goto	u8760
  2877  0015B6                     u8761:
  2878  0015B6  EFE7  F00A         	goto	l8920
  2879  0015BA                     u8760:
  2880  0015BA                     l8916:
  2881  0015BA  0E00               	movlw	0
  2882  0015BC  6E12               	movwf	?___flmul^0,c
  2883  0015BE  0E00               	movlw	0
  2884  0015C0  6E13               	movwf	(?___flmul+1)^0,c
  2885  0015C2  0E00               	movlw	0
  2886  0015C4  6E14               	movwf	(?___flmul+2)^0,c
  2887  0015C6  0E00               	movlw	0
  2888  0015C8  6E15               	movwf	(?___flmul+3)^0,c
  2889  0015CA  EF7F  F00C         	goto	l2352
  2890  0015CE                     l8920:
  2891  0015CE  5018               	movf	(___flmul@a+2)^0,w,c
  2892  0015D0  0212               	mulwf	___flmul@b^0,c
  2893  0015D2  CFF3 F029          	movff	prodl,___flmul@temp
  2894  0015D6  CFF4 F02A          	movff	prodh,___flmul@temp+1
  2895  0015DA  5029               	movf	___flmul@temp^0,w,c
  2896  0015DC  6E20               	movwf	___flmul@grs^0,c
  2897  0015DE  6A21               	clrf	(___flmul@grs+1)^0,c
  2898  0015E0  6A22               	clrf	(___flmul@grs+2)^0,c
  2899  0015E2  6A23               	clrf	(___flmul@grs+3)^0,c
  2900  0015E4  502A               	movf	(___flmul@temp+1)^0,w,c
  2901  0015E6  6E25               	movwf	___flmul@prod^0,c
  2902  0015E8  6A26               	clrf	(___flmul@prod+1)^0,c
  2903  0015EA  6A27               	clrf	(___flmul@prod+2)^0,c
  2904  0015EC  6A28               	clrf	(___flmul@prod+3)^0,c
  2905  0015EE  5017               	movf	(___flmul@a+1)^0,w,c
  2906  0015F0  0213               	mulwf	(___flmul@b+1)^0,c
  2907  0015F2  CFF3 F029          	movff	prodl,___flmul@temp
  2908  0015F6  CFF4 F02A          	movff	prodh,___flmul@temp+1
  2909  0015FA  5029               	movf	___flmul@temp^0,w,c
  2910  0015FC  2620               	addwf	___flmul@grs^0,f,c
  2911  0015FE  0E00               	movlw	0
  2912  001600  2221               	addwfc	(___flmul@grs+1)^0,f,c
  2913  001602  2222               	addwfc	(___flmul@grs+2)^0,f,c
  2914  001604  2223               	addwfc	(___flmul@grs+3)^0,f,c
  2915  001606  502A               	movf	(___flmul@temp+1)^0,w,c
  2916  001608  2625               	addwf	___flmul@prod^0,f,c
  2917  00160A  0E00               	movlw	0
  2918  00160C  2226               	addwfc	(___flmul@prod+1)^0,f,c
  2919  00160E  2227               	addwfc	(___flmul@prod+2)^0,f,c
  2920  001610  2228               	addwfc	(___flmul@prod+3)^0,f,c
  2921  001612  5016               	movf	___flmul@a^0,w,c
  2922  001614  0214               	mulwf	(___flmul@b+2)^0,c
  2923  001616  CFF3 F029          	movff	prodl,___flmul@temp
  2924  00161A  CFF4 F02A          	movff	prodh,___flmul@temp+1
  2925  00161E  5029               	movf	___flmul@temp^0,w,c
  2926  001620  2620               	addwf	___flmul@grs^0,f,c
  2927  001622  0E00               	movlw	0
  2928  001624  2221               	addwfc	(___flmul@grs+1)^0,f,c
  2929  001626  2222               	addwfc	(___flmul@grs+2)^0,f,c
  2930  001628  2223               	addwfc	(___flmul@grs+3)^0,f,c
  2931  00162A  502A               	movf	(___flmul@temp+1)^0,w,c
  2932  00162C  2625               	addwf	___flmul@prod^0,f,c
  2933  00162E  0E00               	movlw	0
  2934  001630  2226               	addwfc	(___flmul@prod+1)^0,f,c
  2935  001632  2227               	addwfc	(___flmul@prod+2)^0,f,c
  2936  001634  2228               	addwfc	(___flmul@prod+3)^0,f,c
  2937  001636  C022  F023         	movff	___flmul@grs+2,___flmul@grs+3
  2938  00163A  C021  F022         	movff	___flmul@grs+1,___flmul@grs+2
  2939  00163E  C020  F021         	movff	___flmul@grs,___flmul@grs+1
  2940  001642  6A20               	clrf	___flmul@grs^0,c
  2941  001644  5016               	movf	___flmul@a^0,w,c
  2942  001646  0213               	mulwf	(___flmul@b+1)^0,c
  2943  001648  CFF3 F029          	movff	prodl,___flmul@temp
  2944  00164C  CFF4 F02A          	movff	prodh,___flmul@temp+1
  2945  001650  5029               	movf	___flmul@temp^0,w,c
  2946  001652  2620               	addwf	___flmul@grs^0,f,c
  2947  001654  502A               	movf	(___flmul@temp+1)^0,w,c
  2948  001656  2221               	addwfc	(___flmul@grs+1)^0,f,c
  2949  001658  0E00               	movlw	0
  2950  00165A  2222               	addwfc	(___flmul@grs+2)^0,f,c
  2951  00165C  0E00               	movlw	0
  2952  00165E  2223               	addwfc	(___flmul@grs+3)^0,f,c
  2953  001660  5017               	movf	(___flmul@a+1)^0,w,c
  2954  001662  0212               	mulwf	___flmul@b^0,c
  2955  001664  CFF3 F029          	movff	prodl,___flmul@temp
  2956  001668  CFF4 F02A          	movff	prodh,___flmul@temp+1
  2957  00166C  5029               	movf	___flmul@temp^0,w,c
  2958  00166E  2620               	addwf	___flmul@grs^0,f,c
  2959  001670  502A               	movf	(___flmul@temp+1)^0,w,c
  2960  001672  2221               	addwfc	(___flmul@grs+1)^0,f,c
  2961  001674  0E00               	movlw	0
  2962  001676  2222               	addwfc	(___flmul@grs+2)^0,f,c
  2963  001678  0E00               	movlw	0
  2964  00167A  2223               	addwfc	(___flmul@grs+3)^0,f,c
  2965  00167C  C022  F023         	movff	___flmul@grs+2,___flmul@grs+3
  2966  001680  C021  F022         	movff	___flmul@grs+1,___flmul@grs+2
  2967  001684  C020  F021         	movff	___flmul@grs,___flmul@grs+1
  2968  001688  6A20               	clrf	___flmul@grs^0,c
  2969  00168A  5016               	movf	___flmul@a^0,w,c
  2970  00168C  0212               	mulwf	___flmul@b^0,c
  2971  00168E  CFF3 F029          	movff	prodl,___flmul@temp
  2972  001692  CFF4 F02A          	movff	prodh,___flmul@temp+1
  2973  001696  5029               	movf	___flmul@temp^0,w,c
  2974  001698  2620               	addwf	___flmul@grs^0,f,c
  2975  00169A  502A               	movf	(___flmul@temp+1)^0,w,c
  2976  00169C  2221               	addwfc	(___flmul@grs+1)^0,f,c
  2977  00169E  0E00               	movlw	0
  2978  0016A0  2222               	addwfc	(___flmul@grs+2)^0,f,c
  2979  0016A2  0E00               	movlw	0
  2980  0016A4  2223               	addwfc	(___flmul@grs+3)^0,f,c
  2981  0016A6  5018               	movf	(___flmul@a+2)^0,w,c
  2982  0016A8  0213               	mulwf	(___flmul@b+1)^0,c
  2983  0016AA  CFF3 F029          	movff	prodl,___flmul@temp
  2984  0016AE  CFF4 F02A          	movff	prodh,___flmul@temp+1
  2985  0016B2  5029               	movf	___flmul@temp^0,w,c
  2986  0016B4  2625               	addwf	___flmul@prod^0,f,c
  2987  0016B6  502A               	movf	(___flmul@temp+1)^0,w,c
  2988  0016B8  2226               	addwfc	(___flmul@prod+1)^0,f,c
  2989  0016BA  0E00               	movlw	0
  2990  0016BC  2227               	addwfc	(___flmul@prod+2)^0,f,c
  2991  0016BE  0E00               	movlw	0
  2992  0016C0  2228               	addwfc	(___flmul@prod+3)^0,f,c
  2993  0016C2  5017               	movf	(___flmul@a+1)^0,w,c
  2994  0016C4  0214               	mulwf	(___flmul@b+2)^0,c
  2995  0016C6  CFF3 F029          	movff	prodl,___flmul@temp
  2996  0016CA  CFF4 F02A          	movff	prodh,___flmul@temp+1
  2997  0016CE  5029               	movf	___flmul@temp^0,w,c
  2998  0016D0  2625               	addwf	___flmul@prod^0,f,c
  2999  0016D2  502A               	movf	(___flmul@temp+1)^0,w,c
  3000  0016D4  2226               	addwfc	(___flmul@prod+1)^0,f,c
  3001  0016D6  0E00               	movlw	0
  3002  0016D8  2227               	addwfc	(___flmul@prod+2)^0,f,c
  3003  0016DA  0E00               	movlw	0
  3004  0016DC  2228               	addwfc	(___flmul@prod+3)^0,f,c
  3005  0016DE  5018               	movf	(___flmul@a+2)^0,w,c
  3006  0016E0  0214               	mulwf	(___flmul@b+2)^0,c
  3007  0016E2  CFF3 F029          	movff	prodl,___flmul@temp
  3008  0016E6  CFF4 F02A          	movff	prodh,___flmul@temp+1
  3009  0016EA  5029               	movf	___flmul@temp^0,w,c
  3010  0016EC  6E1A               	movwf	??___flmul^0,c
  3011  0016EE  502A               	movf	(___flmul@temp+1)^0,w,c
  3012  0016F0  6E1B               	movwf	(??___flmul+1)^0,c
  3013  0016F2  6A1C               	clrf	(??___flmul+2)^0,c
  3014  0016F4  6A1D               	clrf	(??___flmul+3)^0,c
  3015  0016F6  C01C  F01D         	movff	??___flmul+2,??___flmul+3
  3016  0016FA  C01B  F01C         	movff	??___flmul+1,??___flmul+2
  3017  0016FE  C01A  F01B         	movff	??___flmul,??___flmul+1
  3018  001702  6A1A               	clrf	??___flmul^0,c
  3019  001704  501A               	movf	??___flmul^0,w,c
  3020  001706  2625               	addwf	___flmul@prod^0,f,c
  3021  001708  501B               	movf	(??___flmul+1)^0,w,c
  3022  00170A  2226               	addwfc	(___flmul@prod+1)^0,f,c
  3023  00170C  501C               	movf	(??___flmul+2)^0,w,c
  3024  00170E  2227               	addwfc	(___flmul@prod+2)^0,f,c
  3025  001710  501D               	movf	(??___flmul+3)^0,w,c
  3026  001712  2228               	addwfc	(___flmul@prod+3)^0,f,c
  3027  001714  C020  F01A         	movff	___flmul@grs,??___flmul
  3028  001718  C021  F01B         	movff	___flmul@grs+1,??___flmul+1
  3029  00171C  C022  F01C         	movff	___flmul@grs+2,??___flmul+2
  3030  001720  C023  F01D         	movff	___flmul@grs+3,??___flmul+3
  3031  001724  0E19               	movlw	25
  3032  001726  EF9A  F00B         	goto	u8770
  3033  00172A                     u8775:
  3034  00172A  90D8               	bcf	status,0,c
  3035  00172C  321D               	rrcf	(??___flmul+3)^0,f,c
  3036  00172E  321C               	rrcf	(??___flmul+2)^0,f,c
  3037  001730  321B               	rrcf	(??___flmul+1)^0,f,c
  3038  001732  321A               	rrcf	??___flmul^0,f,c
  3039  001734                     u8770:
  3040  001734  2EE8               	decfsz	wreg,f,c
  3041  001736  EF95  F00B         	goto	u8775
  3042  00173A  501A               	movf	??___flmul^0,w,c
  3043  00173C  2625               	addwf	___flmul@prod^0,f,c
  3044  00173E  501B               	movf	(??___flmul+1)^0,w,c
  3045  001740  2226               	addwfc	(___flmul@prod+1)^0,f,c
  3046  001742  501C               	movf	(??___flmul+2)^0,w,c
  3047  001744  2227               	addwfc	(___flmul@prod+2)^0,f,c
  3048  001746  501D               	movf	(??___flmul+3)^0,w,c
  3049  001748  2228               	addwfc	(___flmul@prod+3)^0,f,c
  3050  00174A  C022  F023         	movff	___flmul@grs+2,___flmul@grs+3
  3051  00174E  C021  F022         	movff	___flmul@grs+1,___flmul@grs+2
  3052  001752  C020  F021         	movff	___flmul@grs,___flmul@grs+1
  3053  001756  6A20               	clrf	___flmul@grs^0,c
  3054  001758  501F               	movf	___flmul@aexp^0,w,c
  3055  00175A  C024  F01A         	movff	___flmul@bexp,??___flmul
  3056  00175E  6A1B               	clrf	(??___flmul+1)^0,c
  3057  001760  261A               	addwf	??___flmul^0,f,c
  3058  001762  0E00               	movlw	0
  3059  001764  221B               	addwfc	(??___flmul+1)^0,f,c
  3060  001766  0E82               	movlw	130
  3061  001768  241A               	addwf	??___flmul^0,w,c
  3062  00176A  6E29               	movwf	___flmul@temp^0,c
  3063  00176C  0EFF               	movlw	255
  3064  00176E  201B               	addwfc	(??___flmul+1)^0,w,c
  3065  001770  6E2A               	movwf	(___flmul@temp+1)^0,c
  3066  001772  EFD0  F00B         	goto	l8968
  3067  001776                     l8962:
  3068  001776  90D8               	bcf	status,0,c
  3069  001778  3625               	rlcf	___flmul@prod^0,f,c
  3070  00177A  3626               	rlcf	(___flmul@prod+1)^0,f,c
  3071  00177C  3627               	rlcf	(___flmul@prod+2)^0,f,c
  3072  00177E  3628               	rlcf	(___flmul@prod+3)^0,f,c
  3073  001780  AE23               	btfss	(___flmul@grs+3)^0,7,c
  3074  001782  EFC5  F00B         	goto	u8781
  3075  001786  EFC7  F00B         	goto	u8780
  3076  00178A                     u8781:
  3077  00178A  EFC8  F00B         	goto	l2355
  3078  00178E                     u8780:
  3079  00178E  8025               	bsf	___flmul@prod^0,0,c
  3080  001790                     l2355:
  3081  001790  90D8               	bcf	status,0,c
  3082  001792  3620               	rlcf	___flmul@grs^0,f,c
  3083  001794  3621               	rlcf	(___flmul@grs+1)^0,f,c
  3084  001796  3622               	rlcf	(___flmul@grs+2)^0,f,c
  3085  001798  3623               	rlcf	(___flmul@grs+3)^0,f,c
  3086  00179A  0629               	decf	___flmul@temp^0,f,c
  3087  00179C  A0D8               	btfss	status,0,c
  3088  00179E  062A               	decf	(___flmul@temp+1)^0,f,c
  3089  0017A0                     l8968:
  3090  0017A0  AE27               	btfss	(___flmul@prod+2)^0,7,c
  3091  0017A2  EFD5  F00B         	goto	u8791
  3092  0017A6  EFD7  F00B         	goto	u8790
  3093  0017AA                     u8791:
  3094  0017AA  EFBB  F00B         	goto	l8962
  3095  0017AE                     u8790:
  3096  0017AE  0E00               	movlw	0
  3097  0017B0  6E1F               	movwf	___flmul@aexp^0,c
  3098  0017B2  AE23               	btfss	(___flmul@grs+3)^0,7,c
  3099  0017B4  EFDE  F00B         	goto	u8801
  3100  0017B8  EFE0  F00B         	goto	u8800
  3101  0017BC                     u8801:
  3102  0017BC  EF04  F00C         	goto	l2357
  3103  0017C0                     u8800:
  3104  0017C0  0EFF               	movlw	255
  3105  0017C2  1420               	andwf	___flmul@grs^0,w,c
  3106  0017C4  6E1A               	movwf	??___flmul^0,c
  3107  0017C6  0EFF               	movlw	255
  3108  0017C8  1421               	andwf	(___flmul@grs+1)^0,w,c
  3109  0017CA  6E1B               	movwf	(??___flmul+1)^0,c
  3110  0017CC  0EFF               	movlw	255
  3111  0017CE  1422               	andwf	(___flmul@grs+2)^0,w,c
  3112  0017D0  6E1C               	movwf	(??___flmul+2)^0,c
  3113  0017D2  0E7F               	movlw	127
  3114  0017D4  1423               	andwf	(___flmul@grs+3)^0,w,c
  3115  0017D6  6E1D               	movwf	(??___flmul+3)^0,c
  3116  0017D8  501A               	movf	??___flmul^0,w,c
  3117  0017DA  101B               	iorwf	(??___flmul+1)^0,w,c
  3118  0017DC  101C               	iorwf	(??___flmul+2)^0,w,c
  3119  0017DE  101D               	iorwf	(??___flmul+3)^0,w,c
  3120  0017E0  B4D8               	btfsc	status,2,c
  3121  0017E2  EFF5  F00B         	goto	u8811
  3122  0017E6  EFF7  F00B         	goto	u8810
  3123  0017EA                     u8811:
  3124  0017EA  EFFB  F00B         	goto	l2358
  3125  0017EE                     u8810:
  3126  0017EE                     l8976:
  3127  0017EE  0E01               	movlw	1
  3128  0017F0  6E1F               	movwf	___flmul@aexp^0,c
  3129  0017F2  EF04  F00C         	goto	l2357
  3130  0017F6                     l2358:
  3131  0017F6  A025               	btfss	___flmul@prod^0,0,c
  3132  0017F8  EF00  F00C         	goto	u8821
  3133  0017FC  EF02  F00C         	goto	u8820
  3134  001800                     u8821:
  3135  001800  EF04  F00C         	goto	l2357
  3136  001804                     u8820:
  3137  001804  EFF7  F00B         	goto	l8976
  3138  001808                     l2357:
  3139  001808  501F               	movf	___flmul@aexp^0,w,c
  3140  00180A  B4D8               	btfsc	status,2,c
  3141  00180C  EF0A  F00C         	goto	u8831
  3142  001810  EF0C  F00C         	goto	u8830
  3143  001814                     u8831:
  3144  001814  EF30  F00C         	goto	l8988
  3145  001818                     u8830:
  3146  001818  0E01               	movlw	1
  3147  00181A  2625               	addwf	___flmul@prod^0,f,c
  3148  00181C  0E00               	movlw	0
  3149  00181E  2226               	addwfc	(___flmul@prod+1)^0,f,c
  3150  001820  2227               	addwfc	(___flmul@prod+2)^0,f,c
  3151  001822  2228               	addwfc	(___flmul@prod+3)^0,f,c
  3152  001824  A028               	btfss	(___flmul@prod+3)^0,0,c
  3153  001826  EF17  F00C         	goto	u8841
  3154  00182A  EF19  F00C         	goto	u8840
  3155  00182E                     u8841:
  3156  00182E  EF30  F00C         	goto	l8988
  3157  001832                     u8840:
  3158  001832  C025  F01A         	movff	___flmul@prod,??___flmul
  3159  001836  C026  F01B         	movff	___flmul@prod+1,??___flmul+1
  3160  00183A  C027  F01C         	movff	___flmul@prod+2,??___flmul+2
  3161  00183E  C028  F01D         	movff	___flmul@prod+3,??___flmul+3
  3162  001842  341D               	rlcf	(??___flmul+3)^0,w,c
  3163  001844  321D               	rrcf	(??___flmul+3)^0,f,c
  3164  001846  321C               	rrcf	(??___flmul+2)^0,f,c
  3165  001848  321B               	rrcf	(??___flmul+1)^0,f,c
  3166  00184A  321A               	rrcf	??___flmul^0,f,c
  3167  00184C  C01A  F025         	movff	??___flmul,___flmul@prod
  3168  001850  C01B  F026         	movff	??___flmul+1,___flmul@prod+1
  3169  001854  C01C  F027         	movff	??___flmul+2,___flmul@prod+2
  3170  001858  C01D  F028         	movff	??___flmul+3,___flmul@prod+3
  3171  00185C  4A29               	infsnz	___flmul@temp^0,f,c
  3172  00185E  2A2A               	incf	(___flmul@temp+1)^0,f,c
  3173  001860                     l8988:
  3174  001860  BE2A               	btfsc	(___flmul@temp+1)^0,7,c
  3175  001862  EF3B  F00C         	goto	u8851
  3176  001866  502A               	movf	(___flmul@temp+1)^0,w,c
  3177  001868  E108               	bnz	u8850
  3178  00186A  2829               	incf	___flmul@temp^0,w,c
  3179  00186C  A0D8               	btfss	status,0,c
  3180  00186E  EF3B  F00C         	goto	u8851
  3181  001872  EF3D  F00C         	goto	u8850
  3182  001876                     u8851:
  3183  001876  EF47  F00C         	goto	l8992
  3184  00187A                     u8850:
  3185  00187A  0E00               	movlw	0
  3186  00187C  6E25               	movwf	___flmul@prod^0,c
  3187  00187E  0E00               	movlw	0
  3188  001880  6E26               	movwf	(___flmul@prod+1)^0,c
  3189  001882  0E80               	movlw	128
  3190  001884  6E27               	movwf	(___flmul@prod+2)^0,c
  3191  001886  0E7F               	movlw	127
  3192  001888  6E28               	movwf	(___flmul@prod+3)^0,c
  3193  00188A  EF75  F00C         	goto	l9004
  3194  00188E                     l8992:
  3195  00188E  BE2A               	btfsc	(___flmul@temp+1)^0,7,c
  3196  001890  EF54  F00C         	goto	u8860
  3197  001894  502A               	movf	(___flmul@temp+1)^0,w,c
  3198  001896  E106               	bnz	u8861
  3199  001898  0429               	decf	___flmul@temp^0,w,c
  3200  00189A  B0D8               	btfsc	status,0,c
  3201  00189C  EF52  F00C         	goto	u8861
  3202  0018A0  EF54  F00C         	goto	u8860
  3203  0018A4                     u8861:
  3204  0018A4  EF60  F00C         	goto	l2365
  3205  0018A8                     u8860:
  3206  0018A8  0E00               	movlw	0
  3207  0018AA  6E25               	movwf	___flmul@prod^0,c
  3208  0018AC  0E00               	movlw	0
  3209  0018AE  6E26               	movwf	(___flmul@prod+1)^0,c
  3210  0018B0  0E00               	movlw	0
  3211  0018B2  6E27               	movwf	(___flmul@prod+2)^0,c
  3212  0018B4  0E00               	movlw	0
  3213  0018B6  6E28               	movwf	(___flmul@prod+3)^0,c
  3214  0018B8  0E00               	movlw	0
  3215  0018BA  6E1E               	movwf	___flmul@sign^0,c
  3216  0018BC  EF75  F00C         	goto	l9004
  3217  0018C0                     l2365:
  3218  0018C0  C029  F024         	movff	___flmul@temp,___flmul@bexp
  3219  0018C4  0EFF               	movlw	255
  3220  0018C6  1625               	andwf	___flmul@prod^0,f,c
  3221  0018C8  0EFF               	movlw	255
  3222  0018CA  1626               	andwf	(___flmul@prod+1)^0,f,c
  3223  0018CC  0E7F               	movlw	127
  3224  0018CE  1627               	andwf	(___flmul@prod+2)^0,f,c
  3225  0018D0  0E00               	movlw	0
  3226  0018D2  1628               	andwf	(___flmul@prod+3)^0,f,c
  3227  0018D4  A024               	btfss	___flmul@bexp^0,0,c
  3228  0018D6  EF6F  F00C         	goto	u8871
  3229  0018DA  EF71  F00C         	goto	u8870
  3230  0018DE                     u8871:
  3231  0018DE  EF72  F00C         	goto	l9002
  3232  0018E2                     u8870:
  3233  0018E2  8E27               	bsf	(___flmul@prod+2)^0,7,c
  3234  0018E4                     l9002:
  3235  0018E4  90D8               	bcf	status,0,c
  3236  0018E6  3024               	rrcf	___flmul@bexp^0,w,c
  3237  0018E8  6E28               	movwf	(___flmul@prod+3)^0,c
  3238  0018EA                     l9004:
  3239  0018EA  501E               	movf	___flmul@sign^0,w,c
  3240  0018EC  1228               	iorwf	(___flmul@prod+3)^0,f,c
  3241  0018EE  C025  F012         	movff	___flmul@prod,?___flmul
  3242  0018F2  C026  F013         	movff	___flmul@prod+1,?___flmul+1
  3243  0018F6  C027  F014         	movff	___flmul@prod+2,?___flmul+2
  3244  0018FA  C028  F015         	movff	___flmul@prod+3,?___flmul+3
  3245  0018FE                     l2352:
  3246  0018FE  0012               	return		;funcret
  3247  001900                     __end_of___flmul:
  3248                           	callstack 0
  3249                           
  3250 ;; *************** function ___fldiv *****************
  3251 ;; Defined at:
  3252 ;;		line 11 in file "C:\Program Files\Microchip\xc8\v2.36\pic\sources\c99\common\sprcdiv.c"
  3253 ;; Parameters:    Size  Location     Type
  3254 ;;  b               4   42[COMRAM] unsigned char 
  3255 ;;  a               4   46[COMRAM] unsigned char 
  3256 ;; Auto vars:     Size  Location     Type
  3257 ;;  grs             4   61[COMRAM] unsigned long 
  3258 ;;  rem             4   54[COMRAM] unsigned long 
  3259 ;;  new_exp         2   59[COMRAM] short 
  3260 ;;  aexp            1   66[COMRAM] unsigned char 
  3261 ;;  bexp            1   65[COMRAM] unsigned char 
  3262 ;;  sign            1   58[COMRAM] unsigned char 
  3263 ;; Return value:  Size  Location     Type
  3264 ;;                  4   42[COMRAM] unsigned char 
  3265 ;; Registers used:
  3266 ;;		wreg, status,2, status,0
  3267 ;; Tracked objects:
  3268 ;;		On entry : 0/0
  3269 ;;		On exit  : 0/0
  3270 ;;		Unchanged: 0/0
  3271 ;; Data sizes:     COMRAM   BANK0   BANK1   BANK2   BANK3   BANK4   BANK5   BANK6   BANK7   BANK8   BANK9  BANK10  BANK1
      +1  BANK12  BANK13  BANK14  BANK15
  3272 ;;      Params:         8       0       0       0       0       0       0       0       0       0       0       0       
      +0       0       0       0       0
  3273 ;;      Locals:        13       0       0       0       0       0       0       0       0       0       0       0       
      +0       0       0       0       0
  3274 ;;      Temps:          4       0       0       0       0       0       0       0       0       0       0       0       
      +0       0       0       0       0
  3275 ;;      Totals:        25       0       0       0       0       0       0       0       0       0       0       0       
      +0       0       0       0       0
  3276 ;;Total ram usage:       25 bytes
  3277 ;; Hardware stack levels used: 1
  3278 ;; Hardware stack levels required when called: 3
  3279 ;; This function calls:
  3280 ;;		Nothing
  3281 ;; This function is called by:
  3282 ;;		_CCP_PWM_Mode_Config
  3283 ;;		_Ultrasonic_Calculate_Distance
  3284 ;;		_CCP_PWM_Set_Duty
  3285 ;;		_I2C_Master_Mode_Clock_Configurations
  3286 ;;		_EUSART_Baud_Rate_Calculation
  3287 ;; This function uses a non-reentrant model
  3288 ;;
  3289                           
  3290                           	psect	text13
  3291  001D16                     __ptext13:
  3292                           	callstack 0
  3293  001D16                     ___fldiv:
  3294                           	callstack 25
  3295  001D16  502E               	movf	(___fldiv@b+3)^0,w,c
  3296  001D18  0B80               	andlw	128
  3297  001D1A  6E3B               	movwf	___fldiv@sign^0,c
  3298  001D1C  502E               	movf	(___fldiv@b+3)^0,w,c
  3299  001D1E  242E               	addwf	(___fldiv@b+3)^0,w,c
  3300  001D20  6E42               	movwf	___fldiv@bexp^0,c
  3301  001D22  AE2D               	btfss	(___fldiv@b+2)^0,7,c
  3302  001D24  EF96  F00E         	goto	u8461
  3303  001D28  EF98  F00E         	goto	u8460
  3304  001D2C                     u8461:
  3305  001D2C  EF99  F00E         	goto	l8748
  3306  001D30                     u8460:
  3307  001D30  8042               	bsf	___fldiv@bexp^0,0,c
  3308  001D32                     l8748:
  3309  001D32  5042               	movf	___fldiv@bexp^0,w,c
  3310  001D34  B4D8               	btfsc	status,2,c
  3311  001D36  EF9F  F00E         	goto	u8471
  3312  001D3A  EFA1  F00E         	goto	u8470
  3313  001D3E                     u8471:
  3314  001D3E  EFB6  F00E         	goto	l8758
  3315  001D42                     u8470:
  3316  001D42  2842               	incf	___fldiv@bexp^0,w,c
  3317  001D44  A4D8               	btfss	status,2,c
  3318  001D46  EFA7  F00E         	goto	u8481
  3319  001D4A  EFA9  F00E         	goto	u8480
  3320  001D4E                     u8481:
  3321  001D4E  EFB1  F00E         	goto	l8754
  3322  001D52                     u8480:
  3323  001D52  0E00               	movlw	0
  3324  001D54  6E2B               	movwf	___fldiv@b^0,c
  3325  001D56  0E00               	movlw	0
  3326  001D58  6E2C               	movwf	(___fldiv@b+1)^0,c
  3327  001D5A  0E00               	movlw	0
  3328  001D5C  6E2D               	movwf	(___fldiv@b+2)^0,c
  3329  001D5E  0E00               	movlw	0
  3330  001D60  6E2E               	movwf	(___fldiv@b+3)^0,c
  3331  001D62                     l8754:
  3332  001D62  8E2D               	bsf	(___fldiv@b+2)^0,7,c
  3333  001D64  0E00               	movlw	0
  3334  001D66  6E2E               	movwf	(___fldiv@b+3)^0,c
  3335  001D68  EFBE  F00E         	goto	l8760
  3336  001D6C                     l8758:
  3337  001D6C  0E00               	movlw	0
  3338  001D6E  6E2B               	movwf	___fldiv@b^0,c
  3339  001D70  0E00               	movlw	0
  3340  001D72  6E2C               	movwf	(___fldiv@b+1)^0,c
  3341  001D74  0E00               	movlw	0
  3342  001D76  6E2D               	movwf	(___fldiv@b+2)^0,c
  3343  001D78  0E00               	movlw	0
  3344  001D7A  6E2E               	movwf	(___fldiv@b+3)^0,c
  3345  001D7C                     l8760:
  3346  001D7C  5032               	movf	(___fldiv@a+3)^0,w,c
  3347  001D7E  0B80               	andlw	128
  3348  001D80  1A3B               	xorwf	___fldiv@sign^0,f,c
  3349  001D82  5032               	movf	(___fldiv@a+3)^0,w,c
  3350  001D84  2432               	addwf	(___fldiv@a+3)^0,w,c
  3351  001D86  6E43               	movwf	___fldiv@aexp^0,c
  3352  001D88  AE31               	btfss	(___fldiv@a+2)^0,7,c
  3353  001D8A  EFC9  F00E         	goto	u8491
  3354  001D8E  EFCB  F00E         	goto	u8490
  3355  001D92                     u8491:
  3356  001D92  EFCC  F00E         	goto	l8768
  3357  001D96                     u8490:
  3358  001D96  8043               	bsf	___fldiv@aexp^0,0,c
  3359  001D98                     l8768:
  3360  001D98  5043               	movf	___fldiv@aexp^0,w,c
  3361  001D9A  B4D8               	btfsc	status,2,c
  3362  001D9C  EFD2  F00E         	goto	u8501
  3363  001DA0  EFD4  F00E         	goto	u8500
  3364  001DA4                     u8501:
  3365  001DA4  EFE9  F00E         	goto	l8778
  3366  001DA8                     u8500:
  3367  001DA8  2843               	incf	___fldiv@aexp^0,w,c
  3368  001DAA  A4D8               	btfss	status,2,c
  3369  001DAC  EFDA  F00E         	goto	u8511
  3370  001DB0  EFDC  F00E         	goto	u8510
  3371  001DB4                     u8511:
  3372  001DB4  EFE4  F00E         	goto	l8774
  3373  001DB8                     u8510:
  3374  001DB8  0E00               	movlw	0
  3375  001DBA  6E2F               	movwf	___fldiv@a^0,c
  3376  001DBC  0E00               	movlw	0
  3377  001DBE  6E30               	movwf	(___fldiv@a+1)^0,c
  3378  001DC0  0E00               	movlw	0
  3379  001DC2  6E31               	movwf	(___fldiv@a+2)^0,c
  3380  001DC4  0E00               	movlw	0
  3381  001DC6  6E32               	movwf	(___fldiv@a+3)^0,c
  3382  001DC8                     l8774:
  3383  001DC8  8E31               	bsf	(___fldiv@a+2)^0,7,c
  3384  001DCA  0E00               	movlw	0
  3385  001DCC  6E32               	movwf	(___fldiv@a+3)^0,c
  3386  001DCE  EFF1  F00E         	goto	l8780
  3387  001DD2                     l8778:
  3388  001DD2  0E00               	movlw	0
  3389  001DD4  6E2F               	movwf	___fldiv@a^0,c
  3390  001DD6  0E00               	movlw	0
  3391  001DD8  6E30               	movwf	(___fldiv@a+1)^0,c
  3392  001DDA  0E00               	movlw	0
  3393  001DDC  6E31               	movwf	(___fldiv@a+2)^0,c
  3394  001DDE  0E00               	movlw	0
  3395  001DE0  6E32               	movwf	(___fldiv@a+3)^0,c
  3396  001DE2                     l8780:
  3397  001DE2  502F               	movf	___fldiv@a^0,w,c
  3398  001DE4  1030               	iorwf	(___fldiv@a+1)^0,w,c
  3399  001DE6  1031               	iorwf	(___fldiv@a+2)^0,w,c
  3400  001DE8  1032               	iorwf	(___fldiv@a+3)^0,w,c
  3401  001DEA  A4D8               	btfss	status,2,c
  3402  001DEC  EFFA  F00E         	goto	u8521
  3403  001DF0  EFFC  F00E         	goto	u8520
  3404  001DF4                     u8521:
  3405  001DF4  EF14  F00F         	goto	l8792
  3406  001DF8                     u8520:
  3407  001DF8  0E00               	movlw	0
  3408  001DFA  6E2B               	movwf	___fldiv@b^0,c
  3409  001DFC  0E00               	movlw	0
  3410  001DFE  6E2C               	movwf	(___fldiv@b+1)^0,c
  3411  001E00  0E00               	movlw	0
  3412  001E02  6E2D               	movwf	(___fldiv@b+2)^0,c
  3413  001E04  0E00               	movlw	0
  3414  001E06  6E2E               	movwf	(___fldiv@b+3)^0,c
  3415  001E08  0E80               	movlw	128
  3416  001E0A  122D               	iorwf	(___fldiv@b+2)^0,f,c
  3417  001E0C  0E7F               	movlw	127
  3418  001E0E  122E               	iorwf	(___fldiv@b+3)^0,f,c
  3419  001E10                     l8786:
  3420  001E10  503B               	movf	___fldiv@sign^0,w,c
  3421  001E12  122E               	iorwf	(___fldiv@b+3)^0,f,c
  3422  001E14  C02B  F02B         	movff	___fldiv@b,?___fldiv
  3423  001E18  C02C  F02C         	movff	___fldiv@b+1,?___fldiv+1
  3424  001E1C  C02D  F02D         	movff	___fldiv@b+2,?___fldiv+2
  3425  001E20  C02E  F02E         	movff	___fldiv@b+3,?___fldiv+3
  3426  001E24  EF57  F010         	goto	l2316
  3427  001E28                     l8792:
  3428  001E28  5042               	movf	___fldiv@bexp^0,w,c
  3429  001E2A  A4D8               	btfss	status,2,c
  3430  001E2C  EF1A  F00F         	goto	u8531
  3431  001E30  EF1C  F00F         	goto	u8530
  3432  001E34                     u8531:
  3433  001E34  EF26  F00F         	goto	l8800
  3434  001E38                     u8530:
  3435  001E38  0E00               	movlw	0
  3436  001E3A  6E2B               	movwf	?___fldiv^0,c
  3437  001E3C  0E00               	movlw	0
  3438  001E3E  6E2C               	movwf	(?___fldiv+1)^0,c
  3439  001E40  0E00               	movlw	0
  3440  001E42  6E2D               	movwf	(?___fldiv+2)^0,c
  3441  001E44  0E00               	movlw	0
  3442  001E46  6E2E               	movwf	(?___fldiv+3)^0,c
  3443  001E48  EF57  F010         	goto	l2316
  3444  001E4C                     l8800:
  3445  001E4C  5043               	movf	___fldiv@aexp^0,w,c
  3446  001E4E  C042  F033         	movff	___fldiv@bexp,??___fldiv
  3447  001E52  6A34               	clrf	(??___fldiv+1)^0,c
  3448  001E54  5E33               	subwf	??___fldiv^0,f,c
  3449  001E56  0E00               	movlw	0
  3450  001E58  5A34               	subwfb	(??___fldiv+1)^0,f,c
  3451  001E5A  0E7F               	movlw	127
  3452  001E5C  2433               	addwf	??___fldiv^0,w,c
  3453  001E5E  6E3C               	movwf	___fldiv@new_exp^0,c
  3454  001E60  0E00               	movlw	0
  3455  001E62  2034               	addwfc	(??___fldiv+1)^0,w,c
  3456  001E64  6E3D               	movwf	(___fldiv@new_exp+1)^0,c
  3457  001E66  C02B  F037         	movff	___fldiv@b,___fldiv@rem
  3458  001E6A  C02C  F038         	movff	___fldiv@b+1,___fldiv@rem+1
  3459  001E6E  C02D  F039         	movff	___fldiv@b+2,___fldiv@rem+2
  3460  001E72  C02E  F03A         	movff	___fldiv@b+3,___fldiv@rem+3
  3461  001E76  0E00               	movlw	0
  3462  001E78  6E2B               	movwf	___fldiv@b^0,c
  3463  001E7A  0E00               	movlw	0
  3464  001E7C  6E2C               	movwf	(___fldiv@b+1)^0,c
  3465  001E7E  0E00               	movlw	0
  3466  001E80  6E2D               	movwf	(___fldiv@b+2)^0,c
  3467  001E82  0E00               	movlw	0
  3468  001E84  6E2E               	movwf	(___fldiv@b+3)^0,c
  3469  001E86  0E00               	movlw	0
  3470  001E88  6E3E               	movwf	___fldiv@grs^0,c
  3471  001E8A  0E00               	movlw	0
  3472  001E8C  6E3F               	movwf	(___fldiv@grs+1)^0,c
  3473  001E8E  0E00               	movlw	0
  3474  001E90  6E40               	movwf	(___fldiv@grs+2)^0,c
  3475  001E92  0E00               	movlw	0
  3476  001E94  6E41               	movwf	(___fldiv@grs+3)^0,c
  3477  001E96  0E00               	movlw	0
  3478  001E98  6E43               	movwf	___fldiv@aexp^0,c
  3479  001E9A  EF87  F00F         	goto	l2318
  3480  001E9E                     l8810:
  3481  001E9E  5043               	movf	___fldiv@aexp^0,w,c
  3482  001EA0  B4D8               	btfsc	status,2,c
  3483  001EA2  EF55  F00F         	goto	u8541
  3484  001EA6  EF57  F00F         	goto	u8540
  3485  001EAA                     u8541:
  3486  001EAA  EF6E  F00F         	goto	l8818
  3487  001EAE                     u8540:
  3488  001EAE  90D8               	bcf	status,0,c
  3489  001EB0  3637               	rlcf	___fldiv@rem^0,f,c
  3490  001EB2  3638               	rlcf	(___fldiv@rem+1)^0,f,c
  3491  001EB4  3639               	rlcf	(___fldiv@rem+2)^0,f,c
  3492  001EB6  363A               	rlcf	(___fldiv@rem+3)^0,f,c
  3493  001EB8  90D8               	bcf	status,0,c
  3494  001EBA  362B               	rlcf	___fldiv@b^0,f,c
  3495  001EBC  362C               	rlcf	(___fldiv@b+1)^0,f,c
  3496  001EBE  362D               	rlcf	(___fldiv@b+2)^0,f,c
  3497  001EC0  362E               	rlcf	(___fldiv@b+3)^0,f,c
  3498  001EC2  AE41               	btfss	(___fldiv@grs+3)^0,7,c
  3499  001EC4  EF66  F00F         	goto	u8551
  3500  001EC8  EF68  F00F         	goto	u8550
  3501  001ECC                     u8551:
  3502  001ECC  EF69  F00F         	goto	l2321
  3503  001ED0                     u8550:
  3504  001ED0  802B               	bsf	___fldiv@b^0,0,c
  3505  001ED2                     l2321:
  3506  001ED2  90D8               	bcf	status,0,c
  3507  001ED4  363E               	rlcf	___fldiv@grs^0,f,c
  3508  001ED6  363F               	rlcf	(___fldiv@grs+1)^0,f,c
  3509  001ED8  3640               	rlcf	(___fldiv@grs+2)^0,f,c
  3510  001EDA  3641               	rlcf	(___fldiv@grs+3)^0,f,c
  3511  001EDC                     l8818:
  3512  001EDC  502F               	movf	___fldiv@a^0,w,c
  3513  001EDE  5C37               	subwf	___fldiv@rem^0,w,c
  3514  001EE0  5030               	movf	(___fldiv@a+1)^0,w,c
  3515  001EE2  5838               	subwfb	(___fldiv@rem+1)^0,w,c
  3516  001EE4  5031               	movf	(___fldiv@a+2)^0,w,c
  3517  001EE6  5839               	subwfb	(___fldiv@rem+2)^0,w,c
  3518  001EE8  5032               	movf	(___fldiv@a+3)^0,w,c
  3519  001EEA  583A               	subwfb	(___fldiv@rem+3)^0,w,c
  3520  001EEC  A0D8               	btfss	status,0,c
  3521  001EEE  EF7B  F00F         	goto	u8561
  3522  001EF2  EF7D  F00F         	goto	u8560
  3523  001EF6                     u8561:
  3524  001EF6  EF86  F00F         	goto	l8824
  3525  001EFA                     u8560:
  3526  001EFA  8C41               	bsf	(___fldiv@grs+3)^0,6,c
  3527  001EFC  502F               	movf	___fldiv@a^0,w,c
  3528  001EFE  5E37               	subwf	___fldiv@rem^0,f,c
  3529  001F00  5030               	movf	(___fldiv@a+1)^0,w,c
  3530  001F02  5A38               	subwfb	(___fldiv@rem+1)^0,f,c
  3531  001F04  5031               	movf	(___fldiv@a+2)^0,w,c
  3532  001F06  5A39               	subwfb	(___fldiv@rem+2)^0,f,c
  3533  001F08  5032               	movf	(___fldiv@a+3)^0,w,c
  3534  001F0A  5A3A               	subwfb	(___fldiv@rem+3)^0,f,c
  3535  001F0C                     l8824:
  3536  001F0C  2A43               	incf	___fldiv@aexp^0,f,c
  3537  001F0E                     l2318:
  3538  001F0E  0E19               	movlw	25
  3539  001F10  6443               	cpfsgt	___fldiv@aexp^0,c
  3540  001F12  EF8D  F00F         	goto	u8571
  3541  001F16  EF8F  F00F         	goto	u8570
  3542  001F1A                     u8571:
  3543  001F1A  EF4F  F00F         	goto	l8810
  3544  001F1E                     u8570:
  3545  001F1E  5037               	movf	___fldiv@rem^0,w,c
  3546  001F20  1038               	iorwf	(___fldiv@rem+1)^0,w,c
  3547  001F22  1039               	iorwf	(___fldiv@rem+2)^0,w,c
  3548  001F24  103A               	iorwf	(___fldiv@rem+3)^0,w,c
  3549  001F26  B4D8               	btfsc	status,2,c
  3550  001F28  EF98  F00F         	goto	u8581
  3551  001F2C  EF9A  F00F         	goto	u8580
  3552  001F30                     u8581:
  3553  001F30  EFB2  F00F         	goto	l8836
  3554  001F34                     u8580:
  3555  001F34  803E               	bsf	___fldiv@grs^0,0,c
  3556  001F36  EFB2  F00F         	goto	l8836
  3557  001F3A                     l8830:
  3558  001F3A  90D8               	bcf	status,0,c
  3559  001F3C  362B               	rlcf	___fldiv@b^0,f,c
  3560  001F3E  362C               	rlcf	(___fldiv@b+1)^0,f,c
  3561  001F40  362D               	rlcf	(___fldiv@b+2)^0,f,c
  3562  001F42  362E               	rlcf	(___fldiv@b+3)^0,f,c
  3563  001F44  AE41               	btfss	(___fldiv@grs+3)^0,7,c
  3564  001F46  EFA7  F00F         	goto	u8591
  3565  001F4A  EFA9  F00F         	goto	u8590
  3566  001F4E                     u8591:
  3567  001F4E  EFAA  F00F         	goto	l2327
  3568  001F52                     u8590:
  3569  001F52  802B               	bsf	___fldiv@b^0,0,c
  3570  001F54                     l2327:
  3571  001F54  90D8               	bcf	status,0,c
  3572  001F56  363E               	rlcf	___fldiv@grs^0,f,c
  3573  001F58  363F               	rlcf	(___fldiv@grs+1)^0,f,c
  3574  001F5A  3640               	rlcf	(___fldiv@grs+2)^0,f,c
  3575  001F5C  3641               	rlcf	(___fldiv@grs+3)^0,f,c
  3576  001F5E  063C               	decf	___fldiv@new_exp^0,f,c
  3577  001F60  A0D8               	btfss	status,0,c
  3578  001F62  063D               	decf	(___fldiv@new_exp+1)^0,f,c
  3579  001F64                     l8836:
  3580  001F64  AE2D               	btfss	(___fldiv@b+2)^0,7,c
  3581  001F66  EFB7  F00F         	goto	u8601
  3582  001F6A  EFB9  F00F         	goto	u8600
  3583  001F6E                     u8601:
  3584  001F6E  EF9D  F00F         	goto	l8830
  3585  001F72                     u8600:
  3586  001F72  0E00               	movlw	0
  3587  001F74  6E43               	movwf	___fldiv@aexp^0,c
  3588  001F76  AE41               	btfss	(___fldiv@grs+3)^0,7,c
  3589  001F78  EFC0  F00F         	goto	u8611
  3590  001F7C  EFC2  F00F         	goto	u8610
  3591  001F80                     u8611:
  3592  001F80  EFE6  F00F         	goto	l2329
  3593  001F84                     u8610:
  3594  001F84  0EFF               	movlw	255
  3595  001F86  143E               	andwf	___fldiv@grs^0,w,c
  3596  001F88  6E33               	movwf	??___fldiv^0,c
  3597  001F8A  0EFF               	movlw	255
  3598  001F8C  143F               	andwf	(___fldiv@grs+1)^0,w,c
  3599  001F8E  6E34               	movwf	(??___fldiv+1)^0,c
  3600  001F90  0EFF               	movlw	255
  3601  001F92  1440               	andwf	(___fldiv@grs+2)^0,w,c
  3602  001F94  6E35               	movwf	(??___fldiv+2)^0,c
  3603  001F96  0E7F               	movlw	127
  3604  001F98  1441               	andwf	(___fldiv@grs+3)^0,w,c
  3605  001F9A  6E36               	movwf	(??___fldiv+3)^0,c
  3606  001F9C  5033               	movf	??___fldiv^0,w,c
  3607  001F9E  1034               	iorwf	(??___fldiv+1)^0,w,c
  3608  001FA0  1035               	iorwf	(??___fldiv+2)^0,w,c
  3609  001FA2  1036               	iorwf	(??___fldiv+3)^0,w,c
  3610  001FA4  B4D8               	btfsc	status,2,c
  3611  001FA6  EFD7  F00F         	goto	u8621
  3612  001FAA  EFD9  F00F         	goto	u8620
  3613  001FAE                     u8621:
  3614  001FAE  EFDD  F00F         	goto	l2330
  3615  001FB2                     u8620:
  3616  001FB2                     l8844:
  3617  001FB2  0E01               	movlw	1
  3618  001FB4  6E43               	movwf	___fldiv@aexp^0,c
  3619  001FB6  EFE6  F00F         	goto	l2329
  3620  001FBA                     l2330:
  3621  001FBA  A02B               	btfss	___fldiv@b^0,0,c
  3622  001FBC  EFE2  F00F         	goto	u8631
  3623  001FC0  EFE4  F00F         	goto	u8630
  3624  001FC4                     u8631:
  3625  001FC4  EFE6  F00F         	goto	l2329
  3626  001FC8                     u8630:
  3627  001FC8  EFD9  F00F         	goto	l8844
  3628  001FCC                     l2329:
  3629  001FCC  5043               	movf	___fldiv@aexp^0,w,c
  3630  001FCE  B4D8               	btfsc	status,2,c
  3631  001FD0  EFEC  F00F         	goto	u8641
  3632  001FD4  EFEE  F00F         	goto	u8640
  3633  001FD8                     u8641:
  3634  001FD8  EF12  F010         	goto	l8856
  3635  001FDC                     u8640:
  3636  001FDC  0E01               	movlw	1
  3637  001FDE  262B               	addwf	___fldiv@b^0,f,c
  3638  001FE0  0E00               	movlw	0
  3639  001FE2  222C               	addwfc	(___fldiv@b+1)^0,f,c
  3640  001FE4  222D               	addwfc	(___fldiv@b+2)^0,f,c
  3641  001FE6  222E               	addwfc	(___fldiv@b+3)^0,f,c
  3642  001FE8  A02E               	btfss	(___fldiv@b+3)^0,0,c
  3643  001FEA  EFF9  F00F         	goto	u8651
  3644  001FEE  EFFB  F00F         	goto	u8650
  3645  001FF2                     u8651:
  3646  001FF2  EF12  F010         	goto	l8856
  3647  001FF6                     u8650:
  3648  001FF6  C02B  F033         	movff	___fldiv@b,??___fldiv
  3649  001FFA  C02C  F034         	movff	___fldiv@b+1,??___fldiv+1
  3650  001FFE  C02D  F035         	movff	___fldiv@b+2,??___fldiv+2
  3651  002002  C02E  F036         	movff	___fldiv@b+3,??___fldiv+3
  3652  002006  3436               	rlcf	(??___fldiv+3)^0,w,c
  3653  002008  3236               	rrcf	(??___fldiv+3)^0,f,c
  3654  00200A  3235               	rrcf	(??___fldiv+2)^0,f,c
  3655  00200C  3234               	rrcf	(??___fldiv+1)^0,f,c
  3656  00200E  3233               	rrcf	??___fldiv^0,f,c
  3657  002010  C033  F02B         	movff	??___fldiv,___fldiv@b
  3658  002014  C034  F02C         	movff	??___fldiv+1,___fldiv@b+1
  3659  002018  C035  F02D         	movff	??___fldiv+2,___fldiv@b+2
  3660  00201C  C036  F02E         	movff	??___fldiv+3,___fldiv@b+3
  3661  002020  4A3C               	infsnz	___fldiv@new_exp^0,f,c
  3662  002022  2A3D               	incf	(___fldiv@new_exp+1)^0,f,c
  3663  002024                     l8856:
  3664  002024  BE3D               	btfsc	(___fldiv@new_exp+1)^0,7,c
  3665  002026  EF1D  F010         	goto	u8661
  3666  00202A  503D               	movf	(___fldiv@new_exp+1)^0,w,c
  3667  00202C  E108               	bnz	u8660
  3668  00202E  283C               	incf	___fldiv@new_exp^0,w,c
  3669  002030  A0D8               	btfss	status,0,c
  3670  002032  EF1D  F010         	goto	u8661
  3671  002036  EF1F  F010         	goto	u8660
  3672  00203A                     u8661:
  3673  00203A  EF2A  F010         	goto	l8860
  3674  00203E                     u8660:
  3675  00203E  0E00               	movlw	0
  3676  002040  6E3D               	movwf	(___fldiv@new_exp+1)^0,c
  3677  002042  683C               	setf	___fldiv@new_exp^0,c
  3678  002044  0E00               	movlw	0
  3679  002046  6E2B               	movwf	___fldiv@b^0,c
  3680  002048  0E00               	movlw	0
  3681  00204A  6E2C               	movwf	(___fldiv@b+1)^0,c
  3682  00204C  0E00               	movlw	0
  3683  00204E  6E2D               	movwf	(___fldiv@b+2)^0,c
  3684  002050  0E00               	movlw	0
  3685  002052  6E2E               	movwf	(___fldiv@b+3)^0,c
  3686  002054                     l8860:
  3687  002054  BE3D               	btfsc	(___fldiv@new_exp+1)^0,7,c
  3688  002056  EF37  F010         	goto	u8670
  3689  00205A  503D               	movf	(___fldiv@new_exp+1)^0,w,c
  3690  00205C  E106               	bnz	u8671
  3691  00205E  043C               	decf	___fldiv@new_exp^0,w,c
  3692  002060  B0D8               	btfsc	status,0,c
  3693  002062  EF35  F010         	goto	u8671
  3694  002066  EF37  F010         	goto	u8670
  3695  00206A                     u8671:
  3696  00206A  EF45  F010         	goto	l8864
  3697  00206E                     u8670:
  3698  00206E  0E00               	movlw	0
  3699  002070  6E3D               	movwf	(___fldiv@new_exp+1)^0,c
  3700  002072  0E00               	movlw	0
  3701  002074  6E3C               	movwf	___fldiv@new_exp^0,c
  3702  002076  0E00               	movlw	0
  3703  002078  6E2B               	movwf	___fldiv@b^0,c
  3704  00207A  0E00               	movlw	0
  3705  00207C  6E2C               	movwf	(___fldiv@b+1)^0,c
  3706  00207E  0E00               	movlw	0
  3707  002080  6E2D               	movwf	(___fldiv@b+2)^0,c
  3708  002082  0E00               	movlw	0
  3709  002084  6E2E               	movwf	(___fldiv@b+3)^0,c
  3710  002086  0E00               	movlw	0
  3711  002088  6E3B               	movwf	___fldiv@sign^0,c
  3712  00208A                     l8864:
  3713  00208A  C03C  F042         	movff	___fldiv@new_exp,___fldiv@bexp
  3714  00208E  A042               	btfss	___fldiv@bexp^0,0,c
  3715  002090  EF4C  F010         	goto	u8681
  3716  002094  EF4E  F010         	goto	u8680
  3717  002098                     u8681:
  3718  002098  EF51  F010         	goto	l8870
  3719  00209C                     u8680:
  3720  00209C  8E2D               	bsf	(___fldiv@b+2)^0,7,c
  3721  00209E  EF52  F010         	goto	l8872
  3722  0020A2                     l8870:
  3723  0020A2  9E2D               	bcf	(___fldiv@b+2)^0,7,c
  3724  0020A4                     l8872:
  3725  0020A4  90D8               	bcf	status,0,c
  3726  0020A6  3042               	rrcf	___fldiv@bexp^0,w,c
  3727  0020A8  6E2E               	movwf	(___fldiv@b+3)^0,c
  3728  0020AA  EF08  F00F         	goto	l8786
  3729  0020AE                     l2316:
  3730  0020AE  0012               	return		;funcret
  3731  0020B0                     __end_of___fldiv:
  3732                           	callstack 0
  3733                           
  3734 ;; *************** function ___fladd *****************
  3735 ;; Defined at:
  3736 ;;		line 10 in file "C:\Program Files\Microchip\xc8\v2.36\pic\sources\c99\common\sprcadd.c"
  3737 ;; Parameters:    Size  Location     Type
  3738 ;;  b               4   67[COMRAM] unsigned char 
  3739 ;;  a               4   71[COMRAM] unsigned char 
  3740 ;; Auto vars:     Size  Location     Type
  3741 ;;  grs             1   82[COMRAM] unsigned char 
  3742 ;;  bexp            1   81[COMRAM] unsigned char 
  3743 ;;  aexp            1   80[COMRAM] unsigned char 
  3744 ;;  signs           1   79[COMRAM] unsigned char 
  3745 ;; Return value:  Size  Location     Type
  3746 ;;                  4   67[COMRAM] unsigned char 
  3747 ;; Registers used:
  3748 ;;		wreg, status,2, status,0
  3749 ;; Tracked objects:
  3750 ;;		On entry : 0/0
  3751 ;;		On exit  : 0/0
  3752 ;;		Unchanged: 0/0
  3753 ;; Data sizes:     COMRAM   BANK0   BANK1   BANK2   BANK3   BANK4   BANK5   BANK6   BANK7   BANK8   BANK9  BANK10  BANK1
      +1  BANK12  BANK13  BANK14  BANK15
  3754 ;;      Params:         8       0       0       0       0       0       0       0       0       0       0       0       
      +0       0       0       0       0
  3755 ;;      Locals:         4       0       0       0       0       0       0       0       0       0       0       0       
      +0       0       0       0       0
  3756 ;;      Temps:          4       0       0       0       0       0       0       0       0       0       0       0       
      +0       0       0       0       0
  3757 ;;      Totals:        16       0       0       0       0       0       0       0       0       0       0       0       
      +0       0       0       0       0
  3758 ;;Total ram usage:       16 bytes
  3759 ;; Hardware stack levels used: 1
  3760 ;; Hardware stack levels required when called: 3
  3761 ;; This function calls:
  3762 ;;		Nothing
  3763 ;; This function is called by:
  3764 ;;		_CCP_PWM_Mode_Config
  3765 ;;		_CCP_PWM_Set_Duty
  3766 ;;		_I2C_Master_Mode_Clock_Configurations
  3767 ;;		_EUSART_Baud_Rate_Calculation
  3768 ;; This function uses a non-reentrant model
  3769 ;;
  3770                           
  3771                           	psect	text14
  3772  001016                     __ptext14:
  3773                           	callstack 0
  3774  001016                     ___fladd:
  3775                           	callstack 25
  3776  001016  5047               	movf	(___fladd@b+3)^0,w,c
  3777  001018  0B80               	andlw	128
  3778  00101A  6E50               	movwf	___fladd@signs^0,c
  3779  00101C  5047               	movf	(___fladd@b+3)^0,w,c
  3780  00101E  2447               	addwf	(___fladd@b+3)^0,w,c
  3781  001020  6E52               	movwf	___fladd@bexp^0,c
  3782  001022  AE46               	btfss	(___fladd@b+2)^0,7,c
  3783  001024  EF16  F008         	goto	u8071
  3784  001028  EF18  F008         	goto	u8070
  3785  00102C                     u8071:
  3786  00102C  EF19  F008         	goto	l8546
  3787  001030                     u8070:
  3788  001030  8052               	bsf	___fladd@bexp^0,0,c
  3789  001032                     l8546:
  3790  001032  5052               	movf	___fladd@bexp^0,w,c
  3791  001034  B4D8               	btfsc	status,2,c
  3792  001036  EF1F  F008         	goto	u8081
  3793  00103A  EF21  F008         	goto	u8080
  3794  00103E                     u8081:
  3795  00103E  EF36  F008         	goto	l8556
  3796  001042                     u8080:
  3797  001042  2852               	incf	___fladd@bexp^0,w,c
  3798  001044  A4D8               	btfss	status,2,c
  3799  001046  EF27  F008         	goto	u8091
  3800  00104A  EF29  F008         	goto	u8090
  3801  00104E                     u8091:
  3802  00104E  EF31  F008         	goto	l8552
  3803  001052                     u8090:
  3804  001052  0E00               	movlw	0
  3805  001054  6E44               	movwf	___fladd@b^0,c
  3806  001056  0E00               	movlw	0
  3807  001058  6E45               	movwf	(___fladd@b+1)^0,c
  3808  00105A  0E00               	movlw	0
  3809  00105C  6E46               	movwf	(___fladd@b+2)^0,c
  3810  00105E  0E00               	movlw	0
  3811  001060  6E47               	movwf	(___fladd@b+3)^0,c
  3812  001062                     l8552:
  3813  001062  8E46               	bsf	(___fladd@b+2)^0,7,c
  3814  001064  0E00               	movlw	0
  3815  001066  6E47               	movwf	(___fladd@b+3)^0,c
  3816  001068  EF3E  F008         	goto	l8558
  3817  00106C                     l8556:
  3818  00106C  0E00               	movlw	0
  3819  00106E  6E44               	movwf	___fladd@b^0,c
  3820  001070  0E00               	movlw	0
  3821  001072  6E45               	movwf	(___fladd@b+1)^0,c
  3822  001074  0E00               	movlw	0
  3823  001076  6E46               	movwf	(___fladd@b+2)^0,c
  3824  001078  0E00               	movlw	0
  3825  00107A  6E47               	movwf	(___fladd@b+3)^0,c
  3826  00107C                     l8558:
  3827  00107C  504B               	movf	(___fladd@a+3)^0,w,c
  3828  00107E  0B80               	andlw	128
  3829  001080  6E51               	movwf	___fladd@aexp^0,c
  3830  001082  5050               	movf	___fladd@signs^0,w,c
  3831  001084  1851               	xorwf	___fladd@aexp^0,w,c
  3832  001086  B4D8               	btfsc	status,2,c
  3833  001088  EF48  F008         	goto	u8101
  3834  00108C  EF4A  F008         	goto	u8100
  3835  001090                     u8101:
  3836  001090  EF4B  F008         	goto	l8564
  3837  001094                     u8100:
  3838  001094  8C50               	bsf	___fladd@signs^0,6,c
  3839  001096                     l8564:
  3840  001096  504B               	movf	(___fladd@a+3)^0,w,c
  3841  001098  244B               	addwf	(___fladd@a+3)^0,w,c
  3842  00109A  6E51               	movwf	___fladd@aexp^0,c
  3843  00109C  AE4A               	btfss	(___fladd@a+2)^0,7,c
  3844  00109E  EF53  F008         	goto	u8111
  3845  0010A2  EF55  F008         	goto	u8110
  3846  0010A6                     u8111:
  3847  0010A6  EF56  F008         	goto	l8570
  3848  0010AA                     u8110:
  3849  0010AA  8051               	bsf	___fladd@aexp^0,0,c
  3850  0010AC                     l8570:
  3851  0010AC  5051               	movf	___fladd@aexp^0,w,c
  3852  0010AE  B4D8               	btfsc	status,2,c
  3853  0010B0  EF5C  F008         	goto	u8121
  3854  0010B4  EF5E  F008         	goto	u8120
  3855  0010B8                     u8121:
  3856  0010B8  EF73  F008         	goto	l8580
  3857  0010BC                     u8120:
  3858  0010BC  2851               	incf	___fladd@aexp^0,w,c
  3859  0010BE  A4D8               	btfss	status,2,c
  3860  0010C0  EF64  F008         	goto	u8131
  3861  0010C4  EF66  F008         	goto	u8130
  3862  0010C8                     u8131:
  3863  0010C8  EF6E  F008         	goto	l8576
  3864  0010CC                     u8130:
  3865  0010CC  0E00               	movlw	0
  3866  0010CE  6E48               	movwf	___fladd@a^0,c
  3867  0010D0  0E00               	movlw	0
  3868  0010D2  6E49               	movwf	(___fladd@a+1)^0,c
  3869  0010D4  0E00               	movlw	0
  3870  0010D6  6E4A               	movwf	(___fladd@a+2)^0,c
  3871  0010D8  0E00               	movlw	0
  3872  0010DA  6E4B               	movwf	(___fladd@a+3)^0,c
  3873  0010DC                     l8576:
  3874  0010DC  8E4A               	bsf	(___fladd@a+2)^0,7,c
  3875  0010DE  0E00               	movlw	0
  3876  0010E0  6E4B               	movwf	(___fladd@a+3)^0,c
  3877  0010E2  EF7B  F008         	goto	l8582
  3878  0010E6                     l8580:
  3879  0010E6  0E00               	movlw	0
  3880  0010E8  6E48               	movwf	___fladd@a^0,c
  3881  0010EA  0E00               	movlw	0
  3882  0010EC  6E49               	movwf	(___fladd@a+1)^0,c
  3883  0010EE  0E00               	movlw	0
  3884  0010F0  6E4A               	movwf	(___fladd@a+2)^0,c
  3885  0010F2  0E00               	movlw	0
  3886  0010F4  6E4B               	movwf	(___fladd@a+3)^0,c
  3887  0010F6                     l8582:
  3888  0010F6  5052               	movf	___fladd@bexp^0,w,c
  3889  0010F8  5C51               	subwf	___fladd@aexp^0,w,c
  3890  0010FA  B0D8               	btfsc	status,0,c
  3891  0010FC  EF82  F008         	goto	u8141
  3892  001100  EF84  F008         	goto	u8140
  3893  001104                     u8141:
  3894  001104  EFAB  F008         	goto	l8618
  3895  001108                     u8140:
  3896  001108  AC50               	btfss	___fladd@signs^0,6,c
  3897  00110A  EF89  F008         	goto	u8151
  3898  00110E  EF8B  F008         	goto	u8150
  3899  001112                     u8151:
  3900  001112  EF8D  F008         	goto	l8588
  3901  001116                     u8150:
  3902  001116  0E80               	movlw	128
  3903  001118  1A50               	xorwf	___fladd@signs^0,f,c
  3904  00111A                     l8588:
  3905  00111A  C052  F053         	movff	___fladd@bexp,___fladd@grs
  3906  00111E  C051  F052         	movff	___fladd@aexp,___fladd@bexp
  3907  001122  C053  F051         	movff	___fladd@grs,___fladd@aexp
  3908  001126  C044  F053         	movff	___fladd@b,___fladd@grs
  3909  00112A  C048  F044         	movff	___fladd@a,___fladd@b
  3910  00112E  C053  F048         	movff	___fladd@grs,___fladd@a
  3911  001132  C045  F053         	movff	___fladd@b+1,___fladd@grs
  3912  001136  C049  F045         	movff	___fladd@a+1,___fladd@b+1
  3913  00113A  C053  F049         	movff	___fladd@grs,___fladd@a+1
  3914  00113E  C046  F053         	movff	___fladd@b+2,___fladd@grs
  3915  001142  C04A  F046         	movff	___fladd@a+2,___fladd@b+2
  3916  001146  C053  F04A         	movff	___fladd@grs,___fladd@a+2
  3917  00114A  C047  F053         	movff	___fladd@b+3,___fladd@grs
  3918  00114E  C04B  F047         	movff	___fladd@a+3,___fladd@b+3
  3919  001152  C053  F04B         	movff	___fladd@grs,___fladd@a+3
  3920  001156                     l8618:
  3921  001156  0E00               	movlw	0
  3922  001158  6E53               	movwf	___fladd@grs^0,c
  3923  00115A  5052               	movf	___fladd@bexp^0,w,c
  3924  00115C  C051  F04C         	movff	___fladd@aexp,??___fladd
  3925  001160  6A4D               	clrf	(??___fladd+1)^0,c
  3926  001162  5E4C               	subwf	??___fladd^0,f,c
  3927  001164  0E00               	movlw	0
  3928  001166  5A4D               	subwfb	(??___fladd+1)^0,f,c
  3929  001168  BE4D               	btfsc	(??___fladd+1)^0,7,c
  3930  00116A  EFC0  F008         	goto	u8161
  3931  00116E  504D               	movf	(??___fladd+1)^0,w,c
  3932  001170  E109               	bnz	u8160
  3933  001172  0E1A               	movlw	26
  3934  001174  5C4C               	subwf	??___fladd^0,w,c
  3935  001176  A0D8               	btfss	status,0,c
  3936  001178  EFC0  F008         	goto	u8161
  3937  00117C  EFC2  F008         	goto	u8160
  3938  001180                     u8161:
  3939  001180  EFF9  F008         	goto	l2263
  3940  001184                     u8160:
  3941  001184  5044               	movf	___fladd@b^0,w,c
  3942  001186  1045               	iorwf	(___fladd@b+1)^0,w,c
  3943  001188  1046               	iorwf	(___fladd@b+2)^0,w,c
  3944  00118A  1047               	iorwf	(___fladd@b+3)^0,w,c
  3945  00118C  A4D8               	btfss	status,2,c
  3946  00118E  EFCB  F008         	goto	u8171
  3947  001192  EFCE  F008         	goto	u8170
  3948  001196                     u8171:
  3949  001196  0E01               	movlw	1
  3950  001198  EFCF  F008         	goto	u8180
  3951  00119C                     u8170:
  3952  00119C  0E00               	movlw	0
  3953  00119E                     u8180:
  3954  00119E  6E53               	movwf	___fladd@grs^0,c
  3955  0011A0  0E00               	movlw	0
  3956  0011A2  6E44               	movwf	___fladd@b^0,c
  3957  0011A4  0E00               	movlw	0
  3958  0011A6  6E45               	movwf	(___fladd@b+1)^0,c
  3959  0011A8  0E00               	movlw	0
  3960  0011AA  6E46               	movwf	(___fladd@b+2)^0,c
  3961  0011AC  0E00               	movlw	0
  3962  0011AE  6E47               	movwf	(___fladd@b+3)^0,c
  3963  0011B0  C051  F052         	movff	___fladd@aexp,___fladd@bexp
  3964  0011B4  EF02  F009         	goto	l2262
  3965  0011B8                     l2264:
  3966  0011B8  A053               	btfss	___fladd@grs^0,0,c
  3967  0011BA  EFE1  F008         	goto	u8191
  3968  0011BE  EFE3  F008         	goto	u8190
  3969  0011C2                     u8191:
  3970  0011C2  EFE9  F008         	goto	l8630
  3971  0011C6                     u8190:
  3972  0011C6  90D8               	bcf	status,0,c
  3973  0011C8  3053               	rrcf	___fladd@grs^0,w,c
  3974  0011CA  0901               	iorlw	1
  3975  0011CC  6E53               	movwf	___fladd@grs^0,c
  3976  0011CE  EFEB  F008         	goto	l8632
  3977  0011D2                     l8630:
  3978  0011D2  90D8               	bcf	status,0,c
  3979  0011D4  3253               	rrcf	___fladd@grs^0,f,c
  3980  0011D6                     l8632:
  3981  0011D6  A044               	btfss	___fladd@b^0,0,c
  3982  0011D8  EFF0  F008         	goto	u8201
  3983  0011DC  EFF2  F008         	goto	u8200
  3984  0011E0                     u8201:
  3985  0011E0  EFF3  F008         	goto	l8636
  3986  0011E4                     u8200:
  3987  0011E4  8E53               	bsf	___fladd@grs^0,7,c
  3988  0011E6                     l8636:
  3989  0011E6  3447               	rlcf	(___fladd@b+3)^0,w,c
  3990  0011E8  3247               	rrcf	(___fladd@b+3)^0,f,c
  3991  0011EA  3246               	rrcf	(___fladd@b+2)^0,f,c
  3992  0011EC  3245               	rrcf	(___fladd@b+1)^0,f,c
  3993  0011EE  3244               	rrcf	___fladd@b^0,f,c
  3994  0011F0  2A52               	incf	___fladd@bexp^0,f,c
  3995  0011F2                     l2263:
  3996  0011F2  5051               	movf	___fladd@aexp^0,w,c
  3997  0011F4  5C52               	subwf	___fladd@bexp^0,w,c
  3998  0011F6  A0D8               	btfss	status,0,c
  3999  0011F8  EF00  F009         	goto	u8211
  4000  0011FC  EF02  F009         	goto	u8210
  4001  001200                     u8211:
  4002  001200  EFDC  F008         	goto	l2264
  4003  001204                     u8210:
  4004  001204                     l2262:
  4005  001204  BC50               	btfsc	___fladd@signs^0,6,c
  4006  001206  EF07  F009         	goto	u8221
  4007  00120A  EF09  F009         	goto	u8220
  4008  00120E                     u8221:
  4009  00120E  EF49  F009         	goto	l8664
  4010  001212                     u8220:
  4011  001212  5052               	movf	___fladd@bexp^0,w,c
  4012  001214  A4D8               	btfss	status,2,c
  4013  001216  EF0F  F009         	goto	u8231
  4014  00121A  EF11  F009         	goto	u8230
  4015  00121E                     u8231:
  4016  00121E  EF1B  F009         	goto	l8646
  4017  001222                     u8230:
  4018  001222  0E00               	movlw	0
  4019  001224  6E44               	movwf	?___fladd^0,c
  4020  001226  0E00               	movlw	0
  4021  001228  6E45               	movwf	(?___fladd+1)^0,c
  4022  00122A  0E00               	movlw	0
  4023  00122C  6E46               	movwf	(?___fladd+2)^0,c
  4024  00122E  0E00               	movlw	0
  4025  001230  6E47               	movwf	(?___fladd+3)^0,c
  4026  001232  EF6A  F00A         	goto	l2271
  4027  001236                     l8646:
  4028  001236  5048               	movf	___fladd@a^0,w,c
  4029  001238  2644               	addwf	___fladd@b^0,f,c
  4030  00123A  5049               	movf	(___fladd@a+1)^0,w,c
  4031  00123C  2245               	addwfc	(___fladd@b+1)^0,f,c
  4032  00123E  504A               	movf	(___fladd@a+2)^0,w,c
  4033  001240  2246               	addwfc	(___fladd@b+2)^0,f,c
  4034  001242  504B               	movf	(___fladd@a+3)^0,w,c
  4035  001244  2247               	addwfc	(___fladd@b+3)^0,f,c
  4036  001246  A047               	btfss	(___fladd@b+3)^0,0,c
  4037  001248  EF28  F009         	goto	u8241
  4038  00124C  EF2A  F009         	goto	u8240
  4039  001250                     u8241:
  4040  001250  EFD6  F009         	goto	l8700
  4041  001254                     u8240:
  4042  001254  A053               	btfss	___fladd@grs^0,0,c
  4043  001256  EF2F  F009         	goto	u8251
  4044  00125A  EF31  F009         	goto	u8250
  4045  00125E                     u8251:
  4046  00125E  EF37  F009         	goto	l8654
  4047  001262                     u8250:
  4048  001262  90D8               	bcf	status,0,c
  4049  001264  3053               	rrcf	___fladd@grs^0,w,c
  4050  001266  0901               	iorlw	1
  4051  001268  6E53               	movwf	___fladd@grs^0,c
  4052  00126A  EF39  F009         	goto	l8656
  4053  00126E                     l8654:
  4054  00126E  90D8               	bcf	status,0,c
  4055  001270  3253               	rrcf	___fladd@grs^0,f,c
  4056  001272                     l8656:
  4057  001272  A044               	btfss	___fladd@b^0,0,c
  4058  001274  EF3E  F009         	goto	u8261
  4059  001278  EF40  F009         	goto	u8260
  4060  00127C                     u8261:
  4061  00127C  EF41  F009         	goto	l8660
  4062  001280                     u8260:
  4063  001280  8E53               	bsf	___fladd@grs^0,7,c
  4064  001282                     l8660:
  4065  001282  3447               	rlcf	(___fladd@b+3)^0,w,c
  4066  001284  3247               	rrcf	(___fladd@b+3)^0,f,c
  4067  001286  3246               	rrcf	(___fladd@b+2)^0,f,c
  4068  001288  3245               	rrcf	(___fladd@b+1)^0,f,c
  4069  00128A  3244               	rrcf	___fladd@b^0,f,c
  4070  00128C  2A52               	incf	___fladd@bexp^0,f,c
  4071  00128E  EFD6  F009         	goto	l8700
  4072  001292                     l8664:
  4073  001292  5048               	movf	___fladd@a^0,w,c
  4074  001294  5C44               	subwf	___fladd@b^0,w,c
  4075  001296  5049               	movf	(___fladd@a+1)^0,w,c
  4076  001298  5845               	subwfb	(___fladd@b+1)^0,w,c
  4077  00129A  504A               	movf	(___fladd@a+2)^0,w,c
  4078  00129C  5846               	subwfb	(___fladd@b+2)^0,w,c
  4079  00129E  5047               	movf	(___fladd@b+3)^0,w,c
  4080  0012A0  0A80               	xorlw	128
  4081  0012A2  6E4C               	movwf	??___fladd^0,c
  4082  0012A4  504B               	movf	(___fladd@a+3)^0,w,c
  4083  0012A6  0A80               	xorlw	128
  4084  0012A8  584C               	subwfb	??___fladd^0,w,c
  4085  0012AA  B0D8               	btfsc	status,0,c
  4086  0012AC  EF5A  F009         	goto	u8271
  4087  0012B0  EF5C  F009         	goto	u8270
  4088  0012B4                     u8271:
  4089  0012B4  EF87  F009         	goto	l8674
  4090  0012B8                     u8270:
  4091  0012B8  5044               	movf	___fladd@b^0,w,c
  4092  0012BA  5C48               	subwf	___fladd@a^0,w,c
  4093  0012BC  6E4C               	movwf	??___fladd^0,c
  4094  0012BE  5045               	movf	(___fladd@b+1)^0,w,c
  4095  0012C0  5849               	subwfb	(___fladd@a+1)^0,w,c
  4096  0012C2  6E4D               	movwf	(??___fladd+1)^0,c
  4097  0012C4  5046               	movf	(___fladd@b+2)^0,w,c
  4098  0012C6  584A               	subwfb	(___fladd@a+2)^0,w,c
  4099  0012C8  6E4E               	movwf	(??___fladd+2)^0,c
  4100  0012CA  5047               	movf	(___fladd@b+3)^0,w,c
  4101  0012CC  584B               	subwfb	(___fladd@a+3)^0,w,c
  4102  0012CE  6E4F               	movwf	(??___fladd+3)^0,c
  4103  0012D0  0EFF               	movlw	255
  4104  0012D2  244C               	addwf	??___fladd^0,w,c
  4105  0012D4  6E44               	movwf	___fladd@b^0,c
  4106  0012D6  0EFF               	movlw	255
  4107  0012D8  204D               	addwfc	(??___fladd+1)^0,w,c
  4108  0012DA  6E45               	movwf	(___fladd@b+1)^0,c
  4109  0012DC  0EFF               	movlw	255
  4110  0012DE  204E               	addwfc	(??___fladd+2)^0,w,c
  4111  0012E0  6E46               	movwf	(___fladd@b+2)^0,c
  4112  0012E2  0EFF               	movlw	255
  4113  0012E4  204F               	addwfc	(??___fladd+3)^0,w,c
  4114  0012E6  6E47               	movwf	(___fladd@b+3)^0,c
  4115  0012E8  0E80               	movlw	128
  4116  0012EA  1A50               	xorwf	___fladd@signs^0,f,c
  4117  0012EC  6C53               	negf	___fladd@grs^0,c
  4118  0012EE  5053               	movf	___fladd@grs^0,w,c
  4119  0012F0  A4D8               	btfss	status,2,c
  4120  0012F2  EF7D  F009         	goto	u8281
  4121  0012F6  EF7F  F009         	goto	u8280
  4122  0012FA                     u8281:
  4123  0012FA  EF8F  F009         	goto	l2279
  4124  0012FE                     u8280:
  4125  0012FE  0E01               	movlw	1
  4126  001300  2644               	addwf	___fladd@b^0,f,c
  4127  001302  0E00               	movlw	0
  4128  001304  2245               	addwfc	(___fladd@b+1)^0,f,c
  4129  001306  2246               	addwfc	(___fladd@b+2)^0,f,c
  4130  001308  2247               	addwfc	(___fladd@b+3)^0,f,c
  4131  00130A  EF8F  F009         	goto	l2279
  4132  00130E                     l8674:
  4133  00130E  5048               	movf	___fladd@a^0,w,c
  4134  001310  5E44               	subwf	___fladd@b^0,f,c
  4135  001312  5049               	movf	(___fladd@a+1)^0,w,c
  4136  001314  5A45               	subwfb	(___fladd@b+1)^0,f,c
  4137  001316  504A               	movf	(___fladd@a+2)^0,w,c
  4138  001318  5A46               	subwfb	(___fladd@b+2)^0,f,c
  4139  00131A  504B               	movf	(___fladd@a+3)^0,w,c
  4140  00131C  5A47               	subwfb	(___fladd@b+3)^0,f,c
  4141  00131E                     l2279:
  4142  00131E  5044               	movf	___fladd@b^0,w,c
  4143  001320  1045               	iorwf	(___fladd@b+1)^0,w,c
  4144  001322  1046               	iorwf	(___fladd@b+2)^0,w,c
  4145  001324  1047               	iorwf	(___fladd@b+3)^0,w,c
  4146  001326  A4D8               	btfss	status,2,c
  4147  001328  EF98  F009         	goto	u8291
  4148  00132C  EF9A  F009         	goto	u8290
  4149  001330                     u8291:
  4150  001330  EFCF  F009         	goto	l8698
  4151  001334                     u8290:
  4152  001334  5053               	movf	___fladd@grs^0,w,c
  4153  001336  A4D8               	btfss	status,2,c
  4154  001338  EFA0  F009         	goto	u8301
  4155  00133C  EFA2  F009         	goto	u8300
  4156  001340                     u8301:
  4157  001340  EFCF  F009         	goto	l8698
  4158  001344                     u8300:
  4159  001344  0E00               	movlw	0
  4160  001346  6E44               	movwf	?___fladd^0,c
  4161  001348  0E00               	movlw	0
  4162  00134A  6E45               	movwf	(?___fladd+1)^0,c
  4163  00134C  0E00               	movlw	0
  4164  00134E  6E46               	movwf	(?___fladd+2)^0,c
  4165  001350  0E00               	movlw	0
  4166  001352  6E47               	movwf	(?___fladd+3)^0,c
  4167  001354  EF6A  F00A         	goto	l2271
  4168  001358                     l8682:
  4169  001358  90D8               	bcf	status,0,c
  4170  00135A  3644               	rlcf	___fladd@b^0,f,c
  4171  00135C  3645               	rlcf	(___fladd@b+1)^0,f,c
  4172  00135E  3646               	rlcf	(___fladd@b+2)^0,f,c
  4173  001360  3647               	rlcf	(___fladd@b+3)^0,f,c
  4174  001362  AE53               	btfss	___fladd@grs^0,7,c
  4175  001364  EFB6  F009         	goto	u8311
  4176  001368  EFB8  F009         	goto	u8310
  4177  00136C                     u8311:
  4178  00136C  EFB9  F009         	goto	l8688
  4179  001370                     u8310:
  4180  001370  8044               	bsf	___fladd@b^0,0,c
  4181  001372                     l8688:
  4182  001372  A053               	btfss	___fladd@grs^0,0,c
  4183  001374  EFBE  F009         	goto	u8321
  4184  001378  EFC0  F009         	goto	u8320
  4185  00137C                     u8321:
  4186  00137C  EFC4  F009         	goto	l8692
  4187  001380                     u8320:
  4188  001380  80D8               	bsf	status,0,c
  4189  001382  3653               	rlcf	___fladd@grs^0,f,c
  4190  001384  EFC6  F009         	goto	l8694
  4191  001388                     l8692:
  4192  001388  90D8               	bcf	status,0,c
  4193  00138A  3653               	rlcf	___fladd@grs^0,f,c
  4194  00138C                     l8694:
  4195  00138C  5052               	movf	___fladd@bexp^0,w,c
  4196  00138E  B4D8               	btfsc	status,2,c
  4197  001390  EFCC  F009         	goto	u8331
  4198  001394  EFCE  F009         	goto	u8330
  4199  001398                     u8331:
  4200  001398  EFCF  F009         	goto	l8698
  4201  00139C                     u8330:
  4202  00139C  0652               	decf	___fladd@bexp^0,f,c
  4203  00139E                     l8698:
  4204  00139E  AE46               	btfss	(___fladd@b+2)^0,7,c
  4205  0013A0  EFD4  F009         	goto	u8341
  4206  0013A4  EFD6  F009         	goto	u8340
  4207  0013A8                     u8341:
  4208  0013A8  EFAC  F009         	goto	l8682
  4209  0013AC                     u8340:
  4210  0013AC                     l8700:
  4211  0013AC  0E00               	movlw	0
  4212  0013AE  6E51               	movwf	___fladd@aexp^0,c
  4213  0013B0  AE53               	btfss	___fladd@grs^0,7,c
  4214  0013B2  EFDD  F009         	goto	u8351
  4215  0013B6  EFDF  F009         	goto	u8350
  4216  0013BA                     u8351:
  4217  0013BA  EFF7  F009         	goto	l2288
  4218  0013BE                     u8350:
  4219  0013BE  C053  F04C         	movff	___fladd@grs,??___fladd
  4220  0013C2  0E7F               	movlw	127
  4221  0013C4  164C               	andwf	??___fladd^0,f,c
  4222  0013C6  B4D8               	btfsc	status,2,c
  4223  0013C8  EFE8  F009         	goto	u8361
  4224  0013CC  EFEA  F009         	goto	u8360
  4225  0013D0                     u8361:
  4226  0013D0  EFEE  F009         	goto	l2289
  4227  0013D4                     u8360:
  4228  0013D4                     l8706:
  4229  0013D4  0E01               	movlw	1
  4230  0013D6  6E51               	movwf	___fladd@aexp^0,c
  4231  0013D8  EFF7  F009         	goto	l2288
  4232  0013DC                     l2289:
  4233  0013DC  A044               	btfss	___fladd@b^0,0,c
  4234  0013DE  EFF3  F009         	goto	u8371
  4235  0013E2  EFF5  F009         	goto	u8370
  4236  0013E6                     u8371:
  4237  0013E6  EFF7  F009         	goto	l2288
  4238  0013EA                     u8370:
  4239  0013EA  EFEA  F009         	goto	l8706
  4240  0013EE                     l2288:
  4241  0013EE  5051               	movf	___fladd@aexp^0,w,c
  4242  0013F0  B4D8               	btfsc	status,2,c
  4243  0013F2  EFFD  F009         	goto	u8381
  4244  0013F6  EFFF  F009         	goto	u8380
  4245  0013FA                     u8381:
  4246  0013FA  EF2A  F00A         	goto	l8718
  4247  0013FE                     u8380:
  4248  0013FE  0E01               	movlw	1
  4249  001400  2644               	addwf	___fladd@b^0,f,c
  4250  001402  0E00               	movlw	0
  4251  001404  2245               	addwfc	(___fladd@b+1)^0,f,c
  4252  001406  2246               	addwfc	(___fladd@b+2)^0,f,c
  4253  001408  2247               	addwfc	(___fladd@b+3)^0,f,c
  4254  00140A  A047               	btfss	(___fladd@b+3)^0,0,c
  4255  00140C  EF0A  F00A         	goto	u8391
  4256  001410  EF0C  F00A         	goto	u8390
  4257  001414                     u8391:
  4258  001414  EF2A  F00A         	goto	l8718
  4259  001418                     u8390:
  4260  001418  C044  F04C         	movff	___fladd@b,??___fladd
  4261  00141C  C045  F04D         	movff	___fladd@b+1,??___fladd+1
  4262  001420  C046  F04E         	movff	___fladd@b+2,??___fladd+2
  4263  001424  C047  F04F         	movff	___fladd@b+3,??___fladd+3
  4264  001428  344F               	rlcf	(??___fladd+3)^0,w,c
  4265  00142A  324F               	rrcf	(??___fladd+3)^0,f,c
  4266  00142C  324E               	rrcf	(??___fladd+2)^0,f,c
  4267  00142E  324D               	rrcf	(??___fladd+1)^0,f,c
  4268  001430  324C               	rrcf	??___fladd^0,f,c
  4269  001432  C04C  F044         	movff	??___fladd,___fladd@b
  4270  001436  C04D  F045         	movff	??___fladd+1,___fladd@b+1
  4271  00143A  C04E  F046         	movff	??___fladd+2,___fladd@b+2
  4272  00143E  C04F  F047         	movff	??___fladd+3,___fladd@b+3
  4273  001442  2852               	incf	___fladd@bexp^0,w,c
  4274  001444  B4D8               	btfsc	status,2,c
  4275  001446  EF27  F00A         	goto	u8401
  4276  00144A  EF29  F00A         	goto	u8400
  4277  00144E                     u8401:
  4278  00144E  EF2A  F00A         	goto	l8718
  4279  001452                     u8400:
  4280  001452  2A52               	incf	___fladd@bexp^0,f,c
  4281  001454                     l8718:
  4282  001454  2852               	incf	___fladd@bexp^0,w,c
  4283  001456  B4D8               	btfsc	status,2,c
  4284  001458  EF30  F00A         	goto	u8411
  4285  00145C  EF32  F00A         	goto	u8410
  4286  001460                     u8411:
  4287  001460  EF3A  F00A         	goto	l8722
  4288  001464                     u8410:
  4289  001464  5052               	movf	___fladd@bexp^0,w,c
  4290  001466  A4D8               	btfss	status,2,c
  4291  001468  EF38  F00A         	goto	u8421
  4292  00146C  EF3A  F00A         	goto	u8420
  4293  001470                     u8421:
  4294  001470  EF4C  F00A         	goto	l8726
  4295  001474                     u8420:
  4296  001474                     l8722:
  4297  001474  0E00               	movlw	0
  4298  001476  6E44               	movwf	___fladd@b^0,c
  4299  001478  0E00               	movlw	0
  4300  00147A  6E45               	movwf	(___fladd@b+1)^0,c
  4301  00147C  0E00               	movlw	0
  4302  00147E  6E46               	movwf	(___fladd@b+2)^0,c
  4303  001480  0E00               	movlw	0
  4304  001482  6E47               	movwf	(___fladd@b+3)^0,c
  4305  001484  5052               	movf	___fladd@bexp^0,w,c
  4306  001486  A4D8               	btfss	status,2,c
  4307  001488  EF48  F00A         	goto	u8431
  4308  00148C  EF4A  F00A         	goto	u8430
  4309  001490                     u8431:
  4310  001490  EF4C  F00A         	goto	l8726
  4311  001494                     u8430:
  4312  001494  0E00               	movlw	0
  4313  001496  6E50               	movwf	___fladd@signs^0,c
  4314  001498                     l8726:
  4315  001498  A052               	btfss	___fladd@bexp^0,0,c
  4316  00149A  EF51  F00A         	goto	u8441
  4317  00149E  EF53  F00A         	goto	u8440
  4318  0014A2                     u8441:
  4319  0014A2  EF56  F00A         	goto	l8730
  4320  0014A6                     u8440:
  4321  0014A6  8E46               	bsf	(___fladd@b+2)^0,7,c
  4322  0014A8  EF57  F00A         	goto	l8732
  4323  0014AC                     l8730:
  4324  0014AC  9E46               	bcf	(___fladd@b+2)^0,7,c
  4325  0014AE                     l8732:
  4326  0014AE  90D8               	bcf	status,0,c
  4327  0014B0  3052               	rrcf	___fladd@bexp^0,w,c
  4328  0014B2  6E47               	movwf	(___fladd@b+3)^0,c
  4329  0014B4  AE50               	btfss	___fladd@signs^0,7,c
  4330  0014B6  EF5F  F00A         	goto	u8451
  4331  0014BA  EF61  F00A         	goto	u8450
  4332  0014BE                     u8451:
  4333  0014BE  EF62  F00A         	goto	l8738
  4334  0014C2                     u8450:
  4335  0014C2  8E47               	bsf	(___fladd@b+3)^0,7,c
  4336  0014C4                     l8738:
  4337  0014C4  C044  F044         	movff	___fladd@b,?___fladd
  4338  0014C8  C045  F045         	movff	___fladd@b+1,?___fladd+1
  4339  0014CC  C046  F046         	movff	___fladd@b+2,?___fladd+2
  4340  0014D0  C047  F047         	movff	___fladd@b+3,?___fladd+3
  4341  0014D4                     l2271:
  4342  0014D4  0012               	return		;funcret
  4343  0014D6                     __end_of___fladd:
  4344                           	callstack 0
  4345                           
  4346 ;; *************** function _CCP_Interrupt_Config *****************
  4347 ;; Defined at:
  4348 ;;		line 290 in file "MCAL_Layer/CCP/hal_ccp.c"
  4349 ;; Parameters:    Size  Location     Type
  4350 ;;  _ccp_obj        2    3[COMRAM] PTR const struct .
  4351 ;;		 -> ccp_obj(17), 
  4352 ;; Auto vars:     Size  Location     Type
  4353 ;;		None
  4354 ;; Return value:  Size  Location     Type
  4355 ;;                  1    wreg      void 
  4356 ;; Registers used:
  4357 ;;		wreg, fsr2l, fsr2h, status,2, status,0
  4358 ;; Tracked objects:
  4359 ;;		On entry : 0/0
  4360 ;;		On exit  : 0/0
  4361 ;;		Unchanged: 0/0
  4362 ;; Data sizes:     COMRAM   BANK0   BANK1   BANK2   BANK3   BANK4   BANK5   BANK6   BANK7   BANK8   BANK9  BANK10  BANK1
      +1  BANK12  BANK13  BANK14  BANK15
  4363 ;;      Params:         2       0       0       0       0       0       0       0       0       0       0       0       
      +0       0       0       0       0
  4364 ;;      Locals:         0       0       0       0       0       0       0       0       0       0       0       0       
      +0       0       0       0       0
  4365 ;;      Temps:          0       0       0       0       0       0       0       0       0       0       0       0       
      +0       0       0       0       0
  4366 ;;      Totals:         2       0       0       0       0       0       0       0       0       0       0       0       
      +0       0       0       0       0
  4367 ;;Total ram usage:        2 bytes
  4368 ;; Hardware stack levels used: 1
  4369 ;; Hardware stack levels required when called: 3
  4370 ;; This function calls:
  4371 ;;		Nothing
  4372 ;; This function is called by:
  4373 ;;		_CCP_Init
  4374 ;; This function uses a non-reentrant model
  4375 ;;
  4376                           
  4377                           	psect	text15
  4378  002E88                     __ptext15:
  4379                           	callstack 0
  4380  002E88                     _CCP_Interrupt_Config:
  4381                           	callstack 26
  4382  002E88                     
  4383                           ;MCAL_Layer/CCP/hal_ccp.c: 293:     (PIE1bits.CCP1IE = 1);
  4384  002E88  849D               	bsf	157,2,c	;volatile
  4385                           
  4386                           ;MCAL_Layer/CCP/hal_ccp.c: 294:     (PIR1bits.CCP1IF = 0);
  4387  002E8A  949E               	bcf	158,2,c	;volatile
  4388  002E8C                     
  4389                           ;MCAL_Layer/CCP/hal_ccp.c: 295:     CCP1_InterruptHandler = _ccp_obj->CCP1_InterruptHand
      +                          ler;
  4390  002E8C  EE20 F00B          	lfsr	2,11
  4391  002E90  5004               	movf	CCP_Interrupt_Config@_ccp_obj^0,w,c
  4392  002E92  26D9               	addwf	fsr2l,f,c
  4393  002E94  5005               	movf	(CCP_Interrupt_Config@_ccp_obj+1)^0,w,c
  4394  002E96  22DA               	addwfc	fsr2h,f,c
  4395  002E98  CFDE F0C6          	movff	postinc2,_CCP1_InterruptHandler
  4396  002E9C  CFDD F0C7          	movff	postdec2,_CCP1_InterruptHandler+1
  4397  002EA0                     
  4398                           ;MCAL_Layer/CCP/hal_ccp.c: 311:     (INTCONbits.GIE = 1);
  4399  002EA0  8EF2               	bsf	242,7,c	;volatile
  4400  002EA2                     
  4401                           ;MCAL_Layer/CCP/hal_ccp.c: 312:     (INTCONbits.PEIE = 1);
  4402  002EA2  8CF2               	bsf	242,6,c	;volatile
  4403  002EA4                     
  4404                           ;MCAL_Layer/CCP/hal_ccp.c: 318:     (PIE2bits.CCP2IE = 1);
  4405  002EA4  80A0               	bsf	160,0,c	;volatile
  4406  002EA6                     
  4407                           ;MCAL_Layer/CCP/hal_ccp.c: 319:     (PIR2bits.CCP2IF = 0);
  4408  002EA6  90A1               	bcf	161,0,c	;volatile
  4409                           
  4410                           ;MCAL_Layer/CCP/hal_ccp.c: 320:     CCP2_InterruptHandler = _ccp_obj->CCP2_InterruptHand
      +                          ler;
  4411  002EA8  EE20 F00E          	lfsr	2,14
  4412  002EAC  5004               	movf	CCP_Interrupt_Config@_ccp_obj^0,w,c
  4413  002EAE  26D9               	addwf	fsr2l,f,c
  4414  002EB0  5005               	movf	(CCP_Interrupt_Config@_ccp_obj+1)^0,w,c
  4415  002EB2  22DA               	addwfc	fsr2h,f,c
  4416  002EB4  CFDE F0C4          	movff	postinc2,_CCP2_InterruptHandler
  4417  002EB8  CFDD F0C5          	movff	postdec2,_CCP2_InterruptHandler+1
  4418  002EBC                     
  4419                           ;MCAL_Layer/CCP/hal_ccp.c: 336:     (INTCONbits.GIE = 1);
  4420  002EBC  8EF2               	bsf	242,7,c	;volatile
  4421  002EBE                     
  4422                           ;MCAL_Layer/CCP/hal_ccp.c: 337:     (INTCONbits.PEIE = 1);
  4423  002EBE  8CF2               	bsf	242,6,c	;volatile
  4424  002EC0  0012               	return		;funcret
  4425  002EC2                     __end_of_CCP_Interrupt_Config:
  4426                           	callstack 0
  4427                           
  4428 ;; *************** function _CCP_Compare_Mode_Config *****************
  4429 ;; Defined at:
  4430 ;;		line 392 in file "MCAL_Layer/CCP/hal_ccp.c"
  4431 ;; Parameters:    Size  Location     Type
  4432 ;;  _ccp_obj        2    6[COMRAM] PTR const struct .
  4433 ;;		 -> ccp_obj(17), 
  4434 ;; Auto vars:     Size  Location     Type
  4435 ;;  ret             1   10[COMRAM] unsigned char 
  4436 ;; Return value:  Size  Location     Type
  4437 ;;                  1    wreg      unsigned char 
  4438 ;; Registers used:
  4439 ;;		wreg, fsr2l, fsr2h, status,2, status,0, cstack
  4440 ;; Tracked objects:
  4441 ;;		On entry : 0/0
  4442 ;;		On exit  : 0/0
  4443 ;;		Unchanged: 0/0
  4444 ;; Data sizes:     COMRAM   BANK0   BANK1   BANK2   BANK3   BANK4   BANK5   BANK6   BANK7   BANK8   BANK9  BANK10  BANK1
      +1  BANK12  BANK13  BANK14  BANK15
  4445 ;;      Params:         2       0       0       0       0       0       0       0       0       0       0       0       
      +0       0       0       0       0
  4446 ;;      Locals:         1       0       0       0       0       0       0       0       0       0       0       0       
      +0       0       0       0       0
  4447 ;;      Temps:          2       0       0       0       0       0       0       0       0       0       0       0       
      +0       0       0       0       0
  4448 ;;      Totals:         5       0       0       0       0       0       0       0       0       0       0       0       
      +0       0       0       0       0
  4449 ;;Total ram usage:        5 bytes
  4450 ;; Hardware stack levels used: 1
  4451 ;; Hardware stack levels required when called: 4
  4452 ;; This function calls:
  4453 ;;		_CCP_Mode_Timer_Select
  4454 ;; This function is called by:
  4455 ;;		_CCP_Init
  4456 ;; This function uses a non-reentrant model
  4457 ;;
  4458                           
  4459                           	psect	text16
  4460  002434                     __ptext16:
  4461                           	callstack 0
  4462  002434                     _CCP_Compare_Mode_Config:
  4463                           	callstack 25
  4464  002434                     
  4465                           ;MCAL_Layer/CCP/hal_ccp.c: 393:     Std_ReturnType ret = (Std_ReturnType)0x01;
  4466  002434  0E01               	movlw	1
  4467  002436  6E0B               	movwf	CCP_Compare_Mode_Config@ret^0,c
  4468  002438                     
  4469                           ;MCAL_Layer/CCP/hal_ccp.c: 395:     if(CCP1_INST == _ccp_obj->ccp_inst){
  4470  002438  C007  FFD9         	movff	CCP_Compare_Mode_Config@_ccp_obj,fsr2l
  4471  00243C  C008  FFDA         	movff	CCP_Compare_Mode_Config@_ccp_obj+1,fsr2h
  4472  002440  50DF               	movf	indf2,w,c
  4473  002442  A4D8               	btfss	status,2,c
  4474  002444  EF26  F012         	goto	u9131
  4475  002448  EF28  F012         	goto	u9130
  4476  00244C                     u9131:
  4477  00244C  EF73  F012         	goto	l9252
  4478  002450                     u9130:
  4479  002450  EF4C  F012         	goto	l9250
  4480  002454                     l9238:
  4481  002454  50BD               	movf	189,w,c	;volatile
  4482  002456  0BF0               	andlw	-16
  4483  002458  0908               	iorlw	8
  4484  00245A  6EBD               	movwf	189,c	;volatile
  4485  00245C  EFC6  F012         	goto	l9270
  4486  002460                     l9240:
  4487  002460  50BD               	movf	189,w,c	;volatile
  4488  002462  0BF0               	andlw	-16
  4489  002464  0909               	iorlw	9
  4490  002466  6EBD               	movwf	189,c	;volatile
  4491  002468  EFC6  F012         	goto	l9270
  4492  00246C                     l9242:
  4493  00246C  50BD               	movf	189,w,c	;volatile
  4494  00246E  0BF0               	andlw	-16
  4495  002470  0902               	iorlw	2
  4496  002472  6EBD               	movwf	189,c	;volatile
  4497  002474  EFC6  F012         	goto	l9270
  4498  002478                     l9244:
  4499  002478  50BD               	movf	189,w,c	;volatile
  4500  00247A  0BF0               	andlw	-16
  4501  00247C  090A               	iorlw	10
  4502  00247E  6EBD               	movwf	189,c	;volatile
  4503  002480  EFC6  F012         	goto	l9270
  4504  002484                     l9246:
  4505  002484  50BD               	movf	189,w,c	;volatile
  4506  002486  0BF0               	andlw	-16
  4507  002488  090B               	iorlw	11
  4508  00248A  6EBD               	movwf	189,c	;volatile
  4509  00248C  EFC6  F012         	goto	l9270
  4510  002490                     l9248:
  4511  002490  0E00               	movlw	0
  4512  002492  6E0B               	movwf	CCP_Compare_Mode_Config@ret^0,c
  4513                           
  4514                           ;MCAL_Layer/CCP/hal_ccp.c: 404:         }
  4515  002494  EFC6  F012         	goto	l9270
  4516  002498                     l9250:
  4517  002498  EE20 F002          	lfsr	2,2
  4518  00249C  5007               	movf	CCP_Compare_Mode_Config@_ccp_obj^0,w,c
  4519  00249E  26D9               	addwf	fsr2l,f,c
  4520  0024A0  5008               	movf	(CCP_Compare_Mode_Config@_ccp_obj+1)^0,w,c
  4521  0024A2  22DA               	addwfc	fsr2h,f,c
  4522  0024A4  50DF               	movf	indf2,w,c
  4523  0024A6  6E09               	movwf	??_CCP_Compare_Mode_Config^0,c
  4524  0024A8  6A0A               	clrf	(??_CCP_Compare_Mode_Config+1)^0,c
  4525                           
  4526                           ; Switch on 2 bytes has been partitioned into a top level switch of size 1, and 1 sub-sw
      +                          itches
  4527                           ; Switch size 1, requested type "simple"
  4528                           ; Number of cases is 1, Range of values is 0 to 0
  4529                           ; switch strategies available:
  4530                           ; Name         Instructions Cycles
  4531                           ; simple_byte            4     3 (average)
  4532                           ;	Chosen strategy is simple_byte
  4533  0024AA  500A               	movf	(??_CCP_Compare_Mode_Config+1)^0,w,c
  4534  0024AC  0A00               	xorlw	0	; case 0
  4535  0024AE  B4D8               	btfsc	status,2,c
  4536  0024B0  EF5C  F012         	goto	l10346
  4537  0024B4  EF48  F012         	goto	l9248
  4538  0024B8                     l10346:
  4539                           
  4540                           ; Switch size 1, requested type "simple"
  4541                           ; Number of cases is 5, Range of values is 2 to 11
  4542                           ; switch strategies available:
  4543                           ; Name         Instructions Cycles
  4544                           ; simple_byte           16     9 (average)
  4545                           ;	Chosen strategy is simple_byte
  4546  0024B8  5009               	movf	??_CCP_Compare_Mode_Config^0,w,c
  4547  0024BA  0A02               	xorlw	2	; case 2
  4548  0024BC  B4D8               	btfsc	status,2,c
  4549  0024BE  EF36  F012         	goto	l9242
  4550  0024C2  0A0A               	xorlw	10	; case 8
  4551  0024C4  B4D8               	btfsc	status,2,c
  4552  0024C6  EF2A  F012         	goto	l9238
  4553  0024CA  0A01               	xorlw	1	; case 9
  4554  0024CC  B4D8               	btfsc	status,2,c
  4555  0024CE  EF30  F012         	goto	l9240
  4556  0024D2  0A03               	xorlw	3	; case 10
  4557  0024D4  B4D8               	btfsc	status,2,c
  4558  0024D6  EF3C  F012         	goto	l9244
  4559  0024DA  0A01               	xorlw	1	; case 11
  4560  0024DC  B4D8               	btfsc	status,2,c
  4561  0024DE  EF42  F012         	goto	l9246
  4562  0024E2  EF48  F012         	goto	l9248
  4563  0024E6                     l9252:
  4564  0024E6  C007  FFD9         	movff	CCP_Compare_Mode_Config@_ccp_obj,fsr2l
  4565  0024EA  C008  FFDA         	movff	CCP_Compare_Mode_Config@_ccp_obj+1,fsr2h
  4566  0024EE  04DE               	decf	postinc2,w,c
  4567  0024F0  A4D8               	btfss	status,2,c
  4568  0024F2  EF7D  F012         	goto	u9141
  4569  0024F6  EF7F  F012         	goto	u9140
  4570  0024FA                     u9141:
  4571  0024FA  EFC6  F012         	goto	l9270
  4572  0024FE                     u9140:
  4573  0024FE  EF9F  F012         	goto	l9268
  4574  002502                     l9256:
  4575  002502  50BA               	movf	186,w,c	;volatile
  4576  002504  0BF0               	andlw	-16
  4577  002506  0908               	iorlw	8
  4578  002508  6EBA               	movwf	186,c	;volatile
  4579  00250A  EFC6  F012         	goto	l9270
  4580  00250E                     l9258:
  4581  00250E  50BA               	movf	186,w,c	;volatile
  4582  002510  0BF0               	andlw	-16
  4583  002512  0909               	iorlw	9
  4584  002514  6EBA               	movwf	186,c	;volatile
  4585  002516  EFC6  F012         	goto	l9270
  4586  00251A                     l9260:
  4587  00251A  50BA               	movf	186,w,c	;volatile
  4588  00251C  0BF0               	andlw	-16
  4589  00251E  0902               	iorlw	2
  4590  002520  6EBA               	movwf	186,c	;volatile
  4591  002522  EFC6  F012         	goto	l9270
  4592  002526                     l9262:
  4593  002526  50BA               	movf	186,w,c	;volatile
  4594  002528  0BF0               	andlw	-16
  4595  00252A  090A               	iorlw	10
  4596  00252C  6EBA               	movwf	186,c	;volatile
  4597  00252E  EFC6  F012         	goto	l9270
  4598  002532                     l9264:
  4599  002532  50BA               	movf	186,w,c	;volatile
  4600  002534  0BF0               	andlw	-16
  4601  002536  090B               	iorlw	11
  4602  002538  6EBA               	movwf	186,c	;volatile
  4603  00253A  EFC6  F012         	goto	l9270
  4604  00253E                     l9268:
  4605  00253E  EE20 F002          	lfsr	2,2
  4606  002542  5007               	movf	CCP_Compare_Mode_Config@_ccp_obj^0,w,c
  4607  002544  26D9               	addwf	fsr2l,f,c
  4608  002546  5008               	movf	(CCP_Compare_Mode_Config@_ccp_obj+1)^0,w,c
  4609  002548  22DA               	addwfc	fsr2h,f,c
  4610  00254A  50DF               	movf	indf2,w,c
  4611  00254C  6E09               	movwf	??_CCP_Compare_Mode_Config^0,c
  4612  00254E  6A0A               	clrf	(??_CCP_Compare_Mode_Config+1)^0,c
  4613                           
  4614                           ; Switch on 2 bytes has been partitioned into a top level switch of size 1, and 1 sub-sw
      +                          itches
  4615                           ; Switch size 1, requested type "simple"
  4616                           ; Number of cases is 1, Range of values is 0 to 0
  4617                           ; switch strategies available:
  4618                           ; Name         Instructions Cycles
  4619                           ; simple_byte            4     3 (average)
  4620                           ;	Chosen strategy is simple_byte
  4621  002550  500A               	movf	(??_CCP_Compare_Mode_Config+1)^0,w,c
  4622  002552  0A00               	xorlw	0	; case 0
  4623  002554  B4D8               	btfsc	status,2,c
  4624  002556  EFAF  F012         	goto	l10348
  4625  00255A  EF48  F012         	goto	l9248
  4626  00255E                     l10348:
  4627                           
  4628                           ; Switch size 1, requested type "simple"
  4629                           ; Number of cases is 5, Range of values is 2 to 11
  4630                           ; switch strategies available:
  4631                           ; Name         Instructions Cycles
  4632                           ; simple_byte           16     9 (average)
  4633                           ;	Chosen strategy is simple_byte
  4634  00255E  5009               	movf	??_CCP_Compare_Mode_Config^0,w,c
  4635  002560  0A02               	xorlw	2	; case 2
  4636  002562  B4D8               	btfsc	status,2,c
  4637  002564  EF8D  F012         	goto	l9260
  4638  002568  0A0A               	xorlw	10	; case 8
  4639  00256A  B4D8               	btfsc	status,2,c
  4640  00256C  EF81  F012         	goto	l9256
  4641  002570  0A01               	xorlw	1	; case 9
  4642  002572  B4D8               	btfsc	status,2,c
  4643  002574  EF87  F012         	goto	l9258
  4644  002578  0A03               	xorlw	3	; case 10
  4645  00257A  B4D8               	btfsc	status,2,c
  4646  00257C  EF93  F012         	goto	l9262
  4647  002580  0A01               	xorlw	1	; case 11
  4648  002582  B4D8               	btfsc	status,2,c
  4649  002584  EF99  F012         	goto	l9264
  4650  002588  EF48  F012         	goto	l9248
  4651  00258C                     l9270:
  4652                           
  4653                           ;MCAL_Layer/CCP/hal_ccp.c: 419:     CCP_Mode_Timer_Select(_ccp_obj);
  4654  00258C  C007  F004         	movff	CCP_Compare_Mode_Config@_ccp_obj,CCP_Mode_Timer_Select@_ccp_obj
  4655  002590  C008  F005         	movff	CCP_Compare_Mode_Config@_ccp_obj+1,CCP_Mode_Timer_Select@_ccp_obj+1
  4656  002594  EC9F  F016         	call	_CCP_Mode_Timer_Select	;wreg free
  4657  002598                     
  4658                           ;MCAL_Layer/CCP/hal_ccp.c: 421:     return ret;
  4659  002598  500B               	movf	CCP_Compare_Mode_Config@ret^0,w,c
  4660  00259A  0012               	return		;funcret
  4661  00259C                     __end_of_CCP_Compare_Mode_Config:
  4662                           	callstack 0
  4663                           
  4664 ;; *************** function _CCP_Capture_Mode_Config *****************
  4665 ;; Defined at:
  4666 ;;		line 362 in file "MCAL_Layer/CCP/hal_ccp.c"
  4667 ;; Parameters:    Size  Location     Type
  4668 ;;  _ccp_obj        2    6[COMRAM] PTR const struct .
  4669 ;;		 -> ccp_obj(17), 
  4670 ;; Auto vars:     Size  Location     Type
  4671 ;;  ret             1   10[COMRAM] unsigned char 
  4672 ;; Return value:  Size  Location     Type
  4673 ;;                  1    wreg      unsigned char 
  4674 ;; Registers used:
  4675 ;;		wreg, fsr2l, fsr2h, status,2, status,0, cstack
  4676 ;; Tracked objects:
  4677 ;;		On entry : 0/0
  4678 ;;		On exit  : 0/0
  4679 ;;		Unchanged: 0/0
  4680 ;; Data sizes:     COMRAM   BANK0   BANK1   BANK2   BANK3   BANK4   BANK5   BANK6   BANK7   BANK8   BANK9  BANK10  BANK1
      +1  BANK12  BANK13  BANK14  BANK15
  4681 ;;      Params:         2       0       0       0       0       0       0       0       0       0       0       0       
      +0       0       0       0       0
  4682 ;;      Locals:         1       0       0       0       0       0       0       0       0       0       0       0       
      +0       0       0       0       0
  4683 ;;      Temps:          2       0       0       0       0       0       0       0       0       0       0       0       
      +0       0       0       0       0
  4684 ;;      Totals:         5       0       0       0       0       0       0       0       0       0       0       0       
      +0       0       0       0       0
  4685 ;;Total ram usage:        5 bytes
  4686 ;; Hardware stack levels used: 1
  4687 ;; Hardware stack levels required when called: 4
  4688 ;; This function calls:
  4689 ;;		_CCP_Mode_Timer_Select
  4690 ;; This function is called by:
  4691 ;;		_CCP_Init
  4692 ;; This function uses a non-reentrant model
  4693 ;;
  4694                           
  4695                           	psect	text17
  4696  002822                     __ptext17:
  4697                           	callstack 0
  4698  002822                     _CCP_Capture_Mode_Config:
  4699                           	callstack 25
  4700  002822                     
  4701                           ;MCAL_Layer/CCP/hal_ccp.c: 363:     Std_ReturnType ret = (Std_ReturnType)0x01;
  4702  002822  0E01               	movlw	1
  4703  002824  6E0B               	movwf	CCP_Capture_Mode_Config@ret^0,c
  4704  002826                     
  4705                           ;MCAL_Layer/CCP/hal_ccp.c: 365:     if(CCP1_INST == _ccp_obj->ccp_inst){
  4706  002826  C007  FFD9         	movff	CCP_Capture_Mode_Config@_ccp_obj,fsr2l
  4707  00282A  C008  FFDA         	movff	CCP_Capture_Mode_Config@_ccp_obj+1,fsr2h
  4708  00282E  50DF               	movf	indf2,w,c
  4709  002830  A4D8               	btfss	status,2,c
  4710  002832  EF1D  F014         	goto	u9111
  4711  002836  EF1F  F014         	goto	u9110
  4712  00283A                     u9111:
  4713  00283A  EF60  F014         	goto	l9202
  4714  00283E                     u9110:
  4715  00283E  EF3D  F014         	goto	l9200
  4716  002842                     l9190:
  4717  002842  50BD               	movf	189,w,c	;volatile
  4718  002844  0BF0               	andlw	-16
  4719  002846  0904               	iorlw	4
  4720  002848  6EBD               	movwf	189,c	;volatile
  4721  00284A  EFA9  F014         	goto	l9218
  4722  00284E                     l9192:
  4723  00284E  50BD               	movf	189,w,c	;volatile
  4724  002850  0BF0               	andlw	-16
  4725  002852  0905               	iorlw	5
  4726  002854  6EBD               	movwf	189,c	;volatile
  4727  002856  EFA9  F014         	goto	l9218
  4728  00285A                     l9194:
  4729  00285A  50BD               	movf	189,w,c	;volatile
  4730  00285C  0BF0               	andlw	-16
  4731  00285E  0906               	iorlw	6
  4732  002860  6EBD               	movwf	189,c	;volatile
  4733  002862  EFA9  F014         	goto	l9218
  4734  002866                     l9196:
  4735  002866  50BD               	movf	189,w,c	;volatile
  4736  002868  0BF0               	andlw	-16
  4737  00286A  0907               	iorlw	7
  4738  00286C  6EBD               	movwf	189,c	;volatile
  4739  00286E  EFA9  F014         	goto	l9218
  4740  002872                     l9198:
  4741  002872  0E00               	movlw	0
  4742  002874  6E0B               	movwf	CCP_Capture_Mode_Config@ret^0,c
  4743                           
  4744                           ;MCAL_Layer/CCP/hal_ccp.c: 373:         }
  4745  002876  EFA9  F014         	goto	l9218
  4746  00287A                     l9200:
  4747  00287A  EE20 F002          	lfsr	2,2
  4748  00287E  5007               	movf	CCP_Capture_Mode_Config@_ccp_obj^0,w,c
  4749  002880  26D9               	addwf	fsr2l,f,c
  4750  002882  5008               	movf	(CCP_Capture_Mode_Config@_ccp_obj+1)^0,w,c
  4751  002884  22DA               	addwfc	fsr2h,f,c
  4752  002886  50DF               	movf	indf2,w,c
  4753  002888  6E09               	movwf	??_CCP_Capture_Mode_Config^0,c
  4754  00288A  6A0A               	clrf	(??_CCP_Capture_Mode_Config+1)^0,c
  4755                           
  4756                           ; Switch on 2 bytes has been partitioned into a top level switch of size 1, and 1 sub-sw
      +                          itches
  4757                           ; Switch size 1, requested type "simple"
  4758                           ; Number of cases is 1, Range of values is 0 to 0
  4759                           ; switch strategies available:
  4760                           ; Name         Instructions Cycles
  4761                           ; simple_byte            4     3 (average)
  4762                           ;	Chosen strategy is simple_byte
  4763  00288C  500A               	movf	(??_CCP_Capture_Mode_Config+1)^0,w,c
  4764  00288E  0A00               	xorlw	0	; case 0
  4765  002890  B4D8               	btfsc	status,2,c
  4766  002892  EF4D  F014         	goto	l10350
  4767  002896  EF39  F014         	goto	l9198
  4768  00289A                     l10350:
  4769                           
  4770                           ; Switch size 1, requested type "simple"
  4771                           ; Number of cases is 4, Range of values is 4 to 7
  4772                           ; switch strategies available:
  4773                           ; Name         Instructions Cycles
  4774                           ; simple_byte           13     7 (average)
  4775                           ;	Chosen strategy is simple_byte
  4776  00289A  5009               	movf	??_CCP_Capture_Mode_Config^0,w,c
  4777  00289C  0A04               	xorlw	4	; case 4
  4778  00289E  B4D8               	btfsc	status,2,c
  4779  0028A0  EF21  F014         	goto	l9190
  4780  0028A4  0A01               	xorlw	1	; case 5
  4781  0028A6  B4D8               	btfsc	status,2,c
  4782  0028A8  EF27  F014         	goto	l9192
  4783  0028AC  0A03               	xorlw	3	; case 6
  4784  0028AE  B4D8               	btfsc	status,2,c
  4785  0028B0  EF2D  F014         	goto	l9194
  4786  0028B4  0A01               	xorlw	1	; case 7
  4787  0028B6  B4D8               	btfsc	status,2,c
  4788  0028B8  EF33  F014         	goto	l9196
  4789  0028BC  EF39  F014         	goto	l9198
  4790  0028C0                     l9202:
  4791  0028C0  C007  FFD9         	movff	CCP_Capture_Mode_Config@_ccp_obj,fsr2l
  4792  0028C4  C008  FFDA         	movff	CCP_Capture_Mode_Config@_ccp_obj+1,fsr2h
  4793  0028C8  04DE               	decf	postinc2,w,c
  4794  0028CA  A4D8               	btfss	status,2,c
  4795  0028CC  EF6A  F014         	goto	u9121
  4796  0028D0  EF6C  F014         	goto	u9120
  4797  0028D4                     u9121:
  4798  0028D4  EFA9  F014         	goto	l9218
  4799  0028D8                     u9120:
  4800  0028D8  EF86  F014         	goto	l9216
  4801  0028DC                     l9206:
  4802  0028DC  50BA               	movf	186,w,c	;volatile
  4803  0028DE  0BF0               	andlw	-16
  4804  0028E0  0904               	iorlw	4
  4805  0028E2  6EBA               	movwf	186,c	;volatile
  4806  0028E4  EFA9  F014         	goto	l9218
  4807  0028E8                     l9208:
  4808  0028E8  50BA               	movf	186,w,c	;volatile
  4809  0028EA  0BF0               	andlw	-16
  4810  0028EC  0905               	iorlw	5
  4811  0028EE  6EBA               	movwf	186,c	;volatile
  4812  0028F0  EFA9  F014         	goto	l9218
  4813  0028F4                     l9210:
  4814  0028F4  50BA               	movf	186,w,c	;volatile
  4815  0028F6  0BF0               	andlw	-16
  4816  0028F8  0906               	iorlw	6
  4817  0028FA  6EBA               	movwf	186,c	;volatile
  4818  0028FC  EFA9  F014         	goto	l9218
  4819  002900                     l9212:
  4820  002900  50BA               	movf	186,w,c	;volatile
  4821  002902  0BF0               	andlw	-16
  4822  002904  0907               	iorlw	7
  4823  002906  6EBA               	movwf	186,c	;volatile
  4824  002908  EFA9  F014         	goto	l9218
  4825  00290C                     l9216:
  4826  00290C  EE20 F002          	lfsr	2,2
  4827  002910  5007               	movf	CCP_Capture_Mode_Config@_ccp_obj^0,w,c
  4828  002912  26D9               	addwf	fsr2l,f,c
  4829  002914  5008               	movf	(CCP_Capture_Mode_Config@_ccp_obj+1)^0,w,c
  4830  002916  22DA               	addwfc	fsr2h,f,c
  4831  002918  50DF               	movf	indf2,w,c
  4832  00291A  6E09               	movwf	??_CCP_Capture_Mode_Config^0,c
  4833  00291C  6A0A               	clrf	(??_CCP_Capture_Mode_Config+1)^0,c
  4834                           
  4835                           ; Switch on 2 bytes has been partitioned into a top level switch of size 1, and 1 sub-sw
      +                          itches
  4836                           ; Switch size 1, requested type "simple"
  4837                           ; Number of cases is 1, Range of values is 0 to 0
  4838                           ; switch strategies available:
  4839                           ; Name         Instructions Cycles
  4840                           ; simple_byte            4     3 (average)
  4841                           ;	Chosen strategy is simple_byte
  4842  00291E  500A               	movf	(??_CCP_Capture_Mode_Config+1)^0,w,c
  4843  002920  0A00               	xorlw	0	; case 0
  4844  002922  B4D8               	btfsc	status,2,c
  4845  002924  EF96  F014         	goto	l10352
  4846  002928  EF39  F014         	goto	l9198
  4847  00292C                     l10352:
  4848                           
  4849                           ; Switch size 1, requested type "simple"
  4850                           ; Number of cases is 4, Range of values is 4 to 7
  4851                           ; switch strategies available:
  4852                           ; Name         Instructions Cycles
  4853                           ; simple_byte           13     7 (average)
  4854                           ;	Chosen strategy is simple_byte
  4855  00292C  5009               	movf	??_CCP_Capture_Mode_Config^0,w,c
  4856  00292E  0A04               	xorlw	4	; case 4
  4857  002930  B4D8               	btfsc	status,2,c
  4858  002932  EF6E  F014         	goto	l9206
  4859  002936  0A01               	xorlw	1	; case 5
  4860  002938  B4D8               	btfsc	status,2,c
  4861  00293A  EF74  F014         	goto	l9208
  4862  00293E  0A03               	xorlw	3	; case 6
  4863  002940  B4D8               	btfsc	status,2,c
  4864  002942  EF7A  F014         	goto	l9210
  4865  002946  0A01               	xorlw	1	; case 7
  4866  002948  B4D8               	btfsc	status,2,c
  4867  00294A  EF80  F014         	goto	l9212
  4868  00294E  EF39  F014         	goto	l9198
  4869  002952                     l9218:
  4870                           
  4871                           ;MCAL_Layer/CCP/hal_ccp.c: 387:     CCP_Mode_Timer_Select(_ccp_obj);
  4872  002952  C007  F004         	movff	CCP_Capture_Mode_Config@_ccp_obj,CCP_Mode_Timer_Select@_ccp_obj
  4873  002956  C008  F005         	movff	CCP_Capture_Mode_Config@_ccp_obj+1,CCP_Mode_Timer_Select@_ccp_obj+1
  4874  00295A  EC9F  F016         	call	_CCP_Mode_Timer_Select	;wreg free
  4875  00295E                     
  4876                           ;MCAL_Layer/CCP/hal_ccp.c: 389:     return ret;
  4877  00295E  500B               	movf	CCP_Capture_Mode_Config@ret^0,w,c
  4878  002960  0012               	return		;funcret
  4879  002962                     __end_of_CCP_Capture_Mode_Config:
  4880                           	callstack 0
  4881                           
  4882 ;; *************** function _CCP_Mode_Timer_Select *****************
  4883 ;; Defined at:
  4884 ;;		line 342 in file "MCAL_Layer/CCP/hal_ccp.c"
  4885 ;; Parameters:    Size  Location     Type
  4886 ;;  _ccp_obj        2    3[COMRAM] PTR const struct .
  4887 ;;		 -> ccp_obj(17), 
  4888 ;; Auto vars:     Size  Location     Type
  4889 ;;		None
  4890 ;; Return value:  Size  Location     Type
  4891 ;;                  1    wreg      void 
  4892 ;; Registers used:
  4893 ;;		wreg, fsr2l, fsr2h, status,2, status,0
  4894 ;; Tracked objects:
  4895 ;;		On entry : 0/0
  4896 ;;		On exit  : 0/0
  4897 ;;		Unchanged: 0/0
  4898 ;; Data sizes:     COMRAM   BANK0   BANK1   BANK2   BANK3   BANK4   BANK5   BANK6   BANK7   BANK8   BANK9  BANK10  BANK1
      +1  BANK12  BANK13  BANK14  BANK15
  4899 ;;      Params:         2       0       0       0       0       0       0       0       0       0       0       0       
      +0       0       0       0       0
  4900 ;;      Locals:         0       0       0       0       0       0       0       0       0       0       0       0       
      +0       0       0       0       0
  4901 ;;      Temps:          1       0       0       0       0       0       0       0       0       0       0       0       
      +0       0       0       0       0
  4902 ;;      Totals:         3       0       0       0       0       0       0       0       0       0       0       0       
      +0       0       0       0       0
  4903 ;;Total ram usage:        3 bytes
  4904 ;; Hardware stack levels used: 1
  4905 ;; Hardware stack levels required when called: 3
  4906 ;; This function calls:
  4907 ;;		Nothing
  4908 ;; This function is called by:
  4909 ;;		_CCP_Capture_Mode_Config
  4910 ;;		_CCP_Compare_Mode_Config
  4911 ;; This function uses a non-reentrant model
  4912 ;;
  4913                           
  4914                           	psect	text18
  4915  002D3E                     __ptext18:
  4916                           	callstack 0
  4917  002D3E                     _CCP_Mode_Timer_Select:
  4918                           	callstack 25
  4919  002D3E                     
  4920                           ;MCAL_Layer/CCP/hal_ccp.c: 343:     if(CCP1_CCP2_TIMER3 == _ccp_obj->ccp_capture_timer){
  4921  002D3E  EE20 F004          	lfsr	2,4
  4922  002D42  5004               	movf	CCP_Mode_Timer_Select@_ccp_obj^0,w,c
  4923  002D44  26D9               	addwf	fsr2l,f,c
  4924  002D46  5005               	movf	(CCP_Mode_Timer_Select@_ccp_obj+1)^0,w,c
  4925  002D48  22DA               	addwfc	fsr2h,f,c
  4926  002D4A  50DF               	movf	indf2,w,c
  4927  002D4C  A4D8               	btfss	status,2,c
  4928  002D4E  EFAB  F016         	goto	u8041
  4929  002D52  EFAD  F016         	goto	u8040
  4930  002D56                     u8041:
  4931  002D56  EFB1  F016         	goto	l8532
  4932  002D5A                     u8040:
  4933  002D5A                     
  4934                           ;MCAL_Layer/CCP/hal_ccp.c: 345:         T3CONbits.T3CCP1 = 0;
  4935  002D5A  96B1               	bcf	177,3,c	;volatile
  4936                           
  4937                           ;MCAL_Layer/CCP/hal_ccp.c: 346:         T3CONbits.T3CCP2 = 1;
  4938  002D5C  8CB1               	bsf	177,6,c	;volatile
  4939                           
  4940                           ;MCAL_Layer/CCP/hal_ccp.c: 347:     }
  4941  002D5E  EFD6  F016         	goto	l597
  4942  002D62                     l8532:
  4943  002D62  EE20 F004          	lfsr	2,4
  4944  002D66  5004               	movf	CCP_Mode_Timer_Select@_ccp_obj^0,w,c
  4945  002D68  26D9               	addwf	fsr2l,f,c
  4946  002D6A  5005               	movf	(CCP_Mode_Timer_Select@_ccp_obj+1)^0,w,c
  4947  002D6C  22DA               	addwfc	fsr2h,f,c
  4948  002D6E  04DE               	decf	postinc2,w,c
  4949  002D70  A4D8               	btfss	status,2,c
  4950  002D72  EFBD  F016         	goto	u8051
  4951  002D76  EFBF  F016         	goto	u8050
  4952  002D7A                     u8051:
  4953  002D7A  EFC3  F016         	goto	l8536
  4954  002D7E                     u8050:
  4955  002D7E                     
  4956                           ;MCAL_Layer/CCP/hal_ccp.c: 351:         T3CONbits.T3CCP1 = 1;
  4957  002D7E  86B1               	bsf	177,3,c	;volatile
  4958                           
  4959                           ;MCAL_Layer/CCP/hal_ccp.c: 352:         T3CONbits.T3CCP2 = 0;
  4960  002D80  9CB1               	bcf	177,6,c	;volatile
  4961                           
  4962                           ;MCAL_Layer/CCP/hal_ccp.c: 353:     }
  4963  002D82  EFD6  F016         	goto	l597
  4964  002D86                     l8536:
  4965  002D86  EE20 F004          	lfsr	2,4
  4966  002D8A  5004               	movf	CCP_Mode_Timer_Select@_ccp_obj^0,w,c
  4967  002D8C  26D9               	addwf	fsr2l,f,c
  4968  002D8E  5005               	movf	(CCP_Mode_Timer_Select@_ccp_obj+1)^0,w,c
  4969  002D90  22DA               	addwfc	fsr2h,f,c
  4970  002D92  0E02               	movlw	2
  4971  002D94  18DE               	xorwf	postinc2,w,c
  4972  002D96  A4D8               	btfss	status,2,c
  4973  002D98  EFD0  F016         	goto	u8061
  4974  002D9C  EFD2  F016         	goto	u8060
  4975  002DA0                     u8061:
  4976  002DA0  EFD6  F016         	goto	l594
  4977  002DA4                     u8060:
  4978  002DA4                     
  4979                           ;MCAL_Layer/CCP/hal_ccp.c: 356:         T3CONbits.T3CCP1 = 0;
  4980  002DA4  96B1               	bcf	177,3,c	;volatile
  4981                           
  4982                           ;MCAL_Layer/CCP/hal_ccp.c: 357:         T3CONbits.T3CCP2 = 0;
  4983  002DA6  9CB1               	bcf	177,6,c	;volatile
  4984                           
  4985                           ;MCAL_Layer/CCP/hal_ccp.c: 358:     }
  4986  002DA8  EFD6  F016         	goto	l597
  4987  002DAC                     l594:
  4988  002DAC                     l597:
  4989  002DAC  0012               	return		;funcret
  4990  002DAE                     __end_of_CCP_Mode_Timer_Select:
  4991                           	callstack 0
  4992                           
  4993 ;; *************** function _InterruptManager *****************
  4994 ;; Defined at:
  4995 ;;		line 32 in file "MCAL_Layer/Interrupt/mcal_interrupt_manager.c"
  4996 ;; Parameters:    Size  Location     Type
  4997 ;;		None
  4998 ;; Auto vars:     Size  Location     Type
  4999 ;;		None
  5000 ;; Return value:  Size  Location     Type
  5001 ;;                  1    wreg      void 
  5002 ;; Registers used:
  5003 ;;		wreg, status,2, status,0, pcl, pclath, pclatu, tosl, cstack
  5004 ;; Tracked objects:
  5005 ;;		On entry : 0/0
  5006 ;;		On exit  : 0/0
  5007 ;;		Unchanged: 0/0
  5008 ;; Data sizes:     COMRAM   BANK0   BANK1   BANK2   BANK3   BANK4   BANK5   BANK6   BANK7   BANK8   BANK9  BANK10  BANK1
      +1  BANK12  BANK13  BANK14  BANK15
  5009 ;;      Params:         0       0       0       0       0       0       0       0       0       0       0       0       
      +0       0       0       0       0
  5010 ;;      Locals:         0       0       0       0       0       0       0       0       0       0       0       0       
      +0       0       0       0       0
  5011 ;;      Temps:          2       0       0       0       0       0       0       0       0       0       0       0       
      +0       0       0       0       0
  5012 ;;      Totals:         2       0       0       0       0       0       0       0       0       0       0       0       
      +0       0       0       0       0
  5013 ;;Total ram usage:        2 bytes
  5014 ;; Hardware stack levels used: 1
  5015 ;; Hardware stack levels required when called: 2
  5016 ;; This function calls:
  5017 ;;		_ADC_ISR
  5018 ;;		_CCP1_ISR
  5019 ;;		_CCP2_ISR
  5020 ;;		_EUSART_RX_ISR
  5021 ;;		_EUSART_TX_ISR
  5022 ;;		_INT0_ISR
  5023 ;;		_INT1_ISR
  5024 ;;		_INT2_ISR
  5025 ;;		_MSSP_I2C_BC_ISR
  5026 ;;		_MSSP_I2C_ISR
  5027 ;;		_MSSP_SPI_ISR
  5028 ;;		_RB4_ISR
  5029 ;;		_RB5_ISR
  5030 ;;		_RB6_ISR
  5031 ;;		_RB7_ISR
  5032 ;;		_TMR0_ISR
  5033 ;;		_TMR1_ISR
  5034 ;;		_TMR2_ISR
  5035 ;;		_TMR3_ISR
  5036 ;; This function is called by:
  5037 ;;		Interrupt level 2
  5038 ;; This function uses a non-reentrant model
  5039 ;;
  5040                           
  5041                           	psect	intcode
  5042  000008                     __pintcode:
  5043                           	callstack 0
  5044  000008                     _InterruptManager:
  5045                           	callstack 25
  5046                           
  5047                           ;incstack = 0
  5048  000008  827C               	bsf	int$flags,1,c	;set compiler interrupt flag (level 2)
  5049  00000A  ED80  F00C         	call	int_func,f	;refresh shadow registers
  5050                           
  5051                           	psect	intcode_body
  5052  001900                     __pintcode_body:
  5053                           	callstack 25
  5054  001900                     int_func:
  5055                           	callstack 25
  5056  001900  0006               	pop		; remove dummy address from shadow register refresh
  5057  001902  CFFA F002          	movff	pclath,??_InterruptManager
  5058  001906  CFFB F003          	movff	pclatu,??_InterruptManager+1
  5059  00190A                     
  5060                           ;MCAL_Layer/Interrupt/mcal_interrupt_manager.c: 34:     if((1 == INTCONbits.INT0IE) && (
      +                          1 == INTCONbits.INT0IF)){
  5061  00190A  A8F2               	btfss	242,4,c	;volatile
  5062  00190C  EF8A  F00C         	goto	i2u698_41
  5063  001910  EF8C  F00C         	goto	i2u698_40
  5064  001914                     i2u698_41:
  5065  001914  EF95  F00C         	goto	i2l1216
  5066  001918                     i2u698_40:
  5067  001918  A2F2               	btfss	242,1,c	;volatile
  5068  00191A  EF91  F00C         	goto	i2u699_41
  5069  00191E  EF93  F00C         	goto	i2u699_40
  5070  001922                     i2u699_41:
  5071  001922  EF95  F00C         	goto	i2l1216
  5072  001926                     i2u699_40:
  5073  001926                     
  5074                           ;MCAL_Layer/Interrupt/mcal_interrupt_manager.c: 35:         INT0_ISR();
  5075  001926  EC02  F018         	call	_INT0_ISR	;wreg free
  5076  00192A                     i2l1216:
  5077                           
  5078                           ;MCAL_Layer/Interrupt/mcal_interrupt_manager.c: 38:     if((1 == INTCON3bits.INT1E) && (
      +                          1 == INTCON3bits.INT1F)){
  5079  00192A  A6F0               	btfss	240,3,c	;volatile
  5080  00192C  EF9A  F00C         	goto	i2u700_41
  5081  001930  EF9C  F00C         	goto	i2u700_40
  5082  001934                     i2u700_41:
  5083  001934  EFA5  F00C         	goto	i2l1218
  5084  001938                     i2u700_40:
  5085  001938  A0F0               	btfss	240,0,c	;volatile
  5086  00193A  EFA1  F00C         	goto	i2u701_41
  5087  00193E  EFA3  F00C         	goto	i2u701_40
  5088  001942                     i2u701_41:
  5089  001942  EFA5  F00C         	goto	i2l1218
  5090  001946                     i2u701_40:
  5091  001946                     
  5092                           ;MCAL_Layer/Interrupt/mcal_interrupt_manager.c: 39:         INT1_ISR();
  5093  001946  EC00  F018         	call	_INT1_ISR	;wreg free
  5094  00194A                     i2l1218:
  5095                           
  5096                           ;MCAL_Layer/Interrupt/mcal_interrupt_manager.c: 42:     if((1 == INTCON3bits.INT2IE) && 
      +                          (1 == INTCON3bits.INT2IF)){
  5097  00194A  A8F0               	btfss	240,4,c	;volatile
  5098  00194C  EFAA  F00C         	goto	i2u702_41
  5099  001950  EFAC  F00C         	goto	i2u702_40
  5100  001954                     i2u702_41:
  5101  001954  EFB5  F00C         	goto	i2l1220
  5102  001958                     i2u702_40:
  5103  001958  A2F0               	btfss	240,1,c	;volatile
  5104  00195A  EFB1  F00C         	goto	i2u703_41
  5105  00195E  EFB3  F00C         	goto	i2u703_40
  5106  001962                     i2u703_41:
  5107  001962  EFB5  F00C         	goto	i2l1220
  5108  001966                     i2u703_40:
  5109  001966                     
  5110                           ;MCAL_Layer/Interrupt/mcal_interrupt_manager.c: 43:         INT2_ISR();
  5111  001966  ECFE  F017         	call	_INT2_ISR	;wreg free
  5112  00196A                     i2l1220:
  5113                           
  5114                           ;MCAL_Layer/Interrupt/mcal_interrupt_manager.c: 49:     if((1 == INTCONbits.RBIE) && (1 
      +                          == INTCONbits.RBIF) &&
  5115  00196A  A6F2               	btfss	242,3,c	;volatile
  5116  00196C  EFBA  F00C         	goto	i2u704_41
  5117  001970  EFBC  F00C         	goto	i2u704_40
  5118  001974                     i2u704_41:
  5119  001974  EFD7  F00C         	goto	i2l1222
  5120  001978                     i2u704_40:
  5121  001978  A0F2               	btfss	242,0,c	;volatile
  5122  00197A  EFC1  F00C         	goto	i2u705_41
  5123  00197E  EFC3  F00C         	goto	i2u705_40
  5124  001982                     i2u705_41:
  5125  001982  EFD7  F00C         	goto	i2l1222
  5126  001986                     i2u705_40:
  5127  001986  A881               	btfss	129,4,c	;volatile
  5128  001988  EFC8  F00C         	goto	i2u706_41
  5129  00198C  EFCA  F00C         	goto	i2u706_40
  5130  001990                     i2u706_41:
  5131  001990  EFD7  F00C         	goto	i2l1222
  5132  001994                     i2u706_40:
  5133  001994  047B               	decf	_RB4_Flag^0,w,c	;volatile
  5134  001996  A4D8               	btfss	status,2,c
  5135  001998  EFD0  F00C         	goto	i2u707_41
  5136  00199C  EFD2  F00C         	goto	i2u707_40
  5137  0019A0                     i2u707_41:
  5138  0019A0  EFD7  F00C         	goto	i2l1222
  5139  0019A4                     i2u707_40:
  5140  0019A4                     
  5141                           ;MCAL_Layer/Interrupt/mcal_interrupt_manager.c: 50:        (PORTBbits.RB4 == GPIO_HIGH) 
      +                          && (RB4_Flag == 1)){;MCAL_Layer/Interrupt/mcal_interrupt_manager.c: 51:         RB4_Flag
      +                           = 0;
  5142  0019A4  0E00               	movlw	0
  5143  0019A6  6E7B               	movwf	_RB4_Flag^0,c	;volatile
  5144  0019A8                     
  5145                           ;MCAL_Layer/Interrupt/mcal_interrupt_manager.c: 52:         RB4_ISR(0);
  5146  0019A8  0E00               	movlw	0
  5147  0019AA  ECBC  F017         	call	_RB4_ISR
  5148  0019AE                     i2l1222:
  5149                           
  5150                           ;MCAL_Layer/Interrupt/mcal_interrupt_manager.c: 55:     if((1 == INTCONbits.RBIE) && (1 
      +                          == INTCONbits.RBIF) &&
  5151  0019AE  A6F2               	btfss	242,3,c	;volatile
  5152  0019B0  EFDC  F00C         	goto	i2u708_41
  5153  0019B4  EFDE  F00C         	goto	i2u708_40
  5154  0019B8                     i2u708_41:
  5155  0019B8  EFF9  F00C         	goto	i2l1224
  5156  0019BC                     i2u708_40:
  5157  0019BC  A0F2               	btfss	242,0,c	;volatile
  5158  0019BE  EFE3  F00C         	goto	i2u709_41
  5159  0019C2  EFE5  F00C         	goto	i2u709_40
  5160  0019C6                     i2u709_41:
  5161  0019C6  EFF9  F00C         	goto	i2l1224
  5162  0019CA                     i2u709_40:
  5163  0019CA  B881               	btfsc	129,4,c	;volatile
  5164  0019CC  EFEA  F00C         	goto	i2u710_41
  5165  0019D0  EFEC  F00C         	goto	i2u710_40
  5166  0019D4                     i2u710_41:
  5167  0019D4  EFF9  F00C         	goto	i2l1224
  5168  0019D8                     i2u710_40:
  5169  0019D8  507B               	movf	_RB4_Flag^0,w,c	;volatile
  5170  0019DA  A4D8               	btfss	status,2,c
  5171  0019DC  EFF2  F00C         	goto	i2u711_41
  5172  0019E0  EFF4  F00C         	goto	i2u711_40
  5173  0019E4                     i2u711_41:
  5174  0019E4  EFF9  F00C         	goto	i2l1224
  5175  0019E8                     i2u711_40:
  5176  0019E8                     
  5177                           ;MCAL_Layer/Interrupt/mcal_interrupt_manager.c: 56:        (PORTBbits.RB4 == GPIO_LOW) &
      +                          & (RB4_Flag == 0)){;MCAL_Layer/Interrupt/mcal_interrupt_manager.c: 57:         RB4_Flag 
      +                          = 1;
  5178  0019E8  0E01               	movlw	1
  5179  0019EA  6E7B               	movwf	_RB4_Flag^0,c	;volatile
  5180  0019EC                     
  5181                           ;MCAL_Layer/Interrupt/mcal_interrupt_manager.c: 58:         RB4_ISR(1);
  5182  0019EC  0E01               	movlw	1
  5183  0019EE  ECBC  F017         	call	_RB4_ISR
  5184  0019F2                     i2l1224:
  5185                           
  5186                           ;MCAL_Layer/Interrupt/mcal_interrupt_manager.c: 61:     if((1 == INTCONbits.RBIE) && (1 
      +                          == INTCONbits.RBIF) &&
  5187  0019F2  A6F2               	btfss	242,3,c	;volatile
  5188  0019F4  EFFE  F00C         	goto	i2u712_41
  5189  0019F8  EF00  F00D         	goto	i2u712_40
  5190  0019FC                     i2u712_41:
  5191  0019FC  EF1B  F00D         	goto	i2l1226
  5192  001A00                     i2u712_40:
  5193  001A00  A0F2               	btfss	242,0,c	;volatile
  5194  001A02  EF05  F00D         	goto	i2u713_41
  5195  001A06  EF07  F00D         	goto	i2u713_40
  5196  001A0A                     i2u713_41:
  5197  001A0A  EF1B  F00D         	goto	i2l1226
  5198  001A0E                     i2u713_40:
  5199  001A0E  AA81               	btfss	129,5,c	;volatile
  5200  001A10  EF0C  F00D         	goto	i2u714_41
  5201  001A14  EF0E  F00D         	goto	i2u714_40
  5202  001A18                     i2u714_41:
  5203  001A18  EF1B  F00D         	goto	i2l1226
  5204  001A1C                     i2u714_40:
  5205  001A1C  047A               	decf	_RB5_Flag^0,w,c	;volatile
  5206  001A1E  A4D8               	btfss	status,2,c
  5207  001A20  EF14  F00D         	goto	i2u715_41
  5208  001A24  EF16  F00D         	goto	i2u715_40
  5209  001A28                     i2u715_41:
  5210  001A28  EF1B  F00D         	goto	i2l1226
  5211  001A2C                     i2u715_40:
  5212  001A2C                     
  5213                           ;MCAL_Layer/Interrupt/mcal_interrupt_manager.c: 62:        (PORTBbits.RB5 == GPIO_HIGH) 
      +                          && (RB5_Flag == 1)){;MCAL_Layer/Interrupt/mcal_interrupt_manager.c: 63:         RB5_Flag
      +                           = 0;
  5214  001A2C  0E00               	movlw	0
  5215  001A2E  6E7A               	movwf	_RB5_Flag^0,c	;volatile
  5216  001A30                     
  5217                           ;MCAL_Layer/Interrupt/mcal_interrupt_manager.c: 64:         RB5_ISR(0);
  5218  001A30  0E00               	movlw	0
  5219  001A32  ECAF  F017         	call	_RB5_ISR
  5220  001A36                     i2l1226:
  5221                           
  5222                           ;MCAL_Layer/Interrupt/mcal_interrupt_manager.c: 67:     if((1 == INTCONbits.RBIE) && (1 
      +                          == INTCONbits.RBIF) &&
  5223  001A36  A6F2               	btfss	242,3,c	;volatile
  5224  001A38  EF20  F00D         	goto	i2u716_41
  5225  001A3C  EF22  F00D         	goto	i2u716_40
  5226  001A40                     i2u716_41:
  5227  001A40  EF3D  F00D         	goto	i2l1228
  5228  001A44                     i2u716_40:
  5229  001A44  A0F2               	btfss	242,0,c	;volatile
  5230  001A46  EF27  F00D         	goto	i2u717_41
  5231  001A4A  EF29  F00D         	goto	i2u717_40
  5232  001A4E                     i2u717_41:
  5233  001A4E  EF3D  F00D         	goto	i2l1228
  5234  001A52                     i2u717_40:
  5235  001A52  BA81               	btfsc	129,5,c	;volatile
  5236  001A54  EF2E  F00D         	goto	i2u718_41
  5237  001A58  EF30  F00D         	goto	i2u718_40
  5238  001A5C                     i2u718_41:
  5239  001A5C  EF3D  F00D         	goto	i2l1228
  5240  001A60                     i2u718_40:
  5241  001A60  507A               	movf	_RB5_Flag^0,w,c	;volatile
  5242  001A62  A4D8               	btfss	status,2,c
  5243  001A64  EF36  F00D         	goto	i2u719_41
  5244  001A68  EF38  F00D         	goto	i2u719_40
  5245  001A6C                     i2u719_41:
  5246  001A6C  EF3D  F00D         	goto	i2l1228
  5247  001A70                     i2u719_40:
  5248  001A70                     
  5249                           ;MCAL_Layer/Interrupt/mcal_interrupt_manager.c: 68:        (PORTBbits.RB5 == GPIO_LOW) &
      +                          & (RB5_Flag == 0)){;MCAL_Layer/Interrupt/mcal_interrupt_manager.c: 69:         RB5_Flag 
      +                          = 1;
  5250  001A70  0E01               	movlw	1
  5251  001A72  6E7A               	movwf	_RB5_Flag^0,c	;volatile
  5252  001A74                     
  5253                           ;MCAL_Layer/Interrupt/mcal_interrupt_manager.c: 70:         RB5_ISR(1);
  5254  001A74  0E01               	movlw	1
  5255  001A76  ECAF  F017         	call	_RB5_ISR
  5256  001A7A                     i2l1228:
  5257                           
  5258                           ;MCAL_Layer/Interrupt/mcal_interrupt_manager.c: 73:     if((1 == INTCONbits.RBIE) && (1 
      +                          == INTCONbits.RBIF) &&
  5259  001A7A  A6F2               	btfss	242,3,c	;volatile
  5260  001A7C  EF42  F00D         	goto	i2u720_41
  5261  001A80  EF44  F00D         	goto	i2u720_40
  5262  001A84                     i2u720_41:
  5263  001A84  EF5F  F00D         	goto	i2l1230
  5264  001A88                     i2u720_40:
  5265  001A88  A0F2               	btfss	242,0,c	;volatile
  5266  001A8A  EF49  F00D         	goto	i2u721_41
  5267  001A8E  EF4B  F00D         	goto	i2u721_40
  5268  001A92                     i2u721_41:
  5269  001A92  EF5F  F00D         	goto	i2l1230
  5270  001A96                     i2u721_40:
  5271  001A96  AC81               	btfss	129,6,c	;volatile
  5272  001A98  EF50  F00D         	goto	i2u722_41
  5273  001A9C  EF52  F00D         	goto	i2u722_40
  5274  001AA0                     i2u722_41:
  5275  001AA0  EF5F  F00D         	goto	i2l1230
  5276  001AA4                     i2u722_40:
  5277  001AA4  0479               	decf	_RB6_Flag^0,w,c	;volatile
  5278  001AA6  A4D8               	btfss	status,2,c
  5279  001AA8  EF58  F00D         	goto	i2u723_41
  5280  001AAC  EF5A  F00D         	goto	i2u723_40
  5281  001AB0                     i2u723_41:
  5282  001AB0  EF5F  F00D         	goto	i2l1230
  5283  001AB4                     i2u723_40:
  5284  001AB4                     
  5285                           ;MCAL_Layer/Interrupt/mcal_interrupt_manager.c: 74:        (PORTBbits.RB6 == GPIO_HIGH) 
      +                          && (RB6_Flag == 1)){;MCAL_Layer/Interrupt/mcal_interrupt_manager.c: 75:         RB6_Flag
      +                           = 0;
  5286  001AB4  0E00               	movlw	0
  5287  001AB6  6E79               	movwf	_RB6_Flag^0,c	;volatile
  5288  001AB8                     
  5289                           ;MCAL_Layer/Interrupt/mcal_interrupt_manager.c: 76:         RB6_ISR(0);
  5290  001AB8  0E00               	movlw	0
  5291  001ABA  ECA2  F017         	call	_RB6_ISR
  5292  001ABE                     i2l1230:
  5293                           
  5294                           ;MCAL_Layer/Interrupt/mcal_interrupt_manager.c: 79:     if((1 == INTCONbits.RBIE) && (1 
      +                          == INTCONbits.RBIF) &&
  5295  001ABE  A6F2               	btfss	242,3,c	;volatile
  5296  001AC0  EF64  F00D         	goto	i2u724_41
  5297  001AC4  EF66  F00D         	goto	i2u724_40
  5298  001AC8                     i2u724_41:
  5299  001AC8  EF81  F00D         	goto	i2l1232
  5300  001ACC                     i2u724_40:
  5301  001ACC  A0F2               	btfss	242,0,c	;volatile
  5302  001ACE  EF6B  F00D         	goto	i2u725_41
  5303  001AD2  EF6D  F00D         	goto	i2u725_40
  5304  001AD6                     i2u725_41:
  5305  001AD6  EF81  F00D         	goto	i2l1232
  5306  001ADA                     i2u725_40:
  5307  001ADA  BC81               	btfsc	129,6,c	;volatile
  5308  001ADC  EF72  F00D         	goto	i2u726_41
  5309  001AE0  EF74  F00D         	goto	i2u726_40
  5310  001AE4                     i2u726_41:
  5311  001AE4  EF81  F00D         	goto	i2l1232
  5312  001AE8                     i2u726_40:
  5313  001AE8  5079               	movf	_RB6_Flag^0,w,c	;volatile
  5314  001AEA  A4D8               	btfss	status,2,c
  5315  001AEC  EF7A  F00D         	goto	i2u727_41
  5316  001AF0  EF7C  F00D         	goto	i2u727_40
  5317  001AF4                     i2u727_41:
  5318  001AF4  EF81  F00D         	goto	i2l1232
  5319  001AF8                     i2u727_40:
  5320  001AF8                     
  5321                           ;MCAL_Layer/Interrupt/mcal_interrupt_manager.c: 80:        (PORTBbits.RB6 == GPIO_LOW) &
      +                          & (RB6_Flag == 0)){;MCAL_Layer/Interrupt/mcal_interrupt_manager.c: 81:         RB6_Flag 
      +                          = 1;
  5322  001AF8  0E01               	movlw	1
  5323  001AFA  6E79               	movwf	_RB6_Flag^0,c	;volatile
  5324  001AFC                     
  5325                           ;MCAL_Layer/Interrupt/mcal_interrupt_manager.c: 82:         RB6_ISR(1);
  5326  001AFC  0E01               	movlw	1
  5327  001AFE  ECA2  F017         	call	_RB6_ISR
  5328  001B02                     i2l1232:
  5329                           
  5330                           ;MCAL_Layer/Interrupt/mcal_interrupt_manager.c: 85:     if((1 == INTCONbits.RBIE) && (1 
      +                          == INTCONbits.RBIF) &&
  5331  001B02  A6F2               	btfss	242,3,c	;volatile
  5332  001B04  EF86  F00D         	goto	i2u728_41
  5333  001B08  EF88  F00D         	goto	i2u728_40
  5334  001B0C                     i2u728_41:
  5335  001B0C  EFA3  F00D         	goto	i2l1234
  5336  001B10                     i2u728_40:
  5337  001B10  A0F2               	btfss	242,0,c	;volatile
  5338  001B12  EF8D  F00D         	goto	i2u729_41
  5339  001B16  EF8F  F00D         	goto	i2u729_40
  5340  001B1A                     i2u729_41:
  5341  001B1A  EFA3  F00D         	goto	i2l1234
  5342  001B1E                     i2u729_40:
  5343  001B1E  AE81               	btfss	129,7,c	;volatile
  5344  001B20  EF94  F00D         	goto	i2u730_41
  5345  001B24  EF96  F00D         	goto	i2u730_40
  5346  001B28                     i2u730_41:
  5347  001B28  EFA3  F00D         	goto	i2l1234
  5348  001B2C                     i2u730_40:
  5349  001B2C  0478               	decf	_RB7_Flag^0,w,c	;volatile
  5350  001B2E  A4D8               	btfss	status,2,c
  5351  001B30  EF9C  F00D         	goto	i2u731_41
  5352  001B34  EF9E  F00D         	goto	i2u731_40
  5353  001B38                     i2u731_41:
  5354  001B38  EFA3  F00D         	goto	i2l1234
  5355  001B3C                     i2u731_40:
  5356  001B3C                     
  5357                           ;MCAL_Layer/Interrupt/mcal_interrupt_manager.c: 86:        (PORTBbits.RB7 == GPIO_HIGH) 
      +                          && (RB7_Flag == 1)){;MCAL_Layer/Interrupt/mcal_interrupt_manager.c: 87:         RB7_Flag
      +                           = 0;
  5358  001B3C  0E00               	movlw	0
  5359  001B3E  6E78               	movwf	_RB7_Flag^0,c	;volatile
  5360  001B40                     
  5361                           ;MCAL_Layer/Interrupt/mcal_interrupt_manager.c: 88:         RB7_ISR(0);
  5362  001B40  0E00               	movlw	0
  5363  001B42  EC95  F017         	call	_RB7_ISR
  5364  001B46                     i2l1234:
  5365                           
  5366                           ;MCAL_Layer/Interrupt/mcal_interrupt_manager.c: 91:     if((1 == INTCONbits.RBIE) && (1 
      +                          == INTCONbits.RBIF) &&
  5367  001B46  A6F2               	btfss	242,3,c	;volatile
  5368  001B48  EFA8  F00D         	goto	i2u732_41
  5369  001B4C  EFAA  F00D         	goto	i2u732_40
  5370  001B50                     i2u732_41:
  5371  001B50  EFC5  F00D         	goto	i2l1236
  5372  001B54                     i2u732_40:
  5373  001B54  A0F2               	btfss	242,0,c	;volatile
  5374  001B56  EFAF  F00D         	goto	i2u733_41
  5375  001B5A  EFB1  F00D         	goto	i2u733_40
  5376  001B5E                     i2u733_41:
  5377  001B5E  EFC5  F00D         	goto	i2l1236
  5378  001B62                     i2u733_40:
  5379  001B62  BE81               	btfsc	129,7,c	;volatile
  5380  001B64  EFB6  F00D         	goto	i2u734_41
  5381  001B68  EFB8  F00D         	goto	i2u734_40
  5382  001B6C                     i2u734_41:
  5383  001B6C  EFC5  F00D         	goto	i2l1236
  5384  001B70                     i2u734_40:
  5385  001B70  5078               	movf	_RB7_Flag^0,w,c	;volatile
  5386  001B72  A4D8               	btfss	status,2,c
  5387  001B74  EFBE  F00D         	goto	i2u735_41
  5388  001B78  EFC0  F00D         	goto	i2u735_40
  5389  001B7C                     i2u735_41:
  5390  001B7C  EFC5  F00D         	goto	i2l1236
  5391  001B80                     i2u735_40:
  5392  001B80                     
  5393                           ;MCAL_Layer/Interrupt/mcal_interrupt_manager.c: 92:        (PORTBbits.RB7 == GPIO_LOW) &
      +                          & (RB7_Flag == 0)){;MCAL_Layer/Interrupt/mcal_interrupt_manager.c: 93:         RB7_Flag 
      +                          = 1;
  5394  001B80  0E01               	movlw	1
  5395  001B82  6E78               	movwf	_RB7_Flag^0,c	;volatile
  5396  001B84                     
  5397                           ;MCAL_Layer/Interrupt/mcal_interrupt_manager.c: 94:         RB7_ISR(1);
  5398  001B84  0E01               	movlw	1
  5399  001B86  EC95  F017         	call	_RB7_ISR
  5400  001B8A                     i2l1236:
  5401                           
  5402                           ;MCAL_Layer/Interrupt/mcal_interrupt_manager.c: 99:     if((1 == PIE1bits.ADIE) && (1 ==
      +                           PIR1bits.ADIF)){
  5403  001B8A  AC9D               	btfss	157,6,c	;volatile
  5404  001B8C  EFCA  F00D         	goto	i2u736_41
  5405  001B90  EFCC  F00D         	goto	i2u736_40
  5406  001B94                     i2u736_41:
  5407  001B94  EFD5  F00D         	goto	i2l1238
  5408  001B98                     i2u736_40:
  5409  001B98  AC9E               	btfss	158,6,c	;volatile
  5410  001B9A  EFD1  F00D         	goto	i2u737_41
  5411  001B9E  EFD3  F00D         	goto	i2u737_40
  5412  001BA2                     i2u737_41:
  5413  001BA2  EFD5  F00D         	goto	i2l1238
  5414  001BA6                     i2u737_40:
  5415  001BA6                     
  5416                           ;MCAL_Layer/Interrupt/mcal_interrupt_manager.c: 100:         ADC_ISR();
  5417  001BA6  EC08  F018         	call	_ADC_ISR	;wreg free
  5418  001BAA                     i2l1238:
  5419                           
  5420                           ;MCAL_Layer/Interrupt/mcal_interrupt_manager.c: 104:     if((1 == INTCONbits.TMR0IE) && 
      +                          (1 == INTCONbits.TMR0IF)){
  5421  001BAA  AAF2               	btfss	242,5,c	;volatile
  5422  001BAC  EFDA  F00D         	goto	i2u738_41
  5423  001BB0  EFDC  F00D         	goto	i2u738_40
  5424  001BB4                     i2u738_41:
  5425  001BB4  EFE5  F00D         	goto	i2l1240
  5426  001BB8                     i2u738_40:
  5427  001BB8  A4F2               	btfss	242,2,c	;volatile
  5428  001BBA  EFE1  F00D         	goto	i2u739_41
  5429  001BBE  EFE3  F00D         	goto	i2u739_40
  5430  001BC2                     i2u739_41:
  5431  001BC2  EFE5  F00D         	goto	i2l1240
  5432  001BC6                     i2u739_40:
  5433  001BC6                     
  5434                           ;MCAL_Layer/Interrupt/mcal_interrupt_manager.c: 105:         TMR0_ISR();
  5435  001BC6  ECDC  F017         	call	_TMR0_ISR	;wreg free
  5436  001BCA                     i2l1240:
  5437                           
  5438                           ;MCAL_Layer/Interrupt/mcal_interrupt_manager.c: 108:     if((1 == PIE1bits.TMR1IE) && (1
      +                           == PIR1bits.TMR1IF)){
  5439  001BCA  A09D               	btfss	157,0,c	;volatile
  5440  001BCC  EFEA  F00D         	goto	i2u740_41
  5441  001BD0  EFEC  F00D         	goto	i2u740_40
  5442  001BD4                     i2u740_41:
  5443  001BD4  EFF5  F00D         	goto	i2l1242
  5444  001BD8                     i2u740_40:
  5445  001BD8  A09E               	btfss	158,0,c	;volatile
  5446  001BDA  EFF1  F00D         	goto	i2u741_41
  5447  001BDE  EFF3  F00D         	goto	i2u741_40
  5448  001BE2                     i2u741_41:
  5449  001BE2  EFF5  F00D         	goto	i2l1242
  5450  001BE6                     i2u741_40:
  5451  001BE6                     
  5452                           ;MCAL_Layer/Interrupt/mcal_interrupt_manager.c: 109:         TMR1_ISR();
  5453  001BE6  ECE3  F017         	call	_TMR1_ISR	;wreg free
  5454  001BEA                     i2l1242:
  5455                           
  5456                           ;MCAL_Layer/Interrupt/mcal_interrupt_manager.c: 112:     if((1 == PIE1bits.TMR2IE) && (1
      +                           == PIR1bits.TMR2IF)){
  5457  001BEA  A29D               	btfss	157,1,c	;volatile
  5458  001BEC  EFFA  F00D         	goto	i2u742_41
  5459  001BF0  EFFC  F00D         	goto	i2u742_40
  5460  001BF4                     i2u742_41:
  5461  001BF4  EF05  F00E         	goto	i2l1244
  5462  001BF8                     i2u742_40:
  5463  001BF8  A29E               	btfss	158,1,c	;volatile
  5464  001BFA  EF01  F00E         	goto	i2u743_41
  5465  001BFE  EF03  F00E         	goto	i2u743_40
  5466  001C02                     i2u743_41:
  5467  001C02  EF05  F00E         	goto	i2l1244
  5468  001C06                     i2u743_40:
  5469  001C06                     
  5470                           ;MCAL_Layer/Interrupt/mcal_interrupt_manager.c: 113:         TMR2_ISR();
  5471  001C06  ECF3  F017         	call	_TMR2_ISR	;wreg free
  5472  001C0A                     i2l1244:
  5473                           
  5474                           ;MCAL_Layer/Interrupt/mcal_interrupt_manager.c: 116:     if((1 == PIE2bits.TMR3IE) && (1
      +                           == PIR2bits.TMR3IF)){
  5475  001C0A  A2A0               	btfss	160,1,c	;volatile
  5476  001C0C  EF0A  F00E         	goto	i2u744_41
  5477  001C10  EF0C  F00E         	goto	i2u744_40
  5478  001C14                     i2u744_41:
  5479  001C14  EF15  F00E         	goto	i2l1246
  5480  001C18                     i2u744_40:
  5481  001C18  A2A1               	btfss	161,1,c	;volatile
  5482  001C1A  EF11  F00E         	goto	i2u745_41
  5483  001C1E  EF13  F00E         	goto	i2u745_40
  5484  001C22                     i2u745_41:
  5485  001C22  EF15  F00E         	goto	i2l1246
  5486  001C26                     i2u745_40:
  5487  001C26                     
  5488                           ;MCAL_Layer/Interrupt/mcal_interrupt_manager.c: 117:         TMR3_ISR();
  5489  001C26  EC61  F017         	call	_TMR3_ISR	;wreg free
  5490  001C2A                     i2l1246:
  5491                           
  5492                           ;MCAL_Layer/Interrupt/mcal_interrupt_manager.c: 121:     if((1 == PIE1bits.TXIE) && (1 =
      +                          = PIR1bits.TXIF)){
  5493  001C2A  A89D               	btfss	157,4,c	;volatile
  5494  001C2C  EF1A  F00E         	goto	i2u746_41
  5495  001C30  EF1C  F00E         	goto	i2u746_40
  5496  001C34                     i2u746_41:
  5497  001C34  EF25  F00E         	goto	i2l1248
  5498  001C38                     i2u746_40:
  5499  001C38  A89E               	btfss	158,4,c	;volatile
  5500  001C3A  EF21  F00E         	goto	i2u747_41
  5501  001C3E  EF23  F00E         	goto	i2u747_40
  5502  001C42                     i2u747_41:
  5503  001C42  EF25  F00E         	goto	i2l1248
  5504  001C46                     i2u747_40:
  5505  001C46                     
  5506                           ;MCAL_Layer/Interrupt/mcal_interrupt_manager.c: 122:         EUSART_TX_ISR();
  5507  001C46  EC04  F018         	call	_EUSART_TX_ISR	;wreg free
  5508  001C4A                     i2l1248:
  5509                           
  5510                           ;MCAL_Layer/Interrupt/mcal_interrupt_manager.c: 125:     if((1 == PIE1bits.RCIE) && (1 =
      +                          = PIR1bits.RCIF)){
  5511  001C4A  AA9D               	btfss	157,5,c	;volatile
  5512  001C4C  EF2A  F00E         	goto	i2u748_41
  5513  001C50  EF2C  F00E         	goto	i2u748_40
  5514  001C54                     i2u748_41:
  5515  001C54  EF35  F00E         	goto	i2l1250
  5516  001C58                     i2u748_40:
  5517  001C58  AA9E               	btfss	158,5,c	;volatile
  5518  001C5A  EF31  F00E         	goto	i2u749_41
  5519  001C5E  EF33  F00E         	goto	i2u749_40
  5520  001C62                     i2u749_41:
  5521  001C62  EF35  F00E         	goto	i2l1250
  5522  001C66                     i2u749_40:
  5523  001C66                     
  5524                           ;MCAL_Layer/Interrupt/mcal_interrupt_manager.c: 126:         EUSART_RX_ISR();
  5525  001C66  EC0C  F018         	call	_EUSART_RX_ISR	;wreg free
  5526  001C6A                     i2l1250:
  5527                           
  5528                           ;MCAL_Layer/Interrupt/mcal_interrupt_manager.c: 131:     if((1 == PIE1bits.SSPIE) && (1 
      +                          == PIR1bits.SSPIF)){
  5529  001C6A  A69D               	btfss	157,3,c	;volatile
  5530  001C6C  EF3A  F00E         	goto	i2u750_41
  5531  001C70  EF3C  F00E         	goto	i2u750_40
  5532  001C74                     i2u750_41:
  5533  001C74  EF45  F00E         	goto	i2l1252
  5534  001C78                     i2u750_40:
  5535  001C78  A69E               	btfss	158,3,c	;volatile
  5536  001C7A  EF41  F00E         	goto	i2u751_41
  5537  001C7E  EF43  F00E         	goto	i2u751_40
  5538  001C82                     i2u751_41:
  5539  001C82  EF45  F00E         	goto	i2l1252
  5540  001C86                     i2u751_40:
  5541  001C86                     
  5542                           ;MCAL_Layer/Interrupt/mcal_interrupt_manager.c: 132:         MSSP_I2C_ISR();
  5543  001C86  ECFA  F017         	call	_MSSP_I2C_ISR	;wreg free
  5544  001C8A                     i2l1252:
  5545                           
  5546                           ;MCAL_Layer/Interrupt/mcal_interrupt_manager.c: 135:     if((1 == PIE2bits.BCLIE) && (1 
      +                          == PIR2bits.BCLIF)){
  5547  001C8A  A6A0               	btfss	160,3,c	;volatile
  5548  001C8C  EF4A  F00E         	goto	i2u752_41
  5549  001C90  EF4C  F00E         	goto	i2u752_40
  5550  001C94                     i2u752_41:
  5551  001C94  EF55  F00E         	goto	i2l1254
  5552  001C98                     i2u752_40:
  5553  001C98  A6A1               	btfss	161,3,c	;volatile
  5554  001C9A  EF51  F00E         	goto	i2u753_41
  5555  001C9E  EF53  F00E         	goto	i2u753_40
  5556  001CA2                     i2u753_41:
  5557  001CA2  EF55  F00E         	goto	i2l1254
  5558  001CA6                     i2u753_40:
  5559  001CA6                     
  5560                           ;MCAL_Layer/Interrupt/mcal_interrupt_manager.c: 136:         MSSP_I2C_BC_ISR();
  5561  001CA6  ECFC  F017         	call	_MSSP_I2C_BC_ISR	;wreg free
  5562  001CAA                     i2l1254:
  5563                           
  5564                           ;MCAL_Layer/Interrupt/mcal_interrupt_manager.c: 139:     if((1 == PIE1bits.SSPIE) && (1 
      +                          == PIR1bits.SSPIF)){
  5565  001CAA  A69D               	btfss	157,3,c	;volatile
  5566  001CAC  EF5A  F00E         	goto	i2u754_41
  5567  001CB0  EF5C  F00E         	goto	i2u754_40
  5568  001CB4                     i2u754_41:
  5569  001CB4  EF65  F00E         	goto	i2l1256
  5570  001CB8                     i2u754_40:
  5571  001CB8  A69E               	btfss	158,3,c	;volatile
  5572  001CBA  EF61  F00E         	goto	i2u755_41
  5573  001CBE  EF63  F00E         	goto	i2u755_40
  5574  001CC2                     i2u755_41:
  5575  001CC2  EF65  F00E         	goto	i2l1256
  5576  001CC6                     i2u755_40:
  5577  001CC6                     
  5578                           ;MCAL_Layer/Interrupt/mcal_interrupt_manager.c: 140:         MSSP_SPI_ISR();
  5579  001CC6  EC0B  F018         	call	_MSSP_SPI_ISR	;wreg free
  5580  001CCA                     i2l1256:
  5581                           
  5582                           ;MCAL_Layer/Interrupt/mcal_interrupt_manager.c: 145:     if((1 == PIE1bits.CCP1IE) && (1
      +                           == PIR1bits.CCP1IF)){
  5583  001CCA  A49D               	btfss	157,2,c	;volatile
  5584  001CCC  EF6A  F00E         	goto	i2u756_41
  5585  001CD0  EF6C  F00E         	goto	i2u756_40
  5586  001CD4                     i2u756_41:
  5587  001CD4  EF75  F00E         	goto	i2l1258
  5588  001CD8                     i2u756_40:
  5589  001CD8  A49E               	btfss	158,2,c	;volatile
  5590  001CDA  EF71  F00E         	goto	i2u757_41
  5591  001CDE  EF73  F00E         	goto	i2u757_40
  5592  001CE2                     i2u757_41:
  5593  001CE2  EF75  F00E         	goto	i2l1258
  5594  001CE6                     i2u757_40:
  5595  001CE6                     
  5596                           ;MCAL_Layer/Interrupt/mcal_interrupt_manager.c: 146:         CCP1_ISR();
  5597  001CE6  EC7D  F017         	call	_CCP1_ISR	;wreg free
  5598  001CEA                     i2l1258:
  5599                           
  5600                           ;MCAL_Layer/Interrupt/mcal_interrupt_manager.c: 149:     if((1 == PIE2bits.CCP2IE) && (1
      +                           == PIR2bits.CCP2IF)){
  5601  001CEA  A0A0               	btfss	160,0,c	;volatile
  5602  001CEC  EF7A  F00E         	goto	i2u758_41
  5603  001CF0  EF7C  F00E         	goto	i2u758_40
  5604  001CF4                     i2u758_41:
  5605  001CF4  EF85  F00E         	goto	i2l1261
  5606  001CF8                     i2u758_40:
  5607  001CF8  A0A1               	btfss	161,0,c	;volatile
  5608  001CFA  EF81  F00E         	goto	i2u759_41
  5609  001CFE  EF83  F00E         	goto	i2u759_40
  5610  001D02                     i2u759_41:
  5611  001D02  EF85  F00E         	goto	i2l1261
  5612  001D06                     i2u759_40:
  5613  001D06                     
  5614                           ;MCAL_Layer/Interrupt/mcal_interrupt_manager.c: 150:         CCP2_ISR();
  5615  001D06  EC06  F018         	call	_CCP2_ISR	;wreg free
  5616  001D0A                     i2l1261:
  5617  001D0A  C003  FFFB         	movff	??_InterruptManager+1,pclatu
  5618  001D0E  C002  FFFA         	movff	??_InterruptManager,pclath
  5619  001D12  927C               	bcf	int$flags,1,c	;clear compiler interrupt flag (level 2)
  5620  001D14  0011               	retfie		f
  5621  001D16                     __end_of_InterruptManager:
  5622                           	callstack 0
  5623                           
  5624 ;; *************** function _TMR3_ISR *****************
  5625 ;; Defined at:
  5626 ;;		line 102 in file "MCAL_Layer/Timer3/hal_timr3.c"
  5627 ;; Parameters:    Size  Location     Type
  5628 ;;		None
  5629 ;; Auto vars:     Size  Location     Type
  5630 ;;		None
  5631 ;; Return value:  Size  Location     Type
  5632 ;;                  1    wreg      void 
  5633 ;; Registers used:
  5634 ;;		wreg, status,2, status,0, pcl, pclath, pclatu, tosl, cstack
  5635 ;; Tracked objects:
  5636 ;;		On entry : 0/0
  5637 ;;		On exit  : 0/0
  5638 ;;		Unchanged: 0/0
  5639 ;; Data sizes:     COMRAM   BANK0   BANK1   BANK2   BANK3   BANK4   BANK5   BANK6   BANK7   BANK8   BANK9  BANK10  BANK1
      +1  BANK12  BANK13  BANK14  BANK15
  5640 ;;      Params:         0       0       0       0       0       0       0       0       0       0       0       0       
      +0       0       0       0       0
  5641 ;;      Locals:         0       0       0       0       0       0       0       0       0       0       0       0       
      +0       0       0       0       0
  5642 ;;      Temps:          0       0       0       0       0       0       0       0       0       0       0       0       
      +0       0       0       0       0
  5643 ;;      Totals:         0       0       0       0       0       0       0       0       0       0       0       0       
      +0       0       0       0       0
  5644 ;;Total ram usage:        0 bytes
  5645 ;; Hardware stack levels used: 1
  5646 ;; Hardware stack levels required when called: 1
  5647 ;; This function calls:
  5648 ;;		Absolute function
  5649 ;;		_Timer3_DefaultInterruptHandler
  5650 ;; This function is called by:
  5651 ;;		_InterruptManager
  5652 ;; This function uses a non-reentrant model
  5653 ;;
  5654                           
  5655                           	psect	text20
  5656  002EC2                     __ptext20:
  5657                           	callstack 0
  5658  002EC2                     _TMR3_ISR:
  5659                           	callstack 25
  5660  002EC2                     
  5661                           ;MCAL_Layer/Timer3/hal_timr3.c: 103:     (PIR2bits.TMR3IF = 0);
  5662  002EC2  92A1               	bcf	161,1,c	;volatile
  5663  002EC4                     
  5664                           ;MCAL_Layer/Timer3/hal_timr3.c: 104:     TMR3H = (timer3_preload) >> 8;
  5665  002EC4  0100               	movlb	0	; () banked
  5666  002EC6  519D               	movf	(_timer3_preload+1)& (0+255),w,b
  5667  002EC8  6EB3               	movwf	179,c	;volatile
  5668  002ECA                     
  5669                           ; BSR set to: 0
  5670                           ;MCAL_Layer/Timer3/hal_timr3.c: 105:     TMR3L = (uint8)(timer3_preload);
  5671  002ECA  C09C  FFB2         	movff	_timer3_preload,4018	;volatile
  5672  002ECE                     
  5673                           ; BSR set to: 0
  5674                           ;MCAL_Layer/Timer3/hal_timr3.c: 106:     if(TMR3_InterruptHandler){
  5675  002ECE  519E               	movf	_TMR3_InterruptHandler& (0+255),w,b
  5676  002ED0  119F               	iorwf	(_TMR3_InterruptHandler+1)& (0+255),w,b
  5677  002ED2  B4D8               	btfsc	status,2,c
  5678  002ED4  EF6E  F017         	goto	i2u592_41
  5679  002ED8  EF70  F017         	goto	i2u592_40
  5680  002EDC                     i2u592_41:
  5681  002EDC  EF7C  F017         	goto	i2l1551
  5682  002EE0                     i2u592_40:
  5683  002EE0                     
  5684                           ; BSR set to: 0
  5685                           ;MCAL_Layer/Timer3/hal_timr3.c: 107:         TMR3_InterruptHandler();
  5686  002EE0  D802               	call	i2u593_48
  5687  002EE2  EF7C  F017         	goto	i2u593_49
  5688  002EE6                     i2u593_48:
  5689  002EE6  0005               	push	
  5690  002EE8  6EFA               	movwf	pclath,c
  5691  002EEA  519E               	movf	_TMR3_InterruptHandler& (0+255),w,b
  5692  002EEC  6EFD               	movwf	tosl,c
  5693  002EEE  519F               	movf	(_TMR3_InterruptHandler+1)& (0+255),w,b
  5694  002EF0  6EFE               	movwf	tosh,c
  5695  002EF2  6AFF               	clrf	tosu,c
  5696  002EF4  50FA               	movf	pclath,w,c
  5697  002EF6  0012               	return		;indir
  5698  002EF8                     i2u593_49:
  5699  002EF8                     i2l1551:
  5700  002EF8  0012               	return		;funcret
  5701  002EFA                     __end_of_TMR3_ISR:
  5702                           	callstack 0
  5703                           
  5704 ;; *************** function _Timer3_DefaultInterruptHandler *****************
  5705 ;; Defined at:
  5706 ;;		line 24 in file "application.c"
  5707 ;; Parameters:    Size  Location     Type
  5708 ;;		None
  5709 ;; Auto vars:     Size  Location     Type
  5710 ;;		None
  5711 ;; Return value:  Size  Location     Type
  5712 ;;                  1    wreg      void 
  5713 ;; Registers used:
  5714 ;;		wreg, status,2, status,0
  5715 ;; Tracked objects:
  5716 ;;		On entry : 0/0
  5717 ;;		On exit  : 0/0
  5718 ;;		Unchanged: 0/0
  5719 ;; Data sizes:     COMRAM   BANK0   BANK1   BANK2   BANK3   BANK4   BANK5   BANK6   BANK7   BANK8   BANK9  BANK10  BANK1
      +1  BANK12  BANK13  BANK14  BANK15
  5720 ;;      Params:         0       0       0       0       0       0       0       0       0       0       0       0       
      +0       0       0       0       0
  5721 ;;      Locals:         0       0       0       0       0       0       0       0       0       0       0       0       
      +0       0       0       0       0
  5722 ;;      Temps:          0       0       0       0       0       0       0       0       0       0       0       0       
      +0       0       0       0       0
  5723 ;;      Totals:         0       0       0       0       0       0       0       0       0       0       0       0       
      +0       0       0       0       0
  5724 ;;Total ram usage:        0 bytes
  5725 ;; Hardware stack levels used: 1
  5726 ;; This function calls:
  5727 ;;		Nothing
  5728 ;; This function is called by:
  5729 ;;		_main
  5730 ;;		_TMR3_ISR
  5731 ;; This function uses a non-reentrant model
  5732 ;;
  5733                           
  5734                           	psect	text21
  5735  002FA8                     __ptext21:
  5736                           	callstack 0
  5737  002FA8                     _Timer3_DefaultInterruptHandler:
  5738                           	callstack 25
  5739  002FA8                     
  5740                           ;application.c: 25:     Timer3_OverFlow++;
  5741  002FA8  0E01               	movlw	1
  5742  002FAA  0100               	movlb	0	; () banked
  5743  002FAC  278E               	addwf	_Timer3_OverFlow& (0+255),f,b	;volatile
  5744  002FAE  0E00               	movlw	0
  5745  002FB0  238F               	addwfc	(_Timer3_OverFlow+1)& (0+255),f,b	;volatile
  5746  002FB2  2390               	addwfc	(_Timer3_OverFlow+2)& (0+255),f,b	;volatile
  5747  002FB4  2391               	addwfc	(_Timer3_OverFlow+3)& (0+255),f,b	;volatile
  5748  002FB6                     
  5749                           ; BSR set to: 0
  5750  002FB6  0012               	return		;funcret
  5751  002FB8                     __end_of_Timer3_DefaultInterruptHandler:
  5752                           	callstack 0
  5753                           
  5754 ;; *************** function _TMR2_ISR *****************
  5755 ;; Defined at:
  5756 ;;		line 95 in file "MCAL_Layer/Timer2/hal_timr2.c"
  5757 ;; Parameters:    Size  Location     Type
  5758 ;;		None
  5759 ;; Auto vars:     Size  Location     Type
  5760 ;;		None
  5761 ;; Return value:  Size  Location     Type
  5762 ;;                  1    wreg      void 
  5763 ;; Registers used:
  5764 ;;		None
  5765 ;; Tracked objects:
  5766 ;;		On entry : 0/0
  5767 ;;		On exit  : 0/0
  5768 ;;		Unchanged: 0/0
  5769 ;; Data sizes:     COMRAM   BANK0   BANK1   BANK2   BANK3   BANK4   BANK5   BANK6   BANK7   BANK8   BANK9  BANK10  BANK1
      +1  BANK12  BANK13  BANK14  BANK15
  5770 ;;      Params:         0       0       0       0       0       0       0       0       0       0       0       0       
      +0       0       0       0       0
  5771 ;;      Locals:         0       0       0       0       0       0       0       0       0       0       0       0       
      +0       0       0       0       0
  5772 ;;      Temps:          0       0       0       0       0       0       0       0       0       0       0       0       
      +0       0       0       0       0
  5773 ;;      Totals:         0       0       0       0       0       0       0       0       0       0       0       0       
      +0       0       0       0       0
  5774 ;;Total ram usage:        0 bytes
  5775 ;; Hardware stack levels used: 1
  5776 ;; This function calls:
  5777 ;;		Nothing
  5778 ;; This function is called by:
  5779 ;;		_InterruptManager
  5780 ;; This function uses a non-reentrant model
  5781 ;;
  5782                           
  5783                           	psect	text22
  5784  002FE6                     __ptext22:
  5785                           	callstack 0
  5786  002FE6                     _TMR2_ISR:
  5787                           	callstack 26
  5788  002FE6                     
  5789                           ;MCAL_Layer/Timer2/hal_timr2.c: 96:     (PIR1bits.TMR2IF = 0);
  5790  002FE6  929E               	bcf	158,1,c	;volatile
  5791                           
  5792                           ;MCAL_Layer/Timer2/hal_timr2.c: 97:     TMR2 = timer2_preload;
  5793  002FE8  C0CB  FFCC         	movff	_timer2_preload,4044	;volatile
  5794  002FEC  0012               	return		;funcret
  5795  002FEE                     __end_of_TMR2_ISR:
  5796                           	callstack 0
  5797                           
  5798 ;; *************** function _TMR1_ISR *****************
  5799 ;; Defined at:
  5800 ;;		line 102 in file "MCAL_Layer/Timer1/hal_timr1.c"
  5801 ;; Parameters:    Size  Location     Type
  5802 ;;		None
  5803 ;; Auto vars:     Size  Location     Type
  5804 ;;		None
  5805 ;; Return value:  Size  Location     Type
  5806 ;;                  1    wreg      void 
  5807 ;; Registers used:
  5808 ;;		wreg, status,2
  5809 ;; Tracked objects:
  5810 ;;		On entry : 0/0
  5811 ;;		On exit  : 0/0
  5812 ;;		Unchanged: 0/0
  5813 ;; Data sizes:     COMRAM   BANK0   BANK1   BANK2   BANK3   BANK4   BANK5   BANK6   BANK7   BANK8   BANK9  BANK10  BANK1
      +1  BANK12  BANK13  BANK14  BANK15
  5814 ;;      Params:         0       0       0       0       0       0       0       0       0       0       0       0       
      +0       0       0       0       0
  5815 ;;      Locals:         0       0       0       0       0       0       0       0       0       0       0       0       
      +0       0       0       0       0
  5816 ;;      Temps:          0       0       0       0       0       0       0       0       0       0       0       0       
      +0       0       0       0       0
  5817 ;;      Totals:         0       0       0       0       0       0       0       0       0       0       0       0       
      +0       0       0       0       0
  5818 ;;Total ram usage:        0 bytes
  5819 ;; Hardware stack levels used: 1
  5820 ;; This function calls:
  5821 ;;		Nothing
  5822 ;; This function is called by:
  5823 ;;		_InterruptManager
  5824 ;; This function uses a non-reentrant model
  5825 ;;
  5826                           
  5827                           	psect	text23
  5828  002FC6                     __ptext23:
  5829                           	callstack 0
  5830  002FC6                     _TMR1_ISR:
  5831                           	callstack 26
  5832  002FC6                     
  5833                           ;MCAL_Layer/Timer1/hal_timr1.c: 103:     (PIR1bits.TMR1IF = 0);
  5834  002FC6  909E               	bcf	158,0,c	;volatile
  5835  002FC8                     
  5836                           ;MCAL_Layer/Timer1/hal_timr1.c: 104:     TMR1H = (timer1_preload) >> 8;
  5837  002FC8  506B               	movf	(_timer1_preload+1)^0,w,c	;volatile
  5838  002FCA  6ECF               	movwf	207,c	;volatile
  5839  002FCC                     
  5840                           ;MCAL_Layer/Timer1/hal_timr1.c: 105:     TMR1L = (uint8)(timer1_preload);
  5841  002FCC  C06A  FFCE         	movff	_timer1_preload,4046	;volatile
  5842  002FD0  0012               	return		;funcret
  5843  002FD2                     __end_of_TMR1_ISR:
  5844                           	callstack 0
  5845                           
  5846 ;; *************** function _TMR0_ISR *****************
  5847 ;; Defined at:
  5848 ;;		line 107 in file "MCAL_Layer/Timer0/hal_timr0.c"
  5849 ;; Parameters:    Size  Location     Type
  5850 ;;		None
  5851 ;; Auto vars:     Size  Location     Type
  5852 ;;		None
  5853 ;; Return value:  Size  Location     Type
  5854 ;;                  1    wreg      void 
  5855 ;; Registers used:
  5856 ;;		wreg, status,2
  5857 ;; Tracked objects:
  5858 ;;		On entry : 0/0
  5859 ;;		On exit  : 0/0
  5860 ;;		Unchanged: 0/0
  5861 ;; Data sizes:     COMRAM   BANK0   BANK1   BANK2   BANK3   BANK4   BANK5   BANK6   BANK7   BANK8   BANK9  BANK10  BANK1
      +1  BANK12  BANK13  BANK14  BANK15
  5862 ;;      Params:         0       0       0       0       0       0       0       0       0       0       0       0       
      +0       0       0       0       0
  5863 ;;      Locals:         0       0       0       0       0       0       0       0       0       0       0       0       
      +0       0       0       0       0
  5864 ;;      Temps:          0       0       0       0       0       0       0       0       0       0       0       0       
      +0       0       0       0       0
  5865 ;;      Totals:         0       0       0       0       0       0       0       0       0       0       0       0       
      +0       0       0       0       0
  5866 ;;Total ram usage:        0 bytes
  5867 ;; Hardware stack levels used: 1
  5868 ;; This function calls:
  5869 ;;		Nothing
  5870 ;; This function is called by:
  5871 ;;		_InterruptManager
  5872 ;; This function uses a non-reentrant model
  5873 ;;
  5874                           
  5875                           	psect	text24
  5876  002FB8                     __ptext24:
  5877                           	callstack 0
  5878  002FB8                     _TMR0_ISR:
  5879                           	callstack 26
  5880  002FB8                     
  5881                           ;MCAL_Layer/Timer0/hal_timr0.c: 108:     (INTCONbits.TMR0IF = 0);
  5882  002FB8  94F2               	bcf	242,2,c	;volatile
  5883  002FBA                     
  5884                           ;MCAL_Layer/Timer0/hal_timr0.c: 109:     TMR0H = (timer0_preload) >> 8;
  5885  002FBA  0100               	movlb	0	; () banked
  5886  002FBC  51A5               	movf	(_timer0_preload+1)& (0+255),w,b
  5887  002FBE  6ED7               	movwf	215,c	;volatile
  5888  002FC0                     
  5889                           ; BSR set to: 0
  5890                           ;MCAL_Layer/Timer0/hal_timr0.c: 110:     TMR0L = (uint8)(timer0_preload);
  5891  002FC0  C0A4  FFD6         	movff	_timer0_preload,4054	;volatile
  5892  002FC4                     
  5893                           ; BSR set to: 0
  5894  002FC4  0012               	return		;funcret
  5895  002FC6                     __end_of_TMR0_ISR:
  5896                           	callstack 0
  5897                           
  5898 ;; *************** function _RB7_ISR *****************
  5899 ;; Defined at:
  5900 ;;		line 164 in file "MCAL_Layer/Interrupt/mcal_external_interrupt.c"
  5901 ;; Parameters:    Size  Location     Type
  5902 ;;  RB7_Source      1    wreg     unsigned char 
  5903 ;; Auto vars:     Size  Location     Type
  5904 ;;  RB7_Source      1    0[COMRAM] unsigned char 
  5905 ;; Return value:  Size  Location     Type
  5906 ;;                  1    wreg      void 
  5907 ;; Registers used:
  5908 ;;		wreg, status,2, status,0
  5909 ;; Tracked objects:
  5910 ;;		On entry : 0/0
  5911 ;;		On exit  : 0/0
  5912 ;;		Unchanged: 0/0
  5913 ;; Data sizes:     COMRAM   BANK0   BANK1   BANK2   BANK3   BANK4   BANK5   BANK6   BANK7   BANK8   BANK9  BANK10  BANK1
      +1  BANK12  BANK13  BANK14  BANK15
  5914 ;;      Params:         0       0       0       0       0       0       0       0       0       0       0       0       
      +0       0       0       0       0
  5915 ;;      Locals:         1       0       0       0       0       0       0       0       0       0       0       0       
      +0       0       0       0       0
  5916 ;;      Temps:          0       0       0       0       0       0       0       0       0       0       0       0       
      +0       0       0       0       0
  5917 ;;      Totals:         1       0       0       0       0       0       0       0       0       0       0       0       
      +0       0       0       0       0
  5918 ;;Total ram usage:        1 bytes
  5919 ;; Hardware stack levels used: 1
  5920 ;; This function calls:
  5921 ;;		Nothing
  5922 ;; This function is called by:
  5923 ;;		_InterruptManager
  5924 ;; This function uses a non-reentrant model
  5925 ;;
  5926                           
  5927                           	psect	text25
  5928  002F2A                     __ptext25:
  5929                           	callstack 0
  5930  002F2A                     _RB7_ISR:
  5931                           	callstack 26
  5932                           
  5933                           ; BSR set to: 0
  5934                           ;incstack = 0
  5935                           ;RB7_ISR@RB7_Source stored from wreg
  5936  002F2A  6E01               	movwf	RB7_ISR@RB7_Source^0,c
  5937  002F2C                     
  5938                           ;MCAL_Layer/Interrupt/mcal_external_interrupt.c: 166:     (INTCONbits.RBIF = 0);
  5939  002F2C  90F2               	bcf	242,0,c	;volatile
  5940  002F2E                     
  5941                           ;MCAL_Layer/Interrupt/mcal_external_interrupt.c: 169:     if(0 == RB7_Source){
  5942  002F2E  5001               	movf	RB7_ISR@RB7_Source^0,w,c
  5943  002F30  A4D8               	btfss	status,2,c
  5944  002F32  EF9D  F017         	goto	i2u588_41
  5945  002F36  EF9F  F017         	goto	i2u588_40
  5946  002F3A                     i2u588_41:
  5947  002F3A  EFA1  F017         	goto	i2l6774
  5948  002F3E                     i2u588_40:
  5949  002F3E  EFA1  F017         	goto	i2l1041
  5950  002F42                     i2l6774:
  5951  002F42                     i2l1041:
  5952  002F42  0012               	return		;funcret
  5953  002F44                     __end_of_RB7_ISR:
  5954                           	callstack 0
  5955                           
  5956 ;; *************** function _RB6_ISR *****************
  5957 ;; Defined at:
  5958 ;;		line 145 in file "MCAL_Layer/Interrupt/mcal_external_interrupt.c"
  5959 ;; Parameters:    Size  Location     Type
  5960 ;;  RB6_Source      1    wreg     unsigned char 
  5961 ;; Auto vars:     Size  Location     Type
  5962 ;;  RB6_Source      1    0[COMRAM] unsigned char 
  5963 ;; Return value:  Size  Location     Type
  5964 ;;                  1    wreg      void 
  5965 ;; Registers used:
  5966 ;;		wreg, status,2, status,0
  5967 ;; Tracked objects:
  5968 ;;		On entry : 0/0
  5969 ;;		On exit  : 0/0
  5970 ;;		Unchanged: 0/0
  5971 ;; Data sizes:     COMRAM   BANK0   BANK1   BANK2   BANK3   BANK4   BANK5   BANK6   BANK7   BANK8   BANK9  BANK10  BANK1
      +1  BANK12  BANK13  BANK14  BANK15
  5972 ;;      Params:         0       0       0       0       0       0       0       0       0       0       0       0       
      +0       0       0       0       0
  5973 ;;      Locals:         1       0       0       0       0       0       0       0       0       0       0       0       
      +0       0       0       0       0
  5974 ;;      Temps:          0       0       0       0       0       0       0       0       0       0       0       0       
      +0       0       0       0       0
  5975 ;;      Totals:         1       0       0       0       0       0       0       0       0       0       0       0       
      +0       0       0       0       0
  5976 ;;Total ram usage:        1 bytes
  5977 ;; Hardware stack levels used: 1
  5978 ;; This function calls:
  5979 ;;		Nothing
  5980 ;; This function is called by:
  5981 ;;		_InterruptManager
  5982 ;; This function uses a non-reentrant model
  5983 ;;
  5984                           
  5985                           	psect	text26
  5986  002F44                     __ptext26:
  5987                           	callstack 0
  5988  002F44                     _RB6_ISR:
  5989                           	callstack 26
  5990                           
  5991                           ;incstack = 0
  5992                           ;RB6_ISR@RB6_Source stored from wreg
  5993  002F44  6E01               	movwf	RB6_ISR@RB6_Source^0,c
  5994  002F46                     
  5995                           ;MCAL_Layer/Interrupt/mcal_external_interrupt.c: 147:     (INTCONbits.RBIF = 0);
  5996  002F46  90F2               	bcf	242,0,c	;volatile
  5997  002F48                     
  5998                           ;MCAL_Layer/Interrupt/mcal_external_interrupt.c: 150:     if(0 == RB6_Source){
  5999  002F48  5001               	movf	RB6_ISR@RB6_Source^0,w,c
  6000  002F4A  A4D8               	btfss	status,2,c
  6001  002F4C  EFAA  F017         	goto	i2u587_41
  6002  002F50  EFAC  F017         	goto	i2u587_40
  6003  002F54                     i2u587_41:
  6004  002F54  EFAE  F017         	goto	i2l6760
  6005  002F58                     i2u587_40:
  6006  002F58  EFAE  F017         	goto	i2l1030
  6007  002F5C                     i2l6760:
  6008  002F5C                     i2l1030:
  6009  002F5C  0012               	return		;funcret
  6010  002F5E                     __end_of_RB6_ISR:
  6011                           	callstack 0
  6012                           
  6013 ;; *************** function _RB5_ISR *****************
  6014 ;; Defined at:
  6015 ;;		line 126 in file "MCAL_Layer/Interrupt/mcal_external_interrupt.c"
  6016 ;; Parameters:    Size  Location     Type
  6017 ;;  RB5_Source      1    wreg     unsigned char 
  6018 ;; Auto vars:     Size  Location     Type
  6019 ;;  RB5_Source      1    0[COMRAM] unsigned char 
  6020 ;; Return value:  Size  Location     Type
  6021 ;;                  1    wreg      void 
  6022 ;; Registers used:
  6023 ;;		wreg, status,2, status,0
  6024 ;; Tracked objects:
  6025 ;;		On entry : 0/0
  6026 ;;		On exit  : 0/0
  6027 ;;		Unchanged: 0/0
  6028 ;; Data sizes:     COMRAM   BANK0   BANK1   BANK2   BANK3   BANK4   BANK5   BANK6   BANK7   BANK8   BANK9  BANK10  BANK1
      +1  BANK12  BANK13  BANK14  BANK15
  6029 ;;      Params:         0       0       0       0       0       0       0       0       0       0       0       0       
      +0       0       0       0       0
  6030 ;;      Locals:         1       0       0       0       0       0       0       0       0       0       0       0       
      +0       0       0       0       0
  6031 ;;      Temps:          0       0       0       0       0       0       0       0       0       0       0       0       
      +0       0       0       0       0
  6032 ;;      Totals:         1       0       0       0       0       0       0       0       0       0       0       0       
      +0       0       0       0       0
  6033 ;;Total ram usage:        1 bytes
  6034 ;; Hardware stack levels used: 1
  6035 ;; This function calls:
  6036 ;;		Nothing
  6037 ;; This function is called by:
  6038 ;;		_InterruptManager
  6039 ;; This function uses a non-reentrant model
  6040 ;;
  6041                           
  6042                           	psect	text27
  6043  002F5E                     __ptext27:
  6044                           	callstack 0
  6045  002F5E                     _RB5_ISR:
  6046                           	callstack 26
  6047                           
  6048                           ;incstack = 0
  6049                           ;RB5_ISR@RB5_Source stored from wreg
  6050  002F5E  6E01               	movwf	RB5_ISR@RB5_Source^0,c
  6051  002F60                     
  6052                           ;MCAL_Layer/Interrupt/mcal_external_interrupt.c: 128:     (INTCONbits.RBIF = 0);
  6053  002F60  90F2               	bcf	242,0,c	;volatile
  6054  002F62                     
  6055                           ;MCAL_Layer/Interrupt/mcal_external_interrupt.c: 131:     if(0 == RB5_Source){
  6056  002F62  5001               	movf	RB5_ISR@RB5_Source^0,w,c
  6057  002F64  A4D8               	btfss	status,2,c
  6058  002F66  EFB7  F017         	goto	i2u586_41
  6059  002F6A  EFB9  F017         	goto	i2u586_40
  6060  002F6E                     i2u586_41:
  6061  002F6E  EFBB  F017         	goto	i2l6746
  6062  002F72                     i2u586_40:
  6063  002F72  EFBB  F017         	goto	i2l1019
  6064  002F76                     i2l6746:
  6065  002F76                     i2l1019:
  6066  002F76  0012               	return		;funcret
  6067  002F78                     __end_of_RB5_ISR:
  6068                           	callstack 0
  6069                           
  6070 ;; *************** function _RB4_ISR *****************
  6071 ;; Defined at:
  6072 ;;		line 107 in file "MCAL_Layer/Interrupt/mcal_external_interrupt.c"
  6073 ;; Parameters:    Size  Location     Type
  6074 ;;  RB4_Source      1    wreg     unsigned char 
  6075 ;; Auto vars:     Size  Location     Type
  6076 ;;  RB4_Source      1    0[COMRAM] unsigned char 
  6077 ;; Return value:  Size  Location     Type
  6078 ;;                  1    wreg      void 
  6079 ;; Registers used:
  6080 ;;		wreg, status,2, status,0
  6081 ;; Tracked objects:
  6082 ;;		On entry : 0/0
  6083 ;;		On exit  : 0/0
  6084 ;;		Unchanged: 0/0
  6085 ;; Data sizes:     COMRAM   BANK0   BANK1   BANK2   BANK3   BANK4   BANK5   BANK6   BANK7   BANK8   BANK9  BANK10  BANK1
      +1  BANK12  BANK13  BANK14  BANK15
  6086 ;;      Params:         0       0       0       0       0       0       0       0       0       0       0       0       
      +0       0       0       0       0
  6087 ;;      Locals:         1       0       0       0       0       0       0       0       0       0       0       0       
      +0       0       0       0       0
  6088 ;;      Temps:          0       0       0       0       0       0       0       0       0       0       0       0       
      +0       0       0       0       0
  6089 ;;      Totals:         1       0       0       0       0       0       0       0       0       0       0       0       
      +0       0       0       0       0
  6090 ;;Total ram usage:        1 bytes
  6091 ;; Hardware stack levels used: 1
  6092 ;; This function calls:
  6093 ;;		Nothing
  6094 ;; This function is called by:
  6095 ;;		_InterruptManager
  6096 ;; This function uses a non-reentrant model
  6097 ;;
  6098                           
  6099                           	psect	text28
  6100  002F78                     __ptext28:
  6101                           	callstack 0
  6102  002F78                     _RB4_ISR:
  6103                           	callstack 26
  6104                           
  6105                           ;incstack = 0
  6106                           ;RB4_ISR@RB4_Source stored from wreg
  6107  002F78  6E01               	movwf	RB4_ISR@RB4_Source^0,c
  6108  002F7A                     
  6109                           ;MCAL_Layer/Interrupt/mcal_external_interrupt.c: 109:     (INTCONbits.RBIF = 0);
  6110  002F7A  90F2               	bcf	242,0,c	;volatile
  6111  002F7C                     
  6112                           ;MCAL_Layer/Interrupt/mcal_external_interrupt.c: 112:     if(0 == RB4_Source){
  6113  002F7C  5001               	movf	RB4_ISR@RB4_Source^0,w,c
  6114  002F7E  A4D8               	btfss	status,2,c
  6115  002F80  EFC4  F017         	goto	i2u585_41
  6116  002F84  EFC6  F017         	goto	i2u585_40
  6117  002F88                     i2u585_41:
  6118  002F88  EFC8  F017         	goto	i2l6732
  6119  002F8C                     i2u585_40:
  6120  002F8C  EFC8  F017         	goto	i2l1008
  6121  002F90                     i2l6732:
  6122  002F90                     i2l1008:
  6123  002F90  0012               	return		;funcret
  6124  002F92                     __end_of_RB4_ISR:
  6125                           	callstack 0
  6126                           
  6127 ;; *************** function _MSSP_SPI_ISR *****************
  6128 ;; Defined at:
  6129 ;;		line 105 in file "MCAL_Layer/SPI/hal_spi.c"
  6130 ;; Parameters:    Size  Location     Type
  6131 ;;		None
  6132 ;; Auto vars:     Size  Location     Type
  6133 ;;		None
  6134 ;; Return value:  Size  Location     Type
  6135 ;;                  1    wreg      void 
  6136 ;; Registers used:
  6137 ;;		None
  6138 ;; Tracked objects:
  6139 ;;		On entry : 0/0
  6140 ;;		On exit  : 0/0
  6141 ;;		Unchanged: 0/0
  6142 ;; Data sizes:     COMRAM   BANK0   BANK1   BANK2   BANK3   BANK4   BANK5   BANK6   BANK7   BANK8   BANK9  BANK10  BANK1
      +1  BANK12  BANK13  BANK14  BANK15
  6143 ;;      Params:         0       0       0       0       0       0       0       0       0       0       0       0       
      +0       0       0       0       0
  6144 ;;      Locals:         0       0       0       0       0       0       0       0       0       0       0       0       
      +0       0       0       0       0
  6145 ;;      Temps:          0       0       0       0       0       0       0       0       0       0       0       0       
      +0       0       0       0       0
  6146 ;;      Totals:         0       0       0       0       0       0       0       0       0       0       0       0       
      +0       0       0       0       0
  6147 ;;Total ram usage:        0 bytes
  6148 ;; Hardware stack levels used: 1
  6149 ;; This function calls:
  6150 ;;		Nothing
  6151 ;; This function is called by:
  6152 ;;		_InterruptManager
  6153 ;; This function uses a non-reentrant model
  6154 ;;
  6155                           
  6156                           	psect	text29
  6157  003016                     __ptext29:
  6158                           	callstack 0
  6159  003016                     _MSSP_SPI_ISR:
  6160                           	callstack 26
  6161  003016  0012               	return		;funcret
  6162  003018                     __end_of_MSSP_SPI_ISR:
  6163                           	callstack 0
  6164                           
  6165 ;; *************** function _MSSP_I2C_ISR *****************
  6166 ;; Defined at:
  6167 ;;		line 242 in file "MCAL_Layer/I2C/hal_i2c.c"
  6168 ;; Parameters:    Size  Location     Type
  6169 ;;		None
  6170 ;; Auto vars:     Size  Location     Type
  6171 ;;		None
  6172 ;; Return value:  Size  Location     Type
  6173 ;;                  1    wreg      void 
  6174 ;; Registers used:
  6175 ;;		None
  6176 ;; Tracked objects:
  6177 ;;		On entry : 0/0
  6178 ;;		On exit  : 0/0
  6179 ;;		Unchanged: 0/0
  6180 ;; Data sizes:     COMRAM   BANK0   BANK1   BANK2   BANK3   BANK4   BANK5   BANK6   BANK7   BANK8   BANK9  BANK10  BANK1
      +1  BANK12  BANK13  BANK14  BANK15
  6181 ;;      Params:         0       0       0       0       0       0       0       0       0       0       0       0       
      +0       0       0       0       0
  6182 ;;      Locals:         0       0       0       0       0       0       0       0       0       0       0       0       
      +0       0       0       0       0
  6183 ;;      Temps:          0       0       0       0       0       0       0       0       0       0       0       0       
      +0       0       0       0       0
  6184 ;;      Totals:         0       0       0       0       0       0       0       0       0       0       0       0       
      +0       0       0       0       0
  6185 ;;Total ram usage:        0 bytes
  6186 ;; Hardware stack levels used: 1
  6187 ;; This function calls:
  6188 ;;		Nothing
  6189 ;; This function is called by:
  6190 ;;		_InterruptManager
  6191 ;; This function uses a non-reentrant model
  6192 ;;
  6193                           
  6194                           	psect	text30
  6195  002FF4                     __ptext30:
  6196                           	callstack 0
  6197  002FF4                     _MSSP_I2C_ISR:
  6198                           	callstack 26
  6199  002FF4                     
  6200                           ;MCAL_Layer/I2C/hal_i2c.c: 244:     (PIR1bits.SSPIF = 0);
  6201  002FF4  969E               	bcf	158,3,c	;volatile
  6202  002FF6  0012               	return		;funcret
  6203  002FF8                     __end_of_MSSP_I2C_ISR:
  6204                           	callstack 0
  6205                           
  6206 ;; *************** function _MSSP_I2C_BC_ISR *****************
  6207 ;; Defined at:
  6208 ;;		line 251 in file "MCAL_Layer/I2C/hal_i2c.c"
  6209 ;; Parameters:    Size  Location     Type
  6210 ;;		None
  6211 ;; Auto vars:     Size  Location     Type
  6212 ;;		None
  6213 ;; Return value:  Size  Location     Type
  6214 ;;                  1    wreg      void 
  6215 ;; Registers used:
  6216 ;;		None
  6217 ;; Tracked objects:
  6218 ;;		On entry : 0/0
  6219 ;;		On exit  : 0/0
  6220 ;;		Unchanged: 0/0
  6221 ;; Data sizes:     COMRAM   BANK0   BANK1   BANK2   BANK3   BANK4   BANK5   BANK6   BANK7   BANK8   BANK9  BANK10  BANK1
      +1  BANK12  BANK13  BANK14  BANK15
  6222 ;;      Params:         0       0       0       0       0       0       0       0       0       0       0       0       
      +0       0       0       0       0
  6223 ;;      Locals:         0       0       0       0       0       0       0       0       0       0       0       0       
      +0       0       0       0       0
  6224 ;;      Temps:          0       0       0       0       0       0       0       0       0       0       0       0       
      +0       0       0       0       0
  6225 ;;      Totals:         0       0       0       0       0       0       0       0       0       0       0       0       
      +0       0       0       0       0
  6226 ;;Total ram usage:        0 bytes
  6227 ;; Hardware stack levels used: 1
  6228 ;; This function calls:
  6229 ;;		Nothing
  6230 ;; This function is called by:
  6231 ;;		_InterruptManager
  6232 ;; This function uses a non-reentrant model
  6233 ;;
  6234                           
  6235                           	psect	text31
  6236  002FF8                     __ptext31:
  6237                           	callstack 0
  6238  002FF8                     _MSSP_I2C_BC_ISR:
  6239                           	callstack 26
  6240  002FF8                     
  6241                           ;MCAL_Layer/I2C/hal_i2c.c: 253:     (PIR2bits.BCLIF = 0);
  6242  002FF8  96A1               	bcf	161,3,c	;volatile
  6243  002FFA  0012               	return		;funcret
  6244  002FFC                     __end_of_MSSP_I2C_BC_ISR:
  6245                           	callstack 0
  6246                           
  6247 ;; *************** function _INT2_ISR *****************
  6248 ;; Defined at:
  6249 ;;		line 95 in file "MCAL_Layer/Interrupt/mcal_external_interrupt.c"
  6250 ;; Parameters:    Size  Location     Type
  6251 ;;		None
  6252 ;; Auto vars:     Size  Location     Type
  6253 ;;		None
  6254 ;; Return value:  Size  Location     Type
  6255 ;;                  1    wreg      void 
  6256 ;; Registers used:
  6257 ;;		None
  6258 ;; Tracked objects:
  6259 ;;		On entry : 0/0
  6260 ;;		On exit  : 0/0
  6261 ;;		Unchanged: 0/0
  6262 ;; Data sizes:     COMRAM   BANK0   BANK1   BANK2   BANK3   BANK4   BANK5   BANK6   BANK7   BANK8   BANK9  BANK10  BANK1
      +1  BANK12  BANK13  BANK14  BANK15
  6263 ;;      Params:         0       0       0       0       0       0       0       0       0       0       0       0       
      +0       0       0       0       0
  6264 ;;      Locals:         0       0       0       0       0       0       0       0       0       0       0       0       
      +0       0       0       0       0
  6265 ;;      Temps:          0       0       0       0       0       0       0       0       0       0       0       0       
      +0       0       0       0       0
  6266 ;;      Totals:         0       0       0       0       0       0       0       0       0       0       0       0       
      +0       0       0       0       0
  6267 ;;Total ram usage:        0 bytes
  6268 ;; Hardware stack levels used: 1
  6269 ;; This function calls:
  6270 ;;		Nothing
  6271 ;; This function is called by:
  6272 ;;		_InterruptManager
  6273 ;; This function uses a non-reentrant model
  6274 ;;
  6275                           
  6276                           	psect	text32
  6277  002FFC                     __ptext32:
  6278                           	callstack 0
  6279  002FFC                     _INT2_ISR:
  6280                           	callstack 26
  6281  002FFC                     
  6282                           ;MCAL_Layer/Interrupt/mcal_external_interrupt.c: 97:     (INTCON3bits.INT2IF = 0);
  6283  002FFC  92F0               	bcf	240,1,c	;volatile
  6284  002FFE  0012               	return		;funcret
  6285  003000                     __end_of_INT2_ISR:
  6286                           	callstack 0
  6287                           
  6288 ;; *************** function _INT1_ISR *****************
  6289 ;; Defined at:
  6290 ;;		line 86 in file "MCAL_Layer/Interrupt/mcal_external_interrupt.c"
  6291 ;; Parameters:    Size  Location     Type
  6292 ;;		None
  6293 ;; Auto vars:     Size  Location     Type
  6294 ;;		None
  6295 ;; Return value:  Size  Location     Type
  6296 ;;                  1    wreg      void 
  6297 ;; Registers used:
  6298 ;;		None
  6299 ;; Tracked objects:
  6300 ;;		On entry : 0/0
  6301 ;;		On exit  : 0/0
  6302 ;;		Unchanged: 0/0
  6303 ;; Data sizes:     COMRAM   BANK0   BANK1   BANK2   BANK3   BANK4   BANK5   BANK6   BANK7   BANK8   BANK9  BANK10  BANK1
      +1  BANK12  BANK13  BANK14  BANK15
  6304 ;;      Params:         0       0       0       0       0       0       0       0       0       0       0       0       
      +0       0       0       0       0
  6305 ;;      Locals:         0       0       0       0       0       0       0       0       0       0       0       0       
      +0       0       0       0       0
  6306 ;;      Temps:          0       0       0       0       0       0       0       0       0       0       0       0       
      +0       0       0       0       0
  6307 ;;      Totals:         0       0       0       0       0       0       0       0       0       0       0       0       
      +0       0       0       0       0
  6308 ;;Total ram usage:        0 bytes
  6309 ;; Hardware stack levels used: 1
  6310 ;; This function calls:
  6311 ;;		Nothing
  6312 ;; This function is called by:
  6313 ;;		_InterruptManager
  6314 ;; This function uses a non-reentrant model
  6315 ;;
  6316                           
  6317                           	psect	text33
  6318  003000                     __ptext33:
  6319                           	callstack 0
  6320  003000                     _INT1_ISR:
  6321                           	callstack 26
  6322  003000                     
  6323                           ;MCAL_Layer/Interrupt/mcal_external_interrupt.c: 88:     (INTCON3bits.INT1IF = 0);
  6324  003000  90F0               	bcf	240,0,c	;volatile
  6325  003002  0012               	return		;funcret
  6326  003004                     __end_of_INT1_ISR:
  6327                           	callstack 0
  6328                           
  6329 ;; *************** function _INT0_ISR *****************
  6330 ;; Defined at:
  6331 ;;		line 74 in file "MCAL_Layer/Interrupt/mcal_external_interrupt.c"
  6332 ;; Parameters:    Size  Location     Type
  6333 ;;		None
  6334 ;; Auto vars:     Size  Location     Type
  6335 ;;		None
  6336 ;; Return value:  Size  Location     Type
  6337 ;;                  1    wreg      void 
  6338 ;; Registers used:
  6339 ;;		None
  6340 ;; Tracked objects:
  6341 ;;		On entry : 0/0
  6342 ;;		On exit  : 0/0
  6343 ;;		Unchanged: 0/0
  6344 ;; Data sizes:     COMRAM   BANK0   BANK1   BANK2   BANK3   BANK4   BANK5   BANK6   BANK7   BANK8   BANK9  BANK10  BANK1
      +1  BANK12  BANK13  BANK14  BANK15
  6345 ;;      Params:         0       0       0       0       0       0       0       0       0       0       0       0       
      +0       0       0       0       0
  6346 ;;      Locals:         0       0       0       0       0       0       0       0       0       0       0       0       
      +0       0       0       0       0
  6347 ;;      Temps:          0       0       0       0       0       0       0       0       0       0       0       0       
      +0       0       0       0       0
  6348 ;;      Totals:         0       0       0       0       0       0       0       0       0       0       0       0       
      +0       0       0       0       0
  6349 ;;Total ram usage:        0 bytes
  6350 ;; Hardware stack levels used: 1
  6351 ;; This function calls:
  6352 ;;		Nothing
  6353 ;; This function is called by:
  6354 ;;		_InterruptManager
  6355 ;; This function uses a non-reentrant model
  6356 ;;
  6357                           
  6358                           	psect	text34
  6359  003004                     __ptext34:
  6360                           	callstack 0
  6361  003004                     _INT0_ISR:
  6362                           	callstack 26
  6363  003004                     
  6364                           ;MCAL_Layer/Interrupt/mcal_external_interrupt.c: 76:     (INTCONbits.INT0IF = 0);
  6365  003004  92F2               	bcf	242,1,c	;volatile
  6366  003006  0012               	return		;funcret
  6367  003008                     __end_of_INT0_ISR:
  6368                           	callstack 0
  6369                           
  6370 ;; *************** function _EUSART_TX_ISR *****************
  6371 ;; Defined at:
  6372 ;;		line 243 in file "MCAL_Layer/usart/hal_usart.c"
  6373 ;; Parameters:    Size  Location     Type
  6374 ;;		None
  6375 ;; Auto vars:     Size  Location     Type
  6376 ;;		None
  6377 ;; Return value:  Size  Location     Type
  6378 ;;                  1    wreg      void 
  6379 ;; Registers used:
  6380 ;;		None
  6381 ;; Tracked objects:
  6382 ;;		On entry : 0/0
  6383 ;;		On exit  : 0/0
  6384 ;;		Unchanged: 0/0
  6385 ;; Data sizes:     COMRAM   BANK0   BANK1   BANK2   BANK3   BANK4   BANK5   BANK6   BANK7   BANK8   BANK9  BANK10  BANK1
      +1  BANK12  BANK13  BANK14  BANK15
  6386 ;;      Params:         0       0       0       0       0       0       0       0       0       0       0       0       
      +0       0       0       0       0
  6387 ;;      Locals:         0       0       0       0       0       0       0       0       0       0       0       0       
      +0       0       0       0       0
  6388 ;;      Temps:          0       0       0       0       0       0       0       0       0       0       0       0       
      +0       0       0       0       0
  6389 ;;      Totals:         0       0       0       0       0       0       0       0       0       0       0       0       
      +0       0       0       0       0
  6390 ;;Total ram usage:        0 bytes
  6391 ;; Hardware stack levels used: 1
  6392 ;; This function calls:
  6393 ;;		Nothing
  6394 ;; This function is called by:
  6395 ;;		_InterruptManager
  6396 ;; This function uses a non-reentrant model
  6397 ;;
  6398                           
  6399                           	psect	text35
  6400  003008                     __ptext35:
  6401                           	callstack 0
  6402  003008                     _EUSART_TX_ISR:
  6403                           	callstack 26
  6404  003008                     
  6405                           ;MCAL_Layer/usart/hal_usart.c: 244:     (PIE1bits.TXIE = 0);
  6406  003008  989D               	bcf	157,4,c	;volatile
  6407  00300A  0012               	return		;funcret
  6408  00300C                     __end_of_EUSART_TX_ISR:
  6409                           	callstack 0
  6410                           
  6411 ;; *************** function _EUSART_RX_ISR *****************
  6412 ;; Defined at:
  6413 ;;		line 250 in file "MCAL_Layer/usart/hal_usart.c"
  6414 ;; Parameters:    Size  Location     Type
  6415 ;;		None
  6416 ;; Auto vars:     Size  Location     Type
  6417 ;;		None
  6418 ;; Return value:  Size  Location     Type
  6419 ;;                  1    wreg      void 
  6420 ;; Registers used:
  6421 ;;		wreg, status,2, status,0
  6422 ;; Tracked objects:
  6423 ;;		On entry : 0/0
  6424 ;;		On exit  : 0/0
  6425 ;;		Unchanged: 0/0
  6426 ;; Data sizes:     COMRAM   BANK0   BANK1   BANK2   BANK3   BANK4   BANK5   BANK6   BANK7   BANK8   BANK9  BANK10  BANK1
      +1  BANK12  BANK13  BANK14  BANK15
  6427 ;;      Params:         0       0       0       0       0       0       0       0       0       0       0       0       
      +0       0       0       0       0
  6428 ;;      Locals:         0       0       0       0       0       0       0       0       0       0       0       0       
      +0       0       0       0       0
  6429 ;;      Temps:          0       0       0       0       0       0       0       0       0       0       0       0       
      +0       0       0       0       0
  6430 ;;      Totals:         0       0       0       0       0       0       0       0       0       0       0       0       
      +0       0       0       0       0
  6431 ;;Total ram usage:        0 bytes
  6432 ;; Hardware stack levels used: 1
  6433 ;; This function calls:
  6434 ;;		Nothing
  6435 ;; This function is called by:
  6436 ;;		_InterruptManager
  6437 ;; This function uses a non-reentrant model
  6438 ;;
  6439                           
  6440                           	psect	text36
  6441  003018                     __ptext36:
  6442                           	callstack 0
  6443  003018                     _EUSART_RX_ISR:
  6444                           	callstack 26
  6445  003018  0012               	return		;funcret
  6446  00301A                     __end_of_EUSART_RX_ISR:
  6447                           	callstack 0
  6448                           
  6449 ;; *************** function _CCP2_ISR *****************
  6450 ;; Defined at:
  6451 ;;		line 260 in file "MCAL_Layer/CCP/hal_ccp.c"
  6452 ;; Parameters:    Size  Location     Type
  6453 ;;		None
  6454 ;; Auto vars:     Size  Location     Type
  6455 ;;		None
  6456 ;; Return value:  Size  Location     Type
  6457 ;;                  1    wreg      void 
  6458 ;; Registers used:
  6459 ;;		None
  6460 ;; Tracked objects:
  6461 ;;		On entry : 0/0
  6462 ;;		On exit  : 0/0
  6463 ;;		Unchanged: 0/0
  6464 ;; Data sizes:     COMRAM   BANK0   BANK1   BANK2   BANK3   BANK4   BANK5   BANK6   BANK7   BANK8   BANK9  BANK10  BANK1
      +1  BANK12  BANK13  BANK14  BANK15
  6465 ;;      Params:         0       0       0       0       0       0       0       0       0       0       0       0       
      +0       0       0       0       0
  6466 ;;      Locals:         0       0       0       0       0       0       0       0       0       0       0       0       
      +0       0       0       0       0
  6467 ;;      Temps:          0       0       0       0       0       0       0       0       0       0       0       0       
      +0       0       0       0       0
  6468 ;;      Totals:         0       0       0       0       0       0       0       0       0       0       0       0       
      +0       0       0       0       0
  6469 ;;Total ram usage:        0 bytes
  6470 ;; Hardware stack levels used: 1
  6471 ;; This function calls:
  6472 ;;		Nothing
  6473 ;; This function is called by:
  6474 ;;		_InterruptManager
  6475 ;; This function uses a non-reentrant model
  6476 ;;
  6477                           
  6478                           	psect	text37
  6479  00300C                     __ptext37:
  6480                           	callstack 0
  6481  00300C                     _CCP2_ISR:
  6482                           	callstack 26
  6483  00300C                     
  6484                           ;MCAL_Layer/CCP/hal_ccp.c: 261:     (PIR2bits.CCP2IF = 0);
  6485  00300C  90A1               	bcf	161,0,c	;volatile
  6486  00300E  0012               	return		;funcret
  6487  003010                     __end_of_CCP2_ISR:
  6488                           	callstack 0
  6489                           
  6490 ;; *************** function _CCP1_ISR *****************
  6491 ;; Defined at:
  6492 ;;		line 252 in file "MCAL_Layer/CCP/hal_ccp.c"
  6493 ;; Parameters:    Size  Location     Type
  6494 ;;		None
  6495 ;; Auto vars:     Size  Location     Type
  6496 ;;		None
  6497 ;; Return value:  Size  Location     Type
  6498 ;;                  1    wreg      void 
  6499 ;; Registers used:
  6500 ;;		wreg, status,2, status,0, pcl, pclath, pclatu, tosl, cstack
  6501 ;; Tracked objects:
  6502 ;;		On entry : 0/0
  6503 ;;		On exit  : 0/0
  6504 ;;		Unchanged: 0/0
  6505 ;; Data sizes:     COMRAM   BANK0   BANK1   BANK2   BANK3   BANK4   BANK5   BANK6   BANK7   BANK8   BANK9  BANK10  BANK1
      +1  BANK12  BANK13  BANK14  BANK15
  6506 ;;      Params:         0       0       0       0       0       0       0       0       0       0       0       0       
      +0       0       0       0       0
  6507 ;;      Locals:         0       0       0       0       0       0       0       0       0       0       0       0       
      +0       0       0       0       0
  6508 ;;      Temps:          0       0       0       0       0       0       0       0       0       0       0       0       
      +0       0       0       0       0
  6509 ;;      Totals:         0       0       0       0       0       0       0       0       0       0       0       0       
      +0       0       0       0       0
  6510 ;;Total ram usage:        0 bytes
  6511 ;; Hardware stack levels used: 1
  6512 ;; Hardware stack levels required when called: 1
  6513 ;; This function calls:
  6514 ;;		Absolute function
  6515 ;;		_CCP1_DefaultInterruptHandler
  6516 ;; This function is called by:
  6517 ;;		_InterruptManager
  6518 ;; This function uses a non-reentrant model
  6519 ;;
  6520                           
  6521                           	psect	text38
  6522  002EFA                     __ptext38:
  6523                           	callstack 0
  6524  002EFA                     _CCP1_ISR:
  6525                           	callstack 25
  6526  002EFA                     
  6527                           ;MCAL_Layer/CCP/hal_ccp.c: 253:     (PIR1bits.CCP1IF = 0);
  6528  002EFA  949E               	bcf	158,2,c	;volatile
  6529  002EFC                     
  6530                           ;MCAL_Layer/CCP/hal_ccp.c: 254:     if(CCP1_InterruptHandler){
  6531  002EFC  0100               	movlb	0	; () banked
  6532  002EFE  51C6               	movf	_CCP1_InterruptHandler& (0+255),w,b
  6533  002F00  11C7               	iorwf	(_CCP1_InterruptHandler+1)& (0+255),w,b
  6534  002F02  B4D8               	btfsc	status,2,c
  6535  002F04  EF86  F017         	goto	i2u583_41
  6536  002F08  EF88  F017         	goto	i2u583_40
  6537  002F0C                     i2u583_41:
  6538  002F0C  EF94  F017         	goto	i2l569
  6539  002F10                     i2u583_40:
  6540  002F10                     
  6541                           ; BSR set to: 0
  6542                           ;MCAL_Layer/CCP/hal_ccp.c: 255:         CCP1_InterruptHandler();
  6543  002F10  D802               	call	i2u584_48
  6544  002F12  EF94  F017         	goto	i2u584_49
  6545  002F16                     i2u584_48:
  6546  002F16  0005               	push	
  6547  002F18  6EFA               	movwf	pclath,c
  6548  002F1A  51C6               	movf	_CCP1_InterruptHandler& (0+255),w,b
  6549  002F1C  6EFD               	movwf	tosl,c
  6550  002F1E  51C7               	movf	(_CCP1_InterruptHandler+1)& (0+255),w,b
  6551  002F20  6EFE               	movwf	tosh,c
  6552  002F22  6AFF               	clrf	tosu,c
  6553  002F24  50FA               	movf	pclath,w,c
  6554  002F26  0012               	return		;indir
  6555  002F28                     i2u584_49:
  6556  002F28                     i2l569:
  6557  002F28  0012               	return		;funcret
  6558  002F2A                     __end_of_CCP1_ISR:
  6559                           	callstack 0
  6560                           
  6561 ;; *************** function _CCP1_DefaultInterruptHandler *****************
  6562 ;; Defined at:
  6563 ;;		line 20 in file "application.c"
  6564 ;; Parameters:    Size  Location     Type
  6565 ;;		None
  6566 ;; Auto vars:     Size  Location     Type
  6567 ;;		None
  6568 ;; Return value:  Size  Location     Type
  6569 ;;                  1    wreg      void 
  6570 ;; Registers used:
  6571 ;;		None
  6572 ;; Tracked objects:
  6573 ;;		On entry : 0/0
  6574 ;;		On exit  : 0/0
  6575 ;;		Unchanged: 0/0
  6576 ;; Data sizes:     COMRAM   BANK0   BANK1   BANK2   BANK3   BANK4   BANK5   BANK6   BANK7   BANK8   BANK9  BANK10  BANK1
      +1  BANK12  BANK13  BANK14  BANK15
  6577 ;;      Params:         0       0       0       0       0       0       0       0       0       0       0       0       
      +0       0       0       0       0
  6578 ;;      Locals:         0       0       0       0       0       0       0       0       0       0       0       0       
      +0       0       0       0       0
  6579 ;;      Temps:          0       0       0       0       0       0       0       0       0       0       0       0       
      +0       0       0       0       0
  6580 ;;      Totals:         0       0       0       0       0       0       0       0       0       0       0       0       
      +0       0       0       0       0
  6581 ;;Total ram usage:        0 bytes
  6582 ;; Hardware stack levels used: 1
  6583 ;; This function calls:
  6584 ;;		Nothing
  6585 ;; This function is called by:
  6586 ;;		_main
  6587 ;;		_CCP1_ISR
  6588 ;; This function uses a non-reentrant model
  6589 ;;
  6590                           
  6591                           	psect	text39
  6592  00301A                     __ptext39:
  6593                           	callstack 0
  6594  00301A                     _CCP1_DefaultInterruptHandler:
  6595                           	callstack 25
  6596  00301A  0012               	return		;funcret
  6597  00301C                     __end_of_CCP1_DefaultInterruptHandler:
  6598                           	callstack 0
  6599                           
  6600 ;; *************** function _ADC_ISR *****************
  6601 ;; Defined at:
  6602 ;;		line 296 in file "MCAL_Layer/ADC/hal_adc.c"
  6603 ;; Parameters:    Size  Location     Type
  6604 ;;		None
  6605 ;; Auto vars:     Size  Location     Type
  6606 ;;		None
  6607 ;; Return value:  Size  Location     Type
  6608 ;;                  1    wreg      void 
  6609 ;; Registers used:
  6610 ;;		None
  6611 ;; Tracked objects:
  6612 ;;		On entry : 0/0
  6613 ;;		On exit  : 0/0
  6614 ;;		Unchanged: 0/0
  6615 ;; Data sizes:     COMRAM   BANK0   BANK1   BANK2   BANK3   BANK4   BANK5   BANK6   BANK7   BANK8   BANK9  BANK10  BANK1
      +1  BANK12  BANK13  BANK14  BANK15
  6616 ;;      Params:         0       0       0       0       0       0       0       0       0       0       0       0       
      +0       0       0       0       0
  6617 ;;      Locals:         0       0       0       0       0       0       0       0       0       0       0       0       
      +0       0       0       0       0
  6618 ;;      Temps:          0       0       0       0       0       0       0       0       0       0       0       0       
      +0       0       0       0       0
  6619 ;;      Totals:         0       0       0       0       0       0       0       0       0       0       0       0       
      +0       0       0       0       0
  6620 ;;Total ram usage:        0 bytes
  6621 ;; Hardware stack levels used: 1
  6622 ;; This function calls:
  6623 ;;		Nothing
  6624 ;; This function is called by:
  6625 ;;		_InterruptManager
  6626 ;; This function uses a non-reentrant model
  6627 ;;
  6628                           
  6629                           	psect	text40
  6630  003010                     __ptext40:
  6631                           	callstack 0
  6632  003010                     _ADC_ISR:
  6633                           	callstack 26
  6634  003010                     
  6635                           ;MCAL_Layer/ADC/hal_adc.c: 297:     (PIR1bits.ADIF = 0);
  6636  003010  9C9E               	bcf	158,6,c	;volatile
  6637  003012  0012               	return		;funcret
  6638  003014                     __end_of_ADC_ISR:
  6639                           	callstack 0
  6640                           
  6641                           	psect	text41
  6642  000000                     __ptext41:
  6643                           	callstack 0
  6644  000000                     
  6645                           	psect	rparam
  6646  0000                     
  6647                           	psect	temp
  6648  00007C                     btemp:
  6649                           	callstack 0
  6650  00007C                     	ds	1
  6651  0000                     int$flags	set	btemp
  6652  0000                     wtemp8	set	btemp+1
  6653  0000                     ttemp5	set	btemp+1
  6654  0000                     ttemp6	set	btemp+4
  6655  0000                     ttemp7	set	btemp+8
  6656                           
  6657                           	psect	idloc
  6658                           
  6659                           ;Config register IDLOC0 @ 0x200000
  6660                           ;	unspecified, using default values
  6661  200000                     	org	2097152
  6662  200000  FF                 	db	255
  6663                           
  6664                           ;Config register IDLOC1 @ 0x200001
  6665                           ;	unspecified, using default values
  6666  200001                     	org	2097153
  6667  200001  FF                 	db	255
  6668                           
  6669                           ;Config register IDLOC2 @ 0x200002
  6670                           ;	unspecified, using default values
  6671  200002                     	org	2097154
  6672  200002  FF                 	db	255
  6673                           
  6674                           ;Config register IDLOC3 @ 0x200003
  6675                           ;	unspecified, using default values
  6676  200003                     	org	2097155
  6677  200003  FF                 	db	255
  6678                           
  6679                           ;Config register IDLOC4 @ 0x200004
  6680                           ;	unspecified, using default values
  6681  200004                     	org	2097156
  6682  200004  FF                 	db	255
  6683                           
  6684                           ;Config register IDLOC5 @ 0x200005
  6685                           ;	unspecified, using default values
  6686  200005                     	org	2097157
  6687  200005  FF                 	db	255
  6688                           
  6689                           ;Config register IDLOC6 @ 0x200006
  6690                           ;	unspecified, using default values
  6691  200006                     	org	2097158
  6692  200006  FF                 	db	255
  6693                           
  6694                           ;Config register IDLOC7 @ 0x200007
  6695                           ;	unspecified, using default values
  6696  200007                     	org	2097159
  6697  200007  FF                 	db	255
  6698                           
  6699                           	psect	config
  6700                           
  6701                           ; Padding undefined space
  6702  300000                     	org	3145728
  6703  300000  FF                 	db	255
  6704                           
  6705                           ;Config register CONFIG1H @ 0x300001
  6706                           ;	Oscillator Selection bits
  6707                           ;	OSC = HS, HS oscillator
  6708                           ;	Fail-Safe Clock Monitor Enable bit
  6709                           ;	FCMEN = OFF, Fail-Safe Clock Monitor disabled
  6710                           ;	Internal/External Oscillator Switchover bit
  6711                           ;	IESO = OFF, Oscillator Switchover mode disabled
  6712  300001                     	org	3145729
  6713  300001  02                 	db	2
  6714                           
  6715                           ;Config register CONFIG2L @ 0x300002
  6716                           ;	Power-up Timer Enable bit
  6717                           ;	PWRT = OFF, PWRT disabled
  6718                           ;	Brown-out Reset Enable bits
  6719                           ;	BOREN = OFF, Brown-out Reset disabled in hardware and software
  6720                           ;	Brown Out Reset Voltage bits
  6721                           ;	BORV = 1, 
  6722  300002                     	org	3145730
  6723  300002  09                 	db	9
  6724                           
  6725                           ;Config register CONFIG2H @ 0x300003
  6726                           ;	Watchdog Timer Enable bit
  6727                           ;	WDT = OFF, WDT disabled (control is placed on the SWDTEN bit)
  6728                           ;	Watchdog Timer Postscale Select bits
  6729                           ;	WDTPS = 512, 1:512
  6730  300003                     	org	3145731
  6731  300003  12                 	db	18
  6732                           
  6733                           ; Padding undefined space
  6734  300004                     	org	3145732
  6735  300004  FF                 	db	255
  6736                           
  6737                           ;Config register CONFIG3H @ 0x300005
  6738                           ;	CCP2 MUX bit
  6739                           ;	CCP2MX = PORTC, CCP2 input/output is multiplexed with RC1
  6740                           ;	PORTB A/D Enable bit
  6741                           ;	PBADEN = OFF, PORTB<4:0> pins are configured as digital I/O on Reset
  6742                           ;	Low-Power Timer1 Oscillator Enable bit
  6743                           ;	LPT1OSC = OFF, Timer1 configured for higher power operation
  6744                           ;	MCLR Pin Enable bit
  6745                           ;	MCLRE = ON, MCLR pin enabled; RE3 input pin disabled
  6746  300005                     	org	3145733
  6747  300005  81                 	db	129
  6748                           
  6749                           ;Config register CONFIG4L @ 0x300006
  6750                           ;	Stack Full/Underflow Reset Enable bit
  6751                           ;	STVREN = ON, Stack full/underflow will cause Reset
  6752                           ;	Single-Supply ICSP Enable bit
  6753                           ;	LVP = OFF, Single-Supply ICSP disabled
  6754                           ;	Extended Instruction Set Enable bit
  6755                           ;	XINST = OFF, Instruction set extension and Indexed Addressing mode disabled (Legacy mo
      +                          de)
  6756                           ;	Background Debugger Enable bit
  6757                           ;	DEBUG = 0x1, unprogrammed default
  6758  300006                     	org	3145734
  6759  300006  81                 	db	129
  6760                           
  6761                           ; Padding undefined space
  6762  300007                     	org	3145735
  6763  300007  FF                 	db	255
  6764                           
  6765                           ;Config register CONFIG5L @ 0x300008
  6766                           ;	Code Protection bit
  6767                           ;	CP0 = OFF, Block 0 (000800-003FFFh) not code-protected
  6768                           ;	Code Protection bit
  6769                           ;	CP1 = OFF, Block 1 (004000-007FFFh) not code-protected
  6770                           ;	Code Protection bit
  6771                           ;	CP2 = OFF, Block 2 (008000-00BFFFh) not code-protected
  6772                           ;	Code Protection bit
  6773                           ;	CP3 = OFF, Block 3 (00C000-00FFFFh) not code-protected
  6774  300008                     	org	3145736
  6775  300008  0F                 	db	15
  6776                           
  6777                           ;Config register CONFIG5H @ 0x300009
  6778                           ;	Boot Block Code Protection bit
  6779                           ;	CPB = OFF, Boot block (000000-0007FFh) not code-protected
  6780                           ;	Data EEPROM Code Protection bit
  6781                           ;	CPD = OFF, Data EEPROM not code-protected
  6782  300009                     	org	3145737
  6783  300009  C0                 	db	192
  6784                           
  6785                           ;Config register CONFIG6L @ 0x30000A
  6786                           ;	Write Protection bit
  6787                           ;	WRT0 = OFF, Block 0 (000800-003FFFh) not write-protected
  6788                           ;	Write Protection bit
  6789                           ;	WRT1 = OFF, Block 1 (004000-007FFFh) not write-protected
  6790                           ;	Write Protection bit
  6791                           ;	WRT2 = OFF, Block 2 (008000-00BFFFh) not write-protected
  6792                           ;	Write Protection bit
  6793                           ;	WRT3 = OFF, Block 3 (00C000-00FFFFh) not write-protected
  6794  30000A                     	org	3145738
  6795  30000A  0F                 	db	15
  6796                           
  6797                           ;Config register CONFIG6H @ 0x30000B
  6798                           ;	Configuration Register Write Protection bit
  6799                           ;	WRTC = OFF, Configuration registers (300000-3000FFh) not write-protected
  6800                           ;	Boot Block Write Protection bit
  6801                           ;	WRTB = OFF, Boot Block (000000-0007FFh) not write-protected
  6802                           ;	Data EEPROM Write Protection bit
  6803                           ;	WRTD = OFF, Data EEPROM not write-protected
  6804  30000B                     	org	3145739
  6805  30000B  E0                 	db	224
  6806                           
  6807                           ;Config register CONFIG7L @ 0x30000C
  6808                           ;	Table Read Protection bit
  6809                           ;	EBTR0 = OFF, Block 0 (000800-003FFFh) not protected from table reads executed in other
      +                           blocks
  6810                           ;	Table Read Protection bit
  6811                           ;	EBTR1 = OFF, Block 1 (004000-007FFFh) not protected from table reads executed in other
      +                           blocks
  6812                           ;	Table Read Protection bit
  6813                           ;	EBTR2 = OFF, Block 2 (008000-00BFFFh) not protected from table reads executed in other
      +                           blocks
  6814                           ;	Table Read Protection bit
  6815                           ;	EBTR3 = OFF, Block 3 (00C000-00FFFFh) not protected from table reads executed in other
      +                           blocks
  6816  30000C                     	org	3145740
  6817  30000C  0F                 	db	15
  6818                           
  6819                           ;Config register CONFIG7H @ 0x30000D
  6820                           ;	Boot Block Table Read Protection bit
  6821                           ;	EBTRB = OFF, Boot Block (000000-0007FFh) not protected from table reads executed in ot
      +                          her blocks
  6822  30000D                     	org	3145741
  6823  30000D  40                 	db	64
  6824                           tosu	equ	0xFFF
  6825                           tosh	equ	0xFFE
  6826                           tosl	equ	0xFFD
  6827                           stkptr	equ	0xFFC
  6828                           pclatu	equ	0xFFB
  6829                           pclath	equ	0xFFA
  6830                           pcl	equ	0xFF9
  6831                           tblptru	equ	0xFF8
  6832                           tblptrh	equ	0xFF7
  6833                           tblptrl	equ	0xFF6
  6834                           tablat	equ	0xFF5
  6835                           prodh	equ	0xFF4
  6836                           prodl	equ	0xFF3
  6837                           indf0	equ	0xFEF
  6838                           postinc0	equ	0xFEE
  6839                           postdec0	equ	0xFED
  6840                           preinc0	equ	0xFEC
  6841                           plusw0	equ	0xFEB
  6842                           fsr0h	equ	0xFEA
  6843                           fsr0l	equ	0xFE9
  6844                           wreg	equ	0xFE8
  6845                           indf1	equ	0xFE7
  6846                           postinc1	equ	0xFE6
  6847                           postdec1	equ	0xFE5
  6848                           preinc1	equ	0xFE4
  6849                           plusw1	equ	0xFE3
  6850                           fsr1h	equ	0xFE2
  6851                           fsr1l	equ	0xFE1
  6852                           bsr	equ	0xFE0
  6853                           indf2	equ	0xFDF
  6854                           postinc2	equ	0xFDE
  6855                           postdec2	equ	0xFDD
  6856                           preinc2	equ	0xFDC
  6857                           plusw2	equ	0xFDB
  6858                           fsr2h	equ	0xFDA
  6859                           fsr2l	equ	0xFD9
  6860                           status	equ	0xFD8

Data Sizes:
    Strings     3
    Constant    16
    Data        41
    BSS         108
    Persistent  0
    Stack       0

Auto Spaces:
    Space          Size  Autos    Used
    COMRAM          126    105     123
    BANK0           128      3     124
    BANK1           256      0      10
    BANK2           256      0       0
    BANK3           256      0       0
    BANK4           256      0       0
    BANK5           256      0       0
    BANK6           256      0       0
    BANK7           256      0       0
    BANK8           256      0       0
    BANK9           256      0       0
    BANK10          256      0       0
    BANK11          256      0       0
    BANK12          256      0       0
    BANK13          256      0       0
    BANK14          256      0       0
    BANK15          128      0       0

Pointer List with Targets:

    vfprintf$2	PTR PTR void  size(2) Largest target is 2
		 -> sprintf@ap(COMRAM[2]), 

    vfprintf$1	PTR const unsigned char  size(2) Largest target is 3
		 -> STR_3(CODE[3]), STR_2(CODE[3]), STR_1(CODE[3]), 

    vfprintf$0	PTR struct _IO_FILE size(2) Largest target is 11
		 -> sprintf@f(COMRAM[11]), 

    S4875$source	PTR const unsigned char  size(2) Largest target is 0

    f...source	PTR const unsigned char  size(2) Largest target is 0

    S4875$buffer	PTR unsigned char  size(2) Largest target is 0

    f...buffer	PTR unsigned char  size(2) Largest target is 0

    ccp_obj.CCP2_InterruptHandler	PTR FTN()void  size(2) Largest target is 0

    ccp_obj.CCP1_InterruptHandler	PTR FTN()void  size(2) Largest target is 1
		 -> CCP1_DefaultInterruptHandler(), 

    timer3_obj.TMR3_InterruptHandler	PTR FTN()void  size(2) Largest target is 1
		 -> Timer3_DefaultInterruptHandler(), 

    EUSART_OverrunErrorHandler	PTR FTN()void  size(2) Largest target is 1
		 -> Absolute function(), 

    EUSART_FramingErrorHandler	PTR FTN()void  size(2) Largest target is 1
		 -> Absolute function(), 

    EUSART_RxInterruptHandler	PTR FTN()void  size(2) Largest target is 1
		 -> Absolute function(), 

    EUSART_ASYNC_RX_Init@_eusart.EUSART_OverrunErrorHandler	PTR FTN()void  size(2) Largest target is 0

    EUSART_ASYNC_RX_Init@_eusart.EUSART_FramingErrorHandler	PTR FTN()void  size(2) Largest target is 0

    EUSART_ASYNC_RX_Init@_eusart.EUSART_RxDefaultInterruptHandler	PTR FTN()void  size(2) Largest target is 0

    EUSART_ASYNC_RX_Init@_eusart.EUSART_TxDefaultInterruptHandler	PTR FTN()void  size(2) Largest target is 0

    EUSART_TxInterruptHandler	PTR FTN()void  size(2) Largest target is 1
		 -> Absolute function(), 

    EUSART_ASYNC_TX_Init@_eusart.EUSART_OverrunErrorHandler	PTR FTN()void  size(2) Largest target is 0

    EUSART_ASYNC_TX_Init@_eusart.EUSART_FramingErrorHandler	PTR FTN()void  size(2) Largest target is 0

    EUSART_ASYNC_TX_Init@_eusart.EUSART_RxDefaultInterruptHandler	PTR FTN()void  size(2) Largest target is 0

    EUSART_ASYNC_TX_Init@_eusart.EUSART_TxDefaultInterruptHandler	PTR FTN()void  size(2) Largest target is 0

    S3908$EUSART_OverrunErrorHandler	PTR FTN()void  size(2) Largest target is 0

    EUSART_Baud_Rate_Calculation@_eusart.EUSART_OverrunErrorHandler	PTR FTN()void  size(2) Largest target is 0

    S3908$EUSART_FramingErrorHandler	PTR FTN()void  size(2) Largest target is 0

    EUSART_Baud_Rate_Calculation@_eusart.EUSART_FramingErrorHandler	PTR FTN()void  size(2) Largest target is 0

    S3908$EUSART_RxDefaultInterruptHandler	PTR FTN()void  size(2) Largest target is 0

    EUSART_Baud_Rate_Calculation@_eusart.EUSART_RxDefaultInterruptHandler	PTR FTN()void  size(2) Largest target is 0

    S3908$EUSART_TxDefaultInterruptHandler	PTR FTN()void  size(2) Largest target is 0

    EUSART_Baud_Rate_Calculation@_eusart.EUSART_TxDefaultInterruptHandler	PTR FTN()void  size(2) Largest target is 0

    Timer3_Mode_Select@_timer.TMR3_InterruptHandler	PTR FTN()void  size(2) Largest target is 1
		 -> Timer3_DefaultInterruptHandler(), 

    Timer3_Mode_Select@_timer	PTR const struct . size(2) Largest target is 6
		 -> timer3_obj(BANK0[6]), 

    TMR3_InterruptHandler	PTR FTN()void  size(2) Largest target is 1
		 -> Timer3_DefaultInterruptHandler(), Absolute function(), 

    S3714$TMR3_InterruptHandler	PTR FTN()void  size(2) Largest target is 1
		 -> Timer3_DefaultInterruptHandler(), 

    Timer3_Init@_timer.TMR3_InterruptHandler	PTR FTN()void  size(2) Largest target is 1
		 -> Timer3_DefaultInterruptHandler(), 

    Timer3_Init@_timer	PTR const struct . size(2) Largest target is 6
		 -> timer3_obj(BANK0[6]), 

    TMR2_InterruptHandler	PTR FTN()void  size(2) Largest target is 1
		 -> Absolute function(), 

    S3585$TMR2_InterruptHandler	PTR FTN()void  size(2) Largest target is 0

    Timer2_Init@_timer.TMR2_InterruptHandler	PTR FTN()void  size(2) Largest target is 0

    Timer1_Mode_Select@_timer.TMR1_InterruptHandler	PTR FTN()void  size(2) Largest target is 0

    TMR1_InterruptHandler	PTR FTN()volatile void  size(2) Largest target is 1
		 -> Absolute function(), 

    S3395$TMR1_InterruptHandler	PTR FTN()void  size(2) Largest target is 0

    Timer1_Init@_timer.TMR1_InterruptHandler	PTR FTN()void  size(2) Largest target is 0

    Timer0_Register_Size_Config@_timer.TMR0_InterruptHandler	PTR FTN()void  size(2) Largest target is 0

    Timer0_Mode_Select@_timer.TMR0_InterruptHandler	PTR FTN()void  size(2) Largest target is 0

    Timer0_Prescaler_Config@_timer.TMR0_InterruptHandler	PTR FTN()void  size(2) Largest target is 0

    TMR0_InterruptHandler	PTR FTN()void  size(2) Largest target is 1
		 -> Absolute function(), 

    S3230$TMR0_InterruptHandler	PTR FTN()void  size(2) Largest target is 0

    Timer0_Init@_timer.TMR0_InterruptHandler	PTR FTN()void  size(2) Largest target is 0

    Interrupt_INTx_SetInterruptHandler@int_obj.EXT_InterruptHandler	PTR FTN()void  size(2) Largest target is 0

    Interrupt_INTx_Clear_Flag@int_obj.EXT_InterruptHandler	PTR FTN()void  size(2) Largest target is 0

    Interrupt_INTx_Pin_Init@int_obj.EXT_InterruptHandler	PTR FTN()void  size(2) Largest target is 0

    Interrupt_INTx_Edge_Init@int_obj.EXT_InterruptHandler	PTR FTN()void  size(2) Largest target is 0

    Interrupt_INTx_Disable@int_obj.EXT_InterruptHandler	PTR FTN()void  size(2) Largest target is 0

    S2356$EXT_InterruptHandler	PTR FTN()void  size(2) Largest target is 0

    Interrupt_INTx_Enable@int_obj.EXT_InterruptHandler	PTR FTN()void  size(2) Largest target is 0

    S2472$EXT_InterruptHandler_LOW	PTR FTN()void  size(2) Largest target is 0

    Interrupt_RBx_Init@int_obj.EXT_InterruptHandler_LOW	PTR FTN()void  size(2) Largest target is 0

    S2472$EXT_InterruptHandler_HIGH	PTR FTN()void  size(2) Largest target is 0

    Interrupt_RBx_Init@int_obj.EXT_InterruptHandler_HIGH	PTR FTN()void  size(2) Largest target is 0

    RB7_InterruptHandler_LOW	PTR FTN()void  size(2) Largest target is 1
		 -> Absolute function(), 

    RB7_InterruptHandler_HIGH	PTR FTN()void  size(2) Largest target is 1
		 -> Absolute function(), 

    RB6_InterruptHandler_LOW	PTR FTN()void  size(2) Largest target is 1
		 -> Absolute function(), 

    RB6_InterruptHandler_HIGH	PTR FTN()void  size(2) Largest target is 1
		 -> Absolute function(), 

    RB5_InterruptHandler_LOW	PTR FTN()void  size(2) Largest target is 1
		 -> Absolute function(), 

    RB5_InterruptHandler_HIGH	PTR FTN()void  size(2) Largest target is 1
		 -> Absolute function(), 

    RB4_InterruptHandler_LOW	PTR FTN()void  size(2) Largest target is 1
		 -> Absolute function(), 

    RB4_InterruptHandler_HIGH	PTR FTN()void  size(2) Largest target is 1
		 -> Absolute function(), 

    INT2_InterruptHandler	PTR FTN()void  size(2) Largest target is 1
		 -> Absolute function(), 

    INT1_InterruptHandler	PTR FTN()void  size(2) Largest target is 1
		 -> Absolute function(), 

    INT0_InterruptHandler	PTR FTN()void  size(2) Largest target is 1
		 -> Absolute function(), 

    I2C_Report_Receive_Overflow_InterruptHandle	PTR FTN()void  size(2) Largest target is 1
		 -> Absolute function(), 

    MSSP_I2C_Interrupt_Configurations@i2c_obj.I2C_Report_Receive_Overflow	PTR FTN()void  size(2) Largest target is 0

    MSSP_I2C_Interrupt_Configurations@i2c_obj.I2C_DefaultInterruptHandler	PTR FTN()void  size(2) Largest target is 0

    MSSP_I2C_Interrupt_Configurations@i2c_obj.I2C_Report_Write_Collision	PTR FTN()void  size(2) Largest target is 0

    I2C_Slave_Mode_Configurations@i2c_obj.I2C_Report_Receive_Overflow	PTR FTN()void  size(2) Largest target is 0

    I2C_Slave_Mode_Configurations@i2c_obj.I2C_DefaultInterruptHandler	PTR FTN()void  size(2) Largest target is 0

    I2C_Slave_Mode_Configurations@i2c_obj.I2C_Report_Write_Collision	PTR FTN()void  size(2) Largest target is 0

    I2C_Master_Mode_Clock_Configurations@i2c_obj.I2C_Report_Receive_Overflow	PTR FTN()void  size(2) Largest target is 0

    I2C_Master_Mode_Clock_Configurations@i2c_obj.I2C_DefaultInterruptHandler	PTR FTN()void  size(2) Largest target is 0

    I2C_Master_Mode_Clock_Configurations@i2c_obj.I2C_Report_Write_Collision	PTR FTN()void  size(2) Largest target is 0

    I2C_Report_Write_Collision_InterruptHandler	PTR FTN()void  size(2) Largest target is 1
		 -> Absolute function(), 

    I2C_DefaultInterruptHandle	PTR FTN()void  size(2) Largest target is 1
		 -> Absolute function(), 

    S1835$I2C_Report_Receive_Overflow	PTR FTN()void  size(2) Largest target is 0

    MSSP_I2C_Init@i2c_obj.I2C_Report_Receive_Overflow	PTR FTN()void  size(2) Largest target is 0

    S1835$I2C_DefaultInterruptHandler	PTR FTN()void  size(2) Largest target is 0

    MSSP_I2C_Init@i2c_obj.I2C_DefaultInterruptHandler	PTR FTN()void  size(2) Largest target is 0

    S1835$I2C_Report_Write_Collision	PTR FTN()void  size(2) Largest target is 0

    MSSP_I2C_Init@i2c_obj.I2C_Report_Write_Collision	PTR FTN()void  size(2) Largest target is 0

    gpio_pin_intialize@_pin_config	PTR const struct . size(2) Largest target is 17
		 -> ccp_obj(BANK0[17]), relay_initialize@pin_obj(COMRAM[1]), led_initialize@pin_obj(COMRAM[1]), 

    gpio_pin_write_logic@_pin_config	PTR const struct . size(2) Largest target is 17
		 -> ccp_obj(BANK0[17]), relay_turn_off@pin_obj(COMRAM[1]), relay_turn_on@pin_obj(COMRAM[1]), relay_initialize@pin_obj(COMRAM[1]), 
		 -> led_turn_off@pin_obj(COMRAM[1]), led_turn_on@pin_obj(COMRAM[1]), led_initialize@pin_obj(COMRAM[1]), 

    gpio_pin_direction_intialize@_pin_config	PTR const struct . size(2) Largest target is 17
		 -> ccp_obj(BANK0[17]), MSSP_SPI_Slave_Mode_GPIO_PIN_Configurations@SPI_SS(COMRAM[1]), MSSP_SPI_Slave_Mode_GPIO_PIN_Configurations@SPI_CLK(COMRAM[1]), MSSP_SPI_Slave_Mode_GPIO_PIN_Configurations@SPI_SDI(COMRAM[1]), 
		 -> MSSP_SPI_Slave_Mode_GPIO_PIN_Configurations@SPI_SDO(COMRAM[1]), MSSP_SPI_Msster_Mode_GPIO_PIN_Configurations@SPI_CLK(COMRAM[1]), MSSP_SPI_Msster_Mode_GPIO_PIN_Configurations@SPI_SDI(COMRAM[1]), MSSP_SPI_Msster_Mode_GPIO_PIN_Configurations@SPI_SDO(COMRAM[1]), 
		 -> relay_initialize@pin_obj(COMRAM[1]), led_initialize@pin_obj(COMRAM[1]), 

    port_registers	PTR volatile unsigned char [5] size(2) Largest target is 1
		 -> PORTE(BITBIGSFRlllll[1]), PORTD(BITBIGSFRlllll[1]), PORTC(BITBIGSFRlllll[1]), PORTB(BITBIGSFRlllll[1]), 
		 -> PORTA(BITBIGSFRlllll[1]), 

    lat_registers	PTR volatile unsigned char [5] size(2) Largest target is 1
		 -> LATE(BITBIGSFRllllh[1]), LATD(BITBIGSFRllllh[1]), LATC(BITBIGSFRllllh[1]), LATB(BITBIGSFRllllh[1]), 
		 -> LATA(BITBIGSFRlllll[1]), 

    tris_registers	PTR volatile unsigned char [5] size(2) Largest target is 1
		 -> TRISD(ABS[1]), TRISC(ABS[1]), TRISB(ABS[1]), TRISE(ABS[1]), 
		 -> TRISA(BITBIGSFRlllll[1]), 

    CCP_Compare_Mode_Config@_ccp_obj.CCP2_InterruptHandler	PTR FTN()void  size(2) Largest target is 0

    CCP_Compare_Mode_Config@_ccp_obj.CCP1_InterruptHandler	PTR FTN()void  size(2) Largest target is 1
		 -> CCP1_DefaultInterruptHandler(), 

    CCP_Compare_Mode_Config@_ccp_obj	PTR const struct . size(2) Largest target is 17
		 -> ccp_obj(BANK0[17]), 

    CCP_Capture_Mode_Config@_ccp_obj.CCP2_InterruptHandler	PTR FTN()void  size(2) Largest target is 0

    CCP_Capture_Mode_Config@_ccp_obj.CCP1_InterruptHandler	PTR FTN()void  size(2) Largest target is 1
		 -> CCP1_DefaultInterruptHandler(), 

    CCP_Capture_Mode_Config@_ccp_obj	PTR const struct . size(2) Largest target is 17
		 -> ccp_obj(BANK0[17]), 

    CCP_Mode_Timer_Select@_ccp_obj.CCP2_InterruptHandler	PTR FTN()void  size(2) Largest target is 0

    CCP_Mode_Timer_Select@_ccp_obj.CCP1_InterruptHandler	PTR FTN()void  size(2) Largest target is 1
		 -> CCP1_DefaultInterruptHandler(), 

    CCP_Mode_Timer_Select@_ccp_obj	PTR const struct . size(2) Largest target is 17
		 -> ccp_obj(BANK0[17]), 

    CCP_Interrupt_Config@_ccp_obj.CCP2_InterruptHandler	PTR FTN()void  size(2) Largest target is 0

    CCP_Interrupt_Config@_ccp_obj.CCP1_InterruptHandler	PTR FTN()void  size(2) Largest target is 1
		 -> CCP1_DefaultInterruptHandler(), 

    CCP_Interrupt_Config@_ccp_obj	PTR const struct . size(2) Largest target is 17
		 -> ccp_obj(BANK0[17]), 

    CCP_PWM_Mode_Config@_ccp_obj.CCP2_InterruptHandler	PTR FTN()void  size(2) Largest target is 0

    CCP_PWM_Mode_Config@_ccp_obj.CCP1_InterruptHandler	PTR FTN()void  size(2) Largest target is 1
		 -> CCP1_DefaultInterruptHandler(), 

    CCP_PWM_Mode_Config@_ccp_obj	PTR const struct . size(2) Largest target is 17
		 -> ccp_obj(BANK0[17]), 

    CCP2_InterruptHandler	PTR FTN()void  size(2) Largest target is 1
		 -> ccp_obj.CCP2_InterruptHandler(BANK0[2]), Absolute function(), 

    CCP1_InterruptHandler	PTR FTN()void  size(2) Largest target is 1
		 -> CCP1_DefaultInterruptHandler(), Absolute function(), 

    CCP_PWM_Stop@_ccp_obj.CCP2_InterruptHandler	PTR FTN()void  size(2) Largest target is 0

    CCP_PWM_Stop@_ccp_obj.CCP1_InterruptHandler	PTR FTN()void  size(2) Largest target is 1
		 -> CCP1_DefaultInterruptHandler(), 

    CCP_PWM_Start@_ccp_obj.CCP2_InterruptHandler	PTR FTN()void  size(2) Largest target is 0

    CCP_PWM_Start@_ccp_obj.CCP1_InterruptHandler	PTR FTN()void  size(2) Largest target is 1
		 -> CCP1_DefaultInterruptHandler(), 

    CCP_PWM_Set_Duty@_ccp_obj.CCP2_InterruptHandler	PTR FTN()void  size(2) Largest target is 0

    CCP_PWM_Set_Duty@_ccp_obj.CCP1_InterruptHandler	PTR FTN()void  size(2) Largest target is 1
		 -> CCP1_DefaultInterruptHandler(), 

    CCP_DeInit@_ccp_obj.CCP2_InterruptHandler	PTR FTN()void  size(2) Largest target is 0

    CCP_DeInit@_ccp_obj.CCP1_InterruptHandler	PTR FTN()void  size(2) Largest target is 1
		 -> CCP1_DefaultInterruptHandler(), 

    S1124$CCP2_InterruptHandler	PTR FTN()void  size(2) Largest target is 0

    CCP_Init@_ccp_obj.CCP2_InterruptHandler	PTR FTN()void  size(2) Largest target is 0

    S1124$CCP1_InterruptHandler	PTR FTN()void  size(2) Largest target is 1
		 -> CCP1_DefaultInterruptHandler(), 

    CCP_Init@_ccp_obj.CCP1_InterruptHandler	PTR FTN()void  size(2) Largest target is 1
		 -> CCP1_DefaultInterruptHandler(), 

    CCP_Init@_ccp_obj	PTR const struct . size(2) Largest target is 17
		 -> ccp_obj(BANK0[17]), 

    configure_voltage_reference@_adc.ADC_InterruptHandler	PTR FTN()void  size(2) Largest target is 0

    select_result_format@_adc.ADC_InterruptHandler	PTR FTN()void  size(2) Largest target is 0

    ADC_GetConversionResult@_adc.ADC_InterruptHandler	PTR FTN()void  size(2) Largest target is 0

    ADC_InterruptHandler	PTR FTN()void  size(2) Largest target is 1
		 -> Absolute function(), 

    S706$ADC_InterruptHandler	PTR FTN()void  size(2) Largest target is 0

    ADC_Init@_adc.ADC_InterruptHandler	PTR FTN()void  size(2) Largest target is 0

    sp__memset	PTR void  size(2) Largest target is 0


Critical Paths under _main in COMRAM

    _main->_CCP_Init
    _Timer3_Init->_Timer3_Mode_Select
    _CCP_Init->_CCP_PWM_Mode_Config
    _gpio_pin_intialize->_gpio_pin_write_logic
    _CCP_PWM_Mode_Config->___fltol
    ___fltol->___fladd
    ___flmul->___xxtofl
    ___fldiv->___flmul
    ___fladd->___fldiv
    _CCP_Compare_Mode_Config->_CCP_Mode_Timer_Select
    _CCP_Capture_Mode_Config->_CCP_Mode_Timer_Select

Critical Paths under _InterruptManager in COMRAM

    _InterruptManager->_RB4_ISR
    _InterruptManager->_RB5_ISR
    _InterruptManager->_RB6_ISR
    _InterruptManager->_RB7_ISR

Critical Paths under _main in BANK0

    _main->_CCP_Init

Critical Paths under _InterruptManager in BANK0

    None.

Critical Paths under _main in BANK1

    None.

Critical Paths under _InterruptManager in BANK1

    None.

Critical Paths under _main in BANK2

    None.

Critical Paths under _InterruptManager in BANK2

    None.

Critical Paths under _main in BANK3

    None.

Critical Paths under _InterruptManager in BANK3

    None.

Critical Paths under _main in BANK4

    None.

Critical Paths under _InterruptManager in BANK4

    None.

Critical Paths under _main in BANK5

    None.

Critical Paths under _InterruptManager in BANK5

    None.

Critical Paths under _main in BANK6

    None.

Critical Paths under _InterruptManager in BANK6

    None.

Critical Paths under _main in BANK7

    None.

Critical Paths under _InterruptManager in BANK7

    None.

Critical Paths under _main in BANK8

    None.

Critical Paths under _InterruptManager in BANK8

    None.

Critical Paths under _main in BANK9

    None.

Critical Paths under _InterruptManager in BANK9

    None.

Critical Paths under _main in BANK10

    None.

Critical Paths under _InterruptManager in BANK10

    None.

Critical Paths under _main in BANK11

    None.

Critical Paths under _InterruptManager in BANK11

    None.

Critical Paths under _main in BANK12

    None.

Critical Paths under _InterruptManager in BANK12

    None.

Critical Paths under _main in BANK13

    None.

Critical Paths under _InterruptManager in BANK13

    None.

Critical Paths under _main in BANK14

    None.

Critical Paths under _InterruptManager in BANK14

    None.

Critical Paths under _main in BANK15

    None.

Critical Paths under _InterruptManager in BANK15

    None.

Call Graph Tables:

 ---------------------------------------------------------------------------------
 (Depth) Function   	        Calls       Base Space   Used Autos Params    Refs
 ---------------------------------------------------------------------------------
 (0) _main                                                 1     1      0   26848
                           _CCP_Init
                        _Timer3_Init
              _application_intialize
 ---------------------------------------------------------------------------------
 (1) _application_intialize                                1     1      0       2
                _ecu_layer_intialize
 ---------------------------------------------------------------------------------
 (2) _ecu_layer_intialize                                  1     1      0       1
 ---------------------------------------------------------------------------------
 (1) _Timer3_Init                                          5     3      2     419
                                              5 COMRAM     5     3      2
                 _Timer3_Mode_Select
 ---------------------------------------------------------------------------------
 (2) _Timer3_Mode_Select                                   2     0      2     164
                                              3 COMRAM     2     0      2
 ---------------------------------------------------------------------------------
 (1) _CCP_Init                                             4     2      2   26418
                                            104 COMRAM     1     1      0
                                              0 BANK0      3     1      2
            _CCP_Capture_Mode_Config
            _CCP_Compare_Mode_Config
               _CCP_Interrupt_Config
                _CCP_PWM_Mode_Config
                 _gpio_pin_intialize
 ---------------------------------------------------------------------------------
 (2) _gpio_pin_intialize                                   4     2      2    9352
                                             13 COMRAM     4     2      2
       _gpio_pin_direction_intialize
               _gpio_pin_write_logic
 ---------------------------------------------------------------------------------
 (3) _gpio_pin_write_logic                                10     7      3    6197
                                              3 COMRAM    10     7      3
 ---------------------------------------------------------------------------------
 (3) _gpio_pin_direction_intialize                         9     7      2    1337
                                              3 COMRAM     9     7      2
 ---------------------------------------------------------------------------------
 (2) _CCP_PWM_Mode_Config                                 11     9      2   15256
                                             93 COMRAM    11     9      2
                            ___fladd
                            ___fldiv
                            ___flmul
                            ___fltol
                           ___xxtofl
 ---------------------------------------------------------------------------------
 (3) ___xxtofl                                            14    10      4    1556
                                              3 COMRAM    14    10      4
 ---------------------------------------------------------------------------------
 (3) ___fltol                                             10     6      4     847
                                             83 COMRAM    10     6      4
                            ___fladd (ARG)
                            ___fldiv (ARG)
                            ___flmul (ARG)
                           ___xxtofl (ARG)
 ---------------------------------------------------------------------------------
 (3) ___flmul                                             25    17      8    3053
                                             17 COMRAM    25    17      8
                           ___xxtofl (ARG)
 ---------------------------------------------------------------------------------
 (3) ___fldiv                                             25    17      8    4643
                                             42 COMRAM    25    17      8
                            ___flmul (ARG)
                           ___xxtofl (ARG)
 ---------------------------------------------------------------------------------
 (3) ___fladd                                             16     8      8    4782
                                             67 COMRAM    16     8      8
                            ___fldiv (ARG)
                            ___flmul (ARG)
                           ___xxtofl (ARG)
 ---------------------------------------------------------------------------------
 (2) _CCP_Interrupt_Config                                 2     0      2     152
                                              3 COMRAM     2     0      2
 ---------------------------------------------------------------------------------
 (2) _CCP_Compare_Mode_Config                              5     3      2     558
                                              6 COMRAM     5     3      2
              _CCP_Mode_Timer_Select
 ---------------------------------------------------------------------------------
 (2) _CCP_Capture_Mode_Config                              5     3      2     558
                                              6 COMRAM     5     3      2
              _CCP_Mode_Timer_Select
 ---------------------------------------------------------------------------------
 (3) _CCP_Mode_Timer_Select                                3     1      2     273
                                              3 COMRAM     3     1      2
 ---------------------------------------------------------------------------------
 Estimated maximum stack depth 3
 ---------------------------------------------------------------------------------
 (Depth) Function   	        Calls       Base Space   Used Autos Params    Refs
 ---------------------------------------------------------------------------------
 (4) _InterruptManager                                     2     2      0     176
                                              1 COMRAM     2     2      0
                            _ADC_ISR
                           _CCP1_ISR
                           _CCP2_ISR
                      _EUSART_RX_ISR
                      _EUSART_TX_ISR
                           _INT0_ISR
                           _INT1_ISR
                           _INT2_ISR
                    _MSSP_I2C_BC_ISR
                       _MSSP_I2C_ISR
                       _MSSP_SPI_ISR
                            _RB4_ISR
                            _RB5_ISR
                            _RB6_ISR
                            _RB7_ISR
                           _TMR0_ISR
                           _TMR1_ISR
                           _TMR2_ISR
                           _TMR3_ISR
 ---------------------------------------------------------------------------------
 (5) _TMR3_ISR                                             0     0      0       0
                   Absolute function *
     _Timer3_DefaultInterruptHandler *
 ---------------------------------------------------------------------------------
 (6) _Timer3_DefaultInterruptHandler                       0     0      0       0
 ---------------------------------------------------------------------------------
 (5) _TMR2_ISR                                             0     0      0       0
 ---------------------------------------------------------------------------------
 (5) _TMR1_ISR                                             0     0      0       0
 ---------------------------------------------------------------------------------
 (5) _TMR0_ISR                                             0     0      0       0
 ---------------------------------------------------------------------------------
 (5) _RB7_ISR                                              1     1      0      44
                                              0 COMRAM     1     1      0
 ---------------------------------------------------------------------------------
 (5) _RB6_ISR                                              1     1      0      44
                                              0 COMRAM     1     1      0
 ---------------------------------------------------------------------------------
 (5) _RB5_ISR                                              1     1      0      44
                                              0 COMRAM     1     1      0
 ---------------------------------------------------------------------------------
 (5) _RB4_ISR                                              1     1      0      44
                                              0 COMRAM     1     1      0
 ---------------------------------------------------------------------------------
 (5) _MSSP_SPI_ISR                                         0     0      0       0
 ---------------------------------------------------------------------------------
 (5) _MSSP_I2C_ISR                                         0     0      0       0
 ---------------------------------------------------------------------------------
 (5) _MSSP_I2C_BC_ISR                                      0     0      0       0
 ---------------------------------------------------------------------------------
 (5) _INT2_ISR                                             0     0      0       0
 ---------------------------------------------------------------------------------
 (5) _INT1_ISR                                             0     0      0       0
 ---------------------------------------------------------------------------------
 (5) _INT0_ISR                                             0     0      0       0
 ---------------------------------------------------------------------------------
 (5) _EUSART_TX_ISR                                        0     0      0       0
 ---------------------------------------------------------------------------------
 (5) _EUSART_RX_ISR                                        0     0      0       0
 ---------------------------------------------------------------------------------
 (5) _CCP2_ISR                                             0     0      0       0
 ---------------------------------------------------------------------------------
 (5) _CCP1_ISR                                             0     0      0       0
                   Absolute function *
       _CCP1_DefaultInterruptHandler *
 ---------------------------------------------------------------------------------
 (6) _CCP1_DefaultInterruptHandler                         0     0      0       0
 ---------------------------------------------------------------------------------
 (6) Absolute function(Fake)                               0     0      0       0
 ---------------------------------------------------------------------------------
 (5) _ADC_ISR                                              0     0      0       0
 ---------------------------------------------------------------------------------
 Estimated maximum stack depth 6
 ---------------------------------------------------------------------------------

 Call Graph Graphs:

 _main (ROOT)
   _CCP_Init
     _CCP_Capture_Mode_Config
       _CCP_Mode_Timer_Select
     _CCP_Compare_Mode_Config
       _CCP_Mode_Timer_Select
     _CCP_Interrupt_Config
     _CCP_PWM_Mode_Config
       ___fladd
         ___fldiv (ARG)
           ___flmul (ARG)
             ___xxtofl (ARG)
           ___xxtofl (ARG)
         ___flmul (ARG)
         ___xxtofl (ARG)
       ___fldiv
       ___flmul
       ___fltol
         ___fladd (ARG)
         ___fldiv (ARG)
         ___flmul (ARG)
         ___xxtofl (ARG)
       ___xxtofl
     _gpio_pin_intialize
       _gpio_pin_direction_intialize
       _gpio_pin_write_logic
   _Timer3_Init
     _Timer3_Mode_Select
   _application_intialize
     _ecu_layer_intialize

 _InterruptManager (ROOT)
   _ADC_ISR
   _CCP1_ISR
     Absolute function(Fake) *
     _CCP1_DefaultInterruptHandler *
   _CCP2_ISR
   _EUSART_RX_ISR
   _EUSART_TX_ISR
   _INT0_ISR
   _INT1_ISR
   _INT2_ISR
   _MSSP_I2C_BC_ISR
   _MSSP_I2C_ISR
   _MSSP_SPI_ISR
   _RB4_ISR
   _RB5_ISR
   _RB6_ISR
   _RB7_ISR
   _TMR0_ISR
   _TMR1_ISR
   _TMR2_ISR
   _TMR3_ISR
     Absolute function(Fake) *
     _Timer3_DefaultInterruptHandler *

 Address spaces:
Name               Size   Autos  Total    Cost      Usage
BIGRAM             F7F      0       0      49        0.0%
EEDATA             400      0       0       0        0.0%
BITBANK14          100      0       0      33        0.0%
BANK14             100      0       0      34        0.0%
BITBANK13          100      0       0      31        0.0%
BANK13             100      0       0      32        0.0%
BITBANK12          100      0       0      29        0.0%
BANK12             100      0       0      30        0.0%
BITBANK11          100      0       0      27        0.0%
BANK11             100      0       0      28        0.0%
BITBANK10          100      0       0      25        0.0%
BANK10             100      0       0      26        0.0%
BITBANK9           100      0       0      23        0.0%
BANK9              100      0       0      24        0.0%
BITBANK8           100      0       0      21        0.0%
BANK8              100      0       0      22        0.0%
BITBANK7           100      0       0      19        0.0%
BANK7              100      0       0      20        0.0%
BITBANK6           100      0       0      17        0.0%
BANK6              100      0       0      18        0.0%
BITBANK5           100      0       0      15        0.0%
BANK5              100      0       0      16        0.0%
BITBANK4           100      0       0      13        0.0%
BANK4              100      0       0      14        0.0%
BITBANK3           100      0       0      10        0.0%
BANK3              100      0       0      11        0.0%
BITBANK2           100      0       0       8        0.0%
BANK2              100      0       0       9        0.0%
BITBANK1           100      0       0       6        0.0%
BANK1              100      0       A       7        3.9%
BITBANK15           80      0       0      35        0.0%
BANK15              80      0       0      36        0.0%
BITBANK0            80      0       0       4        0.0%
BANK0               80      3      7C       5       96.9%
BITCOMRAM           7E      0       0       0        0.0%
COMRAM              7E     69      7B       1       97.6%
BITBIGSFRhlhhlh     18      0       0      38        0.0%
BITBIGSFRhh          D      0       0      37        0.0%
BITBIGSFRlllhh       6      0       0      46        0.0%
BITBIGSFRhlhhll      5      0       0      39        0.0%
BITBIGSFRllhllh      4      0       0      43        0.0%
BITBIGSFRllllh       4      0       0      47        0.0%
BITBIGSFRllhllh      4      0       0      44        0.0%
BITBIGSFRlllll       4      0       0      48        0.0%
BITBIGSFRllhllh      1      0       0      42        0.0%
BITBIGSFRllhlh       1      0       0      41        0.0%
BITBIGSFRllhh        1      0       0      40        0.0%
BITBIGSFRllhlll      1      0       0      45        0.0%
BIGSFR               0      0       0     200        0.0%
BITSFR               0      0       0     200        0.0%
SFR                  0      0       0     200        0.0%
STACK                0      0       0       2        0.0%
NULL                 0      0       0       0        0.0%
ABS                  0      0     101      12        0.0%
DATA                 0      0     101       3        0.0%
CODE                 0      0       0       0        0.0%


Microchip Technology PIC18 Macro Assembler V2.36 build 20220127204148 
Symbol Table                                                                                   Wed Feb 01 15:01:38 2023

                               ??_InterruptManager 0002                                       ___fldiv@aexp 0043  
                                     ___fldiv@bexp 0042                                       ___fldiv@sign 003B  
                                      _SSPSTATbits 000FC7                                 _Timer3_Mode_Select 2CC0  
                                              l521 27BE                                                l513 281E  
                                              l347 3014                                                l528 2820  
                                              l641 259A                                                l618 2960  
                                              l714 26DE                                                l733 2A8C  
                                              l585 227E                                                l594 2DAC  
                                              l754 2E86                                                l588 2EC0  
                                              l597 2DAC                                                _PR2 000FCB  
                        _RB5_InterruptHandler_HIGH 00B2                                    __end_of_ADC_ISR 3014  
                              led_initialize@F3013 0072                                                prod 000FF3  
                            relay_initialize@F3007 006E                                                tosl 000FFD  
                                              wreg 000FE8                                       ___flmul@aexp 001F  
                                     ___flmul@bexp 0024                                       ___flmul@sign 001E  
                                     ___flmul@temp 0029                                       ___flmul@prod 0025  
                              ?_Timer3_Mode_Select 0004                                    __end_of_RB4_ISR 2F92  
                                  __end_of_RB5_ISR 2F78                                    __end_of_RB6_ISR 2F5E  
                                  __end_of_RB7_ISR 2F44                                       ___fltol@exp1 005D  
                                             l2031 2B92                                               l2321 1ED2  
                                             l2330 1FBA                                               l1530 2C3C  
                                             l2403 23CA                                               l2316 20AE  
                                             l2262 1204                                               l2318 1F0E  
                                             l2271 14D4                                               l2263 11F2  
                                             l2327 1F54                                               l2264 11B8  
                                             l2352 18FE                                               l1528 2BAE  
                                             l2329 1FCC                                               l1561 2D3C  
                                             l1562 2D3C                                               l2355 1790  
                                             l1731 2FF2                                               l2348 159A  
                                             l2365 18C0                                               l2357 1808  
                                             l1725 2E14                                               l2358 17F6  
                                             l1726 2E14                                               l2279 131E  
                                             l2288 13EE                                               l2392 2432  
                                             l2289 13DC                                               l2396 236E  
                                             l2389 22D6                                               l9000 18E2  
                                             l9002 18E4                                               l9010 2A8E  
                                             l6530 2CDA                                               l9004 18EA  
                                             l9020 2AE4                                               l9012 2AA4  
                                             l9100 2E1C                                               l6540 2D1C  
                                             l6532 2CE0                                               l9006 18EE  
                                             l9022 2AF4                                               l9110 2E84  
                                             l9102 2E1C                                               l6542 2D36  
                                             l6534 2CFA                                               l9200 287A  
                                             l9032 2B1E                                               l9024 2AF8  
                                             l9016 2AB8                                               l9104 2E2E  
                                             l6536 2CFC                                               l6528 2CC0  
                                             l9210 28F4                                               l9202 28C0  
                                             l9050 2B82                                               l9042 2B46  
                                             l9034 2B28                                               l9026 2B06  
                                             l9018 2AE2                                               l9106 2E50  
                                             l6538 2D16                                               l9220 295E  
                                             l9212 2900                                               l9300 2E8C  
                                             l9044 2B52                                               l9036 2B32  
                                             l9060 22E6                                               l9108 2E58  
                                             l6900 2C3A                                               l6396 3014  
                                             l9206 28DC                                               l9310 2EBC  
                                             l9302 2EA0                                               l9046 2B62  
                                             l9070 2324                                               l9062 22FC  
                                             l9054 2282                                               l8510 25D4  
                                             l9208 28E8                                               l9216 290C  
                                             l9240 2460                                               l9232 2434  
                                             l9312 2EBE                                               l9304 2EA2  
                                             l8600 1132                                               l9048 2B72  
                                             l9080 23AC                                               l9072 2356  
                                             l9056 2292                                               l8512 25DC  
                                             l8520 26DC                                               l8504 259C  
                                             l9400 2714                                               l6904 2FEE  
                                             l8530 2D5A                                               l9218 2952  
                                             l9242 246C                                               l9250 2498  
                                             l9234 2438                                               l9306 2EA4  
                                             l8610 1146                                               l8602 1136  
                                             l9090 2402                                               l9082 23BA  
                                             l9074 2358                                               l9066 2310  
                                             l9058 22A0                                               l8514 263E  
                                             l8506 25A0                                               l9410 2764  
                                             l9402 271C                                               l6906 2FEE  
                                             l8532 2D62                                               l9260 251A  
                                             l9244 2478                                               l9252 24E6  
                                             l9308 2EA6                                               l8700 13AC  
                                             l8620 115A                                               l8612 114A  
                                             l8604 113A                                               l8540 1016  
                                             l9092 2412                                               l9084 23D8  
                                             l9076 2364                                               l9068 2318  
                                             l8508 25B2                                               l9420 27D0  
                                             l9412 2780                                               l9404 2734  
                                             l8534 2D7E                                               l9190 2842  
                                             l9262 2526                                               l9246 2484  
                                             l9270 258C                                               l9238 2454  
                                             l8710 13FE                                               l8702 13B0  
                                             l8630 11D2                                               l8622 1184  
                                             l8614 114E                                               l8606 113E  
                                             l8550 1052                                               l8542 1022  
                                             l9094 2420                                               l9086 23DA  
                                             l9078 23A0                                               l8518 269A  
                                             l9430 2818                                               l9422 27DC  
                                             l9414 2790                                               l9406 2738  
                                             l6870 2B94                                               l8536 2D86  
                                             l8528 2D3E                                               l9192 284E  
                                             l9184 2822                                               l9272 2598  
                                             l9264 2532                                               l9256 2502  
                                             l9248 2490                                               l8720 1464  
                                             l8712 140A                                               l8704 13BE  
                                             l8640 1212                                               l8632 11D6  
                                             l8624 11A0                                               l8616 1152  
                                             l8608 1142                                               l8560 1082  
                                             l8552 1062                                               l8544 1030  
                                             l8800 1E4C                                               l9096 2422  
                                             l9088 23DE                                               l8480 2962  
                                             l9424 27F4                                               l9416 27AE  
                                             l9408 2754                                               l6880 2BDA  
                                             l6872 2B94                                               l8538 2DA4  
                                             l9194 285A                                               l9186 2826  
                                             l9258 250E                                               l8730 14AC  
                                             l8722 1474                                               l8714 1418  
                                             l8706 13D4                                               l8650 1254  
                                             l8642 1222                                               l8634 11E4  
                                             l8626 11B0                                               l8618 1156  
                                             l8570 10AC                                               l8562 1094  
                                             l8554 1064                                               l8546 1032  
                                             l8810 1E9E                                               l8802 1E66  
                                             l9290 2234                                               l8490 2A04  
                                             l8482 2966                                               l9426 27FC  
                                             l9418 27BE                                               l6890 2C20  
                                             l6882 2BF8                                               l6874 2BA6  
                                             l9196 2866                                               l9268 253E  
                                             l8732 14AE                                               l8724 1494  
                                             l8716 1452                                               l8660 1282  
                                             l8652 1262                                               l8636 11E6  
                                             l8628 11C6                                               l8572 10BC  
                                             l8580 10E6                                               l8564 1096  
                                             l8548 1042                                               l8556 106C  
                                             l8820 1EFA                                               l8812 1EAE  
                                             l8804 1E76                                               l8900 1544  
                                             l9292 2240                                               l9284 20B0  
                                             l8484 2978                                               l9428 2814  
                                             l6892 2C30                                               l6884 2C08  
                                             l6876 2BB0                                               l9198 2872  
                                             l8734 14B4                                               l8726 1498  
                                             l8718 1454                                               l8670 12EE  
                                             l8662 128C                                               l8654 126E  
                                             l8646 1236                                               l8638 11F0  
                                             l8590 111E                                               l8582 10F6  
                                             l8574 10CC                                               l8566 109C  
                                             l8558 107C                                               l8830 1F3A  
                                             l8822 1EFC                                               l8814 1EC2  
                                             l8806 1E86                                               l8750 1D42  
                                             l8742 1D16                                               l8910 1584  
                                             l8902 1552                                               l9294 2258  
                                             l9286 21FE                                               l8494 2A60  
                                             l8486 299A                                               l6894 2C32  
                                             l6886 2C1C                                               l6878 2BCE  
                                             l8736 14C2                                               l8728 14A6  
                                             l8672 12FE                                               l8656 1272  
                                             l8648 1246                                               l8664 1292  
                                             l8592 1122                                               l8584 1108  
                                             l8576 10DC                                               l8568 10AA  
                                             l8840 1F76                                               l8832 1F44  
                                             l8824 1F0C                                               l8816 1ED0  
                                             l8808 1E96                                               l8760 1D7C  
                                             l8752 1D52                                               l8744 1D22  
                                             l8920 15CE                                               l8912 158A  
                                             l8904 1554                                               l9296 2276  
                                             l9288 2216                                               l8488 29A2  
                                             l8496 2A8A                                               l9392 26E0  
                                             l6896 2C34                                               l6888 2C1E  
                                             l9298 2E88                                               l8738 14C4  
                                             l8690 1380                                               l8682 1358  
                                             l8666 12B8                                               l8674 130E  
                                             l8658 1280                                               l8594 1126  
                                             l8586 1116                                               l8578 10DE  
                                             l8850 1FE8                                               l8842 1F84  
                                             l8834 1F52                                               l8826 1F1E  
                                             l8818 1EDC                                               l8770 1DA8  
                                             l8762 1D82                                               l8754 1D62  
                                             l8746 1D30                                               l8930 161E  
                                             l8922 15DA                                               l8914 15AA  
                                             l8906 1564                                               l9394 26E0  
                                             l6898 2C36                                               l8692 1388  
                                             l8684 1362                                               l8676 1334  
                                             l8668 12EC                                               l8596 112A  
                                             l8588 111A                                               l8860 2054  
                                             l8852 1FF6                                               l8844 1FB2  
                                             l8828 1F34                                               l8836 1F64  
                                             l8780 1DE2                                               l8772 1DB8  
                                             l8764 1D88                                               l8756 1D64  
                                             l8748 1D32                                               l8940 1660  
                                             l8932 162A                                               l8924 15E4  
                                             l8916 15BA                                               l8908 1574  
                                             l9396 26F4                                               l8694 138C  
                                             l8686 1370                                               l8678 1344  
                                             l8598 112E                                               l8870 20A2  
                                             l8862 206E                                               l8854 2020  
                                             l8838 1F72                                               l8782 1DF8  
                                             l8774 1DC8                                               l8766 1D96  
                                             l8758 1D6C                                               l8950 16C2  
                                             l8942 166C                                               l8934 1636  
                                             l8926 15FA                                               l9398 26FC  
                                             l8696 139C                                               l8688 1372  
                                             l8872 20A4                                               l8864 208A  
                                             l8848 1FDC                                               l8856 2024  
                                             l8784 1E08                                               l8792 1E28  
                                             l8776 1DCA                                               l8768 1D98  
                                             l8960 1758                                               l8952 16CE  
                                             l8944 167C                                               l8936 1644  
                                             l8928 1606                                               l8880 14D6  
                                             l8698 139E                                               l8866 208E  
                                             l8858 203E                                               l8794 1E38  
                                             l8786 1E10                                               l8778 1DD2  
                                             l8970 17AE                                               l8962 1776  
                                             l8954 16EA                                               l8946 1696  
                                             l8938 1650                                               l8890 1512  
                                             l8882 14E2                                               l8868 209C  
                                             l8796 1E38                                               l8788 1E14  
                                             l8980 1818                                               l8972 17B2  
                                             l8964 1780                                               l8956 1714  
                                             l8948 16A6                                               l8892 1522  
                                             l8884 14F0                                               l8990 187A  
                                             l8982 1824                                               l8974 17C0  
                                             l8966 178E                                               l8958 174A  
                                             l8894 1528                                               l8886 14F2  
                                             STR_1 1011                                               l8992 188E  
                                             l8984 1832                                               l8976 17EE  
                                             l8968 17A0                                               l8896 1538  
                                             l8888 1502                                               l8994 18A8  
                                             l8986 185C                                               l8898 153E  
                                             l8996 18C4                                               l8988 1860  
                                             l8998 18D4                                               _LATA 000F89  
                                             _LATB 000F8A                                               _LATC 000F8B  
                                             _LATD 000F8C                                               _LATE 000F8D  
                                             u8100 1094                                               u8020 26B2  
                                             u8004 25FC                                               u5620 2CDA  
                                             u8101 1090                                               u8021 26AC  
                                             u8005 25F8                                               u5621 2CD6  
                                             u8110 10AA                                               u8030 26B4  
                                             u8014 265E                                               u5630 2CFA  
                                             u8111 10A6                                               u8015 265A  
                                             u5631 2CF6                                               u8040 2D5A  
                                             u8200 11E4                                               u8120 10BC  
                                             u9000 23BA                                               u5640 2D16  
                                             u8041 2D56                                               u8201 11E0  
                                             u8121 10B8                                               u9001 23B6  
                                             u5641 2D12                                               u8050 2D7E  
                                             u8210 1204                                               u8130 10CC  
                                             u9010 23CA                                               u5650 2D36  
                                             u8051 2D7A                                               u8211 1200  
                                             u8131 10C8                                               u9011 23C6  
                                             u5651 2D32                                               u8060 2DA4  
                                             u8300 1344                                               u8220 1212  
                                             u8140 1108                                               u9020 23D8  
                                             u8061 2DA0                                               u8301 1340  
                                             u8221 120E                                               u8141 1104  
                                             u9021 23D4                                               u9110 283E  
                                             u8310 1370                                               u8230 1222  
                                             u8150 1116                                               u8070 1030  
                                             u9030 2412                                               u9111 283A  
                                             u8311 136C                                               u8231 121E  
                                             u8151 1112                                               u8071 102C  
                                             u9031 240E                                               u9120 28D8  
                                             u8400 1452                                               u8320 1380  
                                             u8240 1254                                               u8160 1184  
                                             u8080 1042                                               u9040 2420  
                                             u9121 28D4                                               u8401 144E  
                                             u8321 137C                                               u8241 1250  
                                             u8161 1180                                               u8081 103E  
                                             u9041 241C                                               u9130 2450  
                                             u8410 1464                                               u8330 139C  
                                             u8250 1262                                               u8170 119C  
                                             u8090 1052                                               u9050 2E2E  
                                             u9131 244C                                               u8411 1460  
                                             u8331 1398                                               u8251 125E  
                                             u8171 1196                                               u8091 104E  
                                             u9051 2E2A                                               u9140 24FE  
                                             u8420 1474                                               u8340 13AC  
                                             u8260 1280                                               u8180 119E  
                                             u8500 1DA8                                               u9060 2E50  
                                             u9300 2754                                               u5940 2BA6  
                                             u9141 24FA                                               u8421 1470  
                                             u8341 13A8                                               u8261 127C  
                                             u8501 1DA4                                               u9061 2E4C  
                                             u9301 2750                                               u5941 2BA2  
                                             u8430 1494                                               u8350 13BE  
                                             u8270 12B8                                               u8190 11C6  
                                             u8510 1DB8                                               u9150 2216  
                                             u9310 2780                                               u8431 1490  
                                             u8351 13BA                                               u8271 12B4  
                                             u8191 11C2                                               u8511 1DB4  
                                             u9151 2212                                               u9311 277C  
                                             u8440 14A6                                               u8360 13D4  
                                             u8280 12FE                                               u8600 1F72  
                                             u8520 1DF8                                               u9160 2234  
                                             u9320 27AE                                               u8441 14A2  
                                             u8361 13D0                                               u8281 12FA  
                                             u8601 1F6E                                               u8521 1DF4  
                                             u9161 2230                                               u9321 27AA  
                                             u8450 14C2                                               u8370 13EA  
                                             u8290 1334                                               u8610 1F84  
                                             u8530 1E38                                               u9170 2258  
                                             u9330 27F4                                               u8451 14BE  
                                             u8371 13E6                                               u8291 1330  
                                             u8611 1F80                                               u8531 1E34  
                                             u9171 2254                                               u9331 27F0  
                                             u8380 13FE                                               u8620 1FB2  
                                             u8540 1EAE                                               u8460 1D30  
                                             u8700 1502                                               u9180 2276  
                                             u9340 2814                                               u8381 13FA  
                                             u8621 1FAE                                               u8541 1EAA  
                                             u8461 1D2C                                               u8701 14FE  
                                             u9181 2272                                               u9341 2810  
                                             u8390 1418                                               u8630 1FC8  
                                             u8550 1ED0                                               u8470 1D42  
                                             u8710 1512                                               u9270 26F4  
                                             u8391 1414                                               u8631 1FC4  
                                             u8551 1ECC                                               u8471 1D3E  
                                             u8711 150E                                               u9271 26F0  
                                             u8640 1FDC                                               u8560 1EFA  
                                             u8480 1D52                                               u8800 17C0  
                                             u8720 1552                                               u9280 2714  
                                             u8641 1FD8                                               u8561 1EF6  
                                             u8481 1D4E                                               u8801 17BC  
                                             u8721 154E                                               u9281 2710  
                                             u8650 1FF6                                               u8570 1F1E  
                                             u8490 1D96                                               u8810 17EE  
                                             u8730 1564                                               u9290 2734  
                                             u8651 1FF2                                               u8571 1F1A  
                                             u8491 1D92                                               u8811 17EA  
                                             u8731 1560                                               u9291 2730  
                                             u8660 203E                                               u8580 1F34  
                                             u8820 1804                                               u8740 1574  
                                             u8900 2B06                                               u7940 2978  
                                             u8661 203A                                               u8581 1F30  
                                             u8821 1800                                               u8741 1570  
                                             u8901 2B02                                               u7941 2974  
                                             u8670 206E                                               u8590 1F52  
                                             u8830 1818                                               u8750 15AA  
                                             u8910 2B1A                                               u7950 299A  
                                             u8671 206A                                               u8591 1F4E  
                                             u8831 1814                                               u8751 15A6  
                                             u8911 2B16                                               u7951 2996  
                                             u8680 209C                                               u8840 1832  
                                             u8760 15BA                                               u8920 2B42  
                                             u8681 2098                                               u8841 182E  
                                             u8761 15B6                                               u8921 2B3E  
                                             u8850 187A                                               u8770 1734  
                                             u8690 14F0                                               u8930 2B62  
                                             u8851 1876                                               u8691 14EC  
                                             u8931 2B5E                                               u8860 18A8  
                                             u8780 178E                                               u8940 2B72  
                                             u7980 25B2                                               u7964 29C2  
                                             u8861 18A4                                               u8781 178A  
                                             u8941 2B6E                                               u7981 25AE  
                                             u7965 29BE                                               u8870 18E2  
                                             u8790 17AE                                               u8950 2292  
                                             u7990 25D4                                               u7974 2A24  
                                             u8871 18DE                                               u8791 17AA  
                                             u8775 172A                                               u8951 228E  
                                             u7991 25D0                                               u7975 2A20  
                                             u8880 2AA4                                               u8960 22A0  
                                             u8881 2AA0                                               u8961 229C  
                                             u8890 2AD8                                               u8970 22FC  
                                             u8971 22F8                                               u8980 2352  
                                             u8981 234E                                               u8990 239C  
                                             u8895 2ACE                                               u8991 2398  
                                             _TMR2 000FCC                              ??_CCP_PWM_Mode_Config 0060  
                          ??_application_intialize 0004                                               _Freq 0086  
                         _RB4_InterruptHandler_LOW 00B4                          ??_CCP_Capture_Mode_Config 0009  
                                             _main 2DAE                                   __end_of_CCP1_ISR 2F2A  
                                 __end_of_CCP2_ISR 3010                           _RB7_InterruptHandler_LOW 00A8  
                                             fsr2h 000FDA                                               indf2 000FDF  
                                             fsr1l 000FE1                                               fsr2l 000FD9  
                                             btemp 007C             __end_of_Timer3_DefaultInterruptHandler 2FB8  
                   _Timer3_DefaultInterruptHandler 2FA8                                               prodh 000FF4  
                                             prodl 000FF3                                               start 000E  
                  __end_of_CCP_Compare_Mode_Config 259C                                    ___fldiv@new_exp 003C  
                                 __end_of_CCP_Init 2822                                       ___param_bank 000000  
                             ??_Timer3_Mode_Select 0006                               _gpio_pin_write_logic 2962  
                                 __end_of_INT0_ISR 3008                                   __end_of_INT1_ISR 3004  
                                 __end_of_INT2_ISR 3000                                              l10200 2DCC  
                                            l10210 2DF4                                              l10202 2DD4  
                                            l10220 2E08                                              l10212 2DF6  
                                            l10204 2DDC                                              l10214 2DFA  
                                            l10206 2DDE                                              l10216 2DFE  
                                            l10208 2DEA                                              l10218 2E06  
                                            l10350 289A                                              l10342 2A74  
                                            l10190 2DB2                                              l10352 292C  
                                            l10344 26C6                                              l10192 2DBC  
                                            l10346 24B8                                              l10194 2DC0  
                                            l10186 2DAE                                              l10348 255E  
                                            l10196 2DC4                                              l10188 2DAE  
                                            l10198 2DC8                                      _EUSART_RX_ISR 3018  
                                    ___fltol@sign1 005C                                      _EUSART_TX_ISR 3008  
                                  __end_of___fladd 14D6                                              ?_main 0001  
                                  __end_of___fldiv 20B0                                              _EEADR 000FA9  
                                  __end_of___flmul 1900                                    __end_of___fltol 2B94  
                                            i2l473 3012                                              i2l574 300E  
                                            i2l569 2F28                                              i2l923 2FFA  
                                            i2l919 2FF6                                              i2l992 3002  
                                            i2l987 3006                                              i2l997 2FFE  
                                            _RCREG 000FAE                                relay_turn_off@F3017 006C  
                                            _TMR0H 000FD7                                              _TMR1H 000FCF  
                                            _TMR0L 000FD6                                              _TMR1L 000FCE  
                                            _TMR3H 000FB3                                              _TMR3L 000FB2  
                                            _SPBRG 000FAF                                              _PORTA 000F80  
                                            _PORTB 000F81                                              _PORTC 000F82  
                                            _PORTD 000F83                                              _PORTE 000F84  
                                            _TRISA 000F92                                              _TRISB 000F93  
                                            _TRISC 000F94                                              _TRISD 000F95  
                                            _TRISE 000F96                                              _TXREG 000FAD  
                                 __end_of_TMR0_ISR 2FC6                                   __end_of_TMR1_ISR 2FD2  
                                 __end_of_TMR2_ISR 2FEE                                   __end_of_TMR3_ISR 2EFA  
                                            pclath 000FFA                                              pclatu 000FFB  
                                            tablat 000FF5                    CCP_Capture_Mode_Config@_ccp_obj 0007  
                                            ttemp5 007D                                              ttemp6 0080  
                                            ttemp7 0084                                              status 000FD8  
                                            wtemp8 007D                                    __initialization 2C3E  
                                     __end_of_main 2E1C                              ?_gpio_pin_write_logic 0004  
                                        ??_ADC_ISR 0001                                     ?_EUSART_RX_ISR 0001  
                            _CCP_Mode_Timer_Select 2D3E                                     ?_EUSART_TX_ISR 0001  
                                    _lat_registers 00E3                                             ??_main 006A  
                                    __activetblptr 000003                              _TMR3_InterruptHandler 009E  
                                 led_turn_on@F3018 0071                                          ??_RB4_ISR 0001  
                                        ??_RB5_ISR 0001                                          ??_RB6_ISR 0001  
                                        ??_RB7_ISR 0001                         _EUSART_OverrunErrorHandler 0094  
                                           _ADRESH 000FC4                                             _EEADRH 000FAA  
                                           _ADRESL 000FC3                                             _EEDATA 000FA8  
                                           _CCPR1L 000FBE                                             _CCPR2L 000FBB  
                                           _EECON2 000FA7                                             i2l1030 2F5C  
                                           i2l1008 2F90                                             i2l1041 2F42  
                                           i2l1019 2F76                                             i2l1220 196A  
                                           i2l1230 1ABE                                             i2l1222 19AE  
                                           i2l1240 1BCA                                             i2l1232 1B02  
                                           i2l1224 19F2                                             i2l1216 192A  
                                           i2l1321 3016                                             i2l1250 1C6A  
                                           i2l1242 1BEA                                             i2l1234 1B46  
                                           i2l1226 1A36                                             i2l1218 194A  
                                           i2l1252 1C8A                                             i2l1244 1C0A  
                                           i2l1236 1B8A                                             i2l1228 1A7A  
                                           i2l1261 1D0A                                             i2l1254 1CAA  
                                           i2l1246 1C2A                                             i2l1238 1BAA  
                                           i2l1256 1CCA                                             i2l1248 1C4A  
                                           i2l1258 1CEA                                             i2l1507 2FEC  
                                           i2l1551 2EF8                                             i2l1456 2FD0  
                                           i2l1720 2FB6                                             i2l1387 2FC4  
                                           i2l1717 301A                                             i2l1683 300A  
                                           i2l1692 3018                                             i2l8000 1C26  
                                           i2l8010 1C78                                             i2l8002 1C38  
                                           i2l8020 1CC6                                             i2l8012 1C86  
                                           i2l8004 1C46                                             i2l8022 1CD8  
                                           i2l8014 1C98                                             i2l8006 1C58  
                                           i2l8024 1CE6                                             i2l8016 1CA6  
                                           i2l8008 1C66                                             i2l8026 1CF8  
                                           i2l8018 1CB8                                             i2l8028 1D06  
                                           i2l6702 2FF8                                             i2l6640 3010  
                                           i2l6712 3000                                             i2l6544 2FA8  
                                           i2l6706 3004                                             i2l6732 2F90  
                                           i2l6724 2F7A                                             i2l6740 2F62  
                                           i2l6718 2FFC                                             i2l6726 2F7C  
                                           i2l6822 2FB8                                             i2l6830 2FC6  
                                           i2l6760 2F5C                                             i2l6752 2F46  
                                           i2l6824 2FBA                                             i2l6832 2FC8  
                                           i2l6690 2F10                                             i2l6746 2F76  
                                           i2l6738 2F60                                             i2l6754 2F48  
                                           i2l6826 2FC0                                             i2l6834 2FCC  
                                           i2l6850 2EE0                                             i2l6842 2EC2  
                                           i2l6692 300C                                             i2l6852 3008  
                                           i2l6844 2EC4                                             i2l7900 1966  
                                           i2l6686 2EFA                                             i2l6774 2F42  
                                           i2l6766 2F2C                                             i2l6838 2FE6  
                                           i2l6846 2ECA                                             i2l7910 19A8  
                                           i2l7902 1978                                             i2l6688 2EFC  
                                           i2l6768 2F2E                                             i2l6848 2ECE  
                                           i2l7920 19EC                                             i2l7912 19BC  
                                           i2l7904 1986                                             i2l6858 3018  
                                           i2l6698 2FF4                                             i2l7930 1A30  
                                           i2l7922 1A00                                             i2l7914 19CA  
                                           i2l7906 1994                                             i2l7940 1A74  
                                           i2l7932 1A44                                             i2l7924 1A0E  
                                           i2l7916 19D8                                             i2l7908 19A4  
                                           i2l7950 1AB8                                             i2l7942 1A88  
                                           i2l7934 1A52                                             i2l7926 1A1C  
                                           i2l7918 19E8                                             i2l7960 1AFC  
                                           i2l7952 1ACC                                             i2l7944 1A96  
                                           i2l7936 1A60                                             i2l7928 1A2C  
                                           i2l7970 1B40                                             i2l7962 1B10  
                                           i2l7954 1ADA                                             i2l7946 1AA4  
                                           i2l7938 1A70                                             i2l7890 1918  
                                           i2l7980 1B84                                             i2l7972 1B54  
                                           i2l7964 1B1E                                             i2l7956 1AE8  
                                           i2l7948 1AB4                                             i2l7892 1926  
                                           i2l7990 1BD8                                             i2l7982 1B98  
                                           i2l7974 1B62                                             i2l7966 1B2C  
                                           i2l7958 1AF8                                             i2l7894 1938  
                                           i2l7992 1BE6                                             i2l7984 1BA6  
                                           i2l7976 1B70                                             i2l7968 1B3C  
                                           i2l7896 1946                                             i2l7888 190A  
                                           i2l7994 1BF8                                             i2l7986 1BB8  
                                           i2l7978 1B80                                             i2l7898 1958  
                                           i2l7996 1C06                                             i2l7988 1BC6  
                                           i2l7998 1C18                                             _SPBRGH 000FB0  
                                           _SSPADD 000FC8                                             _SSPBUF 000FC9  
                                 __end_of___xxtofl 2434                                      ??_Timer3_Init 0008  
                                        ??___fladd 004C                                          ??___fldiv 0033  
                                        ??___flmul 001A                                          ??___fltol 0058  
                                           clear_0 2CA4                                             clear_1 2CB0  
                                           isa$std 000001            gpio_pin_direction_intialize@_pin_config 0004  
      _I2C_Report_Receive_Overflow_InterruptHandle 00BE                                          ?_CCP1_ISR 0001  
                                     __pdataCOMRAM 0073                                          ?_CCP2_ISR 0001  
                                     __mediumconst 0000                                             tblptrh 000FF7  
                                           tblptrl 000FF6                                             tblptru 000FF8  
                                        ?_CCP_Init 00F9                        CCP_PWM_Mode_Config@_ccp_obj 005E  
                                     ___xxtofl@arg 000E                                       ___xxtofl@exp 000D  
                                     ___xxtofl@val 0004                                         __accesstop 0080  
                          __end_of__initialization 2CB6                                          ?_INT0_ISR 0001  
                                        ?_INT1_ISR 0001                                          ?_INT2_ISR 0001  
                                    ___rparam_used 000001                                         ___fltol@f1 0054  
                     CCP_Interrupt_Config@_ccp_obj 0004                                  RB5_ISR@RB5_Source 0001  
                           ??_gpio_pin_write_logic 0007                                     __pcstackCOMRAM 0001  
                       _I2C_DefaultInterruptHandle 00C0                                       __pidataBANK0 2F92  
                                     __pidataBANK1 2FD2                                          ?_TMR0_ISR 0001  
                                  ??_EUSART_RX_ISR 0001                                          ?_TMR1_ISR 0001  
                                        ?_TMR2_ISR 0001                                          ?_TMR3_ISR 0001  
                                  ??_EUSART_TX_ISR 0001                             ?_CCP_Mode_Timer_Select 0004  
                              __end_of_Timer3_Init 2C3E                                         ??_CCP1_ISR 0001  
                                       ??_CCP2_ISR 0001                                  Timer3_Init@_timer 0006  
                                       ??_CCP_Init 0069                                         __pbssBANK0 0080  
                            _INT0_InterruptHandler 00BC                                         ??_INT0_ISR 0001  
                                       ??_INT1_ISR 0001                                         ??_INT2_ISR 0001  
                    __end_of_application_intialize 2FF4                                         ??_TMR0_ISR 0001  
                                       ??_TMR1_ISR 0001                                         ??_TMR2_ISR 0001  
                                       ??_TMR3_ISR 0001                                  led_turn_off@F3023 0070  
                                          _ADC_ISR 3010                                  RB7_ISR@RB7_Source 0001  
                                          _RB4_ISR 2F78                                            _RB5_ISR 2F5E  
                                          _RB6_ISR 2F44                                            _RB7_ISR 2F2A  
                                        ?___xxtofl 0004                          _RB6_InterruptHandler_HIGH 00AE  
                                    ?_MSSP_I2C_ISR 0001                        __end_of_CCP_PWM_Mode_Config 2280  
                             led_turn_toggle@F3028 006F                     ??_CCP1_DefaultInterruptHandler 0001  
                                       _btn_values 1001                                     _tris_registers 00ED  
                         _RB6_InterruptHandler_LOW 00AC                                      ?_MSSP_SPI_ISR 0001  
                                  _Timer3_OverFlow 008E                                  ??_MSSP_I2C_BC_ISR 0001  
                             _ADC_InterruptHandler 00C8                                            __Hparam 0000  
                                          __Lparam 0000                                        _Timer3_Init 2B94  
                              _ecu_layer_intialize 3014                       __end_of_CCP_Interrupt_Config 2EC2  
                                          ___fladd 1016                                            ___fldiv 1D16  
                                          ___flmul 14D6                    CCP_Compare_Mode_Config@_ccp_obj 0007  
                                          ___fltol 2A8E                           _CCP_PWM_Mode_Config$5410 0065  
                         _CCP_PWM_Mode_Config$5409 0061                                       __psmallconst 1000  
                                          _ccp_obj 00CC                         __end_of_gpio_pin_intialize 2E88  
                                          __pcinit 2C3E                                            __ramtop 1000  
                                          __ptext0 2DAE                                            __ptext1 2FEE  
                                          __ptext2 3014                                            __ptext3 2B94  
                                          __ptext4 2CC0                                            __ptext5 26E0  
                                          __ptext6 2E1C                                            __ptext7 2962  
                                          __ptext8 259C                                            __ptext9 20B0  
                                        _T0CONbits 000FD5                                          _T1CONbits 000FCD  
                                   ??_MSSP_I2C_ISR 0001                                          _T2CONbits 000FCA  
                                       ??___xxtofl 0008                                          _T3CONbits 000FB1  
                          _CCP_Compare_Mode_Config 2434                               ?_ecu_layer_intialize 0001  
                         ?_CCP_Capture_Mode_Config 0007                                     __pintcode_body 1900  
                             end_of_initialization 2CB6                                            int_func 1900  
                                   ??_MSSP_SPI_ISR 0001                              gpio_pin_intialize@ret 0011  
                                        _RCSTAbits 000FAB                                            postdec1 000FE5  
                                          postdec2 000FDD                                         _timer3_obj 00DD  
                                          postinc0 000FEE                                            postinc2 000FDE  
                            _INT1_InterruptHandler 00BA                                          _PORTBbits 000F81  
                                 _InterruptManager 0008                      gpio_pin_intialize@_pin_config 000E  
                                      ___fladd@grs 0053                              ??_ecu_layer_intialize 0004  
             __end_of_gpio_pin_direction_intialize 26E0                       _gpio_pin_direction_intialize 259C  
                                    ___xxtofl@sign 000C                                          _TRISCbits 000F94  
                                      ___fldiv@grs 003E                                        ___fldiv@rem 0037  
                                      ___flmul@grs 0020                                        _CCP1CONbits 000FBD  
                                 CCP_Init@_ccp_obj 00F9                                        _CCP2CONbits 000FBA  
                                        _TXSTAbits 000FAC                            ??_CCP_Mode_Timer_Select 0006  
                       CCP_Capture_Mode_Config@ret 000B                                 relay_turn_on@F3012 006D  
                       CCP_Compare_Mode_Config@ret 000B                      convert_uint16_to_string@F3163 0080  
                                      _BAUDCONbits 000FB8                                      __pidataCOMRAM 2FDC  
                                   _timer0_preload 00A4                          ??_CCP_Compare_Mode_Config 0009  
                                   _timer1_preload 006A                                     _timer2_preload 00CB  
                  __end_of_CCP_Capture_Mode_Config 2962                                start_initialization 2C3E  
                                   _timer3_preload 009C   MSSP_SPI_Slave_Mode_GPIO_PIN_Configurations@F3070 00F7  
MSSP_SPI_Msster_Mode_GPIO_PIN_Configurations@F3055 0077   MSSP_SPI_Slave_Mode_GPIO_PIN_Configurations@F3064 0074  
MSSP_SPI_Msster_Mode_GPIO_PIN_Configurations@F3057 0076   MSSP_SPI_Slave_Mode_GPIO_PIN_Configurations@F3066 0073  
MSSP_SPI_Msster_Mode_GPIO_PIN_Configurations@F3059 0075   MSSP_SPI_Slave_Mode_GPIO_PIN_Configurations@F3068 00F8  
                    ?_gpio_pin_direction_intialize 0004                               _CCP_Interrupt_Config 2E88  
                         _Total_Period_MicroSecond 008A                          _EUSART_RxInterruptHandler 0098  
                             __end_of_MSSP_I2C_ISR 2FF8                         _EUSART_FramingErrorHandler 0096  
                                      __pdataBANK0 00E3                                        __pdataBANK1 0100  
                                         ?_ADC_ISR 0001                              __end_of_EUSART_RX_ISR 301A  
                            __end_of_EUSART_TX_ISR 300C                                          ___fladd@a 0048  
                                        ___fladd@b 0044                               __end_of_MSSP_SPI_ISR 3018  
                                        ___fldiv@a 002F                                          ___fldiv@b 002B  
                                         ?_RB4_ISR 0001                                           ?_RB5_ISR 0001  
                                         ?_RB6_ISR 0001                                           ?_RB7_ISR 0001  
                                        ___flmul@a 0016                                          ___flmul@b 0012  
                                      __pbssCOMRAM 006A        _I2C_Report_Write_Collision_InterruptHandler 00C2  
                                    __pcstackBANK0 00F9                              ?_CCP_Interrupt_Config 0004  
                                  _MSSP_I2C_BC_ISR 2FF8                              _INT2_InterruptHandler 00B8  
                  gpio_pin_direction_intialize@ret 000C                              _TMR0_InterruptHandler 00A6  
                                     ?_Timer3_Init 0006                              _application_intialize 2FEE  
                                        __pintcode 0008                                           ?___fladd 0044  
                  gpio_pin_write_logic@_pin_config 0004                                           ?___fldiv 002B  
                                         ?___flmul 0012                                           ?___fltol 0054  
                        gpio_pin_write_logic@logic 0006                                        __smallconst 1000  
                        _RB4_InterruptHandler_HIGH 00B6                                           _CCP1_ISR 2EFA  
                                         _CCP2_ISR 300C                           _CCP1_Second_Copture_Flag 00CA  
                        _RB7_InterruptHandler_HIGH 00AA                      CCP_Mode_Timer_Select@_ccp_obj 0004  
                                         _CCP_Init 26E0                                 _gpio_pin_intialize 2E1C  
                   ??_gpio_pin_direction_intialize 0006                           _RB5_InterruptHandler_LOW 00B0  
                                         _INT0_ISR 3004                                           _INT1_ISR 3000  
                                         _INT2_ISR 2FFC                                           _RB4_Flag 007B  
                                         _RB5_Flag 007A                                           _RB6_Flag 0079  
                                         _RB7_Flag 0078                                  RB4_ISR@RB4_Source 0001  
                              ?_gpio_pin_intialize 000E                           __end_of_InterruptManager 1D16  
                                         _PIE1bits 000F9D                                           _PIE2bits 000FA0  
                       __end_of_Timer3_Mode_Select 2D3E                                           _PIR1bits 000F9E  
                                         _PIR2bits 000FA1                                           i2u700_40 1938  
                                         i2u700_41 1934                                           i2u701_40 1946  
                                         i2u701_41 1942                                           i2u710_40 19D8  
                                         i2u702_40 1958                                           i2u710_41 19D4  
                                         i2u702_41 1954                                           i2u711_40 19E8  
                                         i2u703_40 1966                                           i2u711_41 19E4  
                                         i2u703_41 1962                                           i2u720_40 1A88  
                                         i2u712_40 1A00                                           i2u704_40 1978  
                                         i2u720_41 1A84                                           i2u712_41 19FC  
                                         i2u704_41 1974                                           i2u721_40 1A96  
                                         i2u713_40 1A0E                                           i2u705_40 1986  
                                         i2u721_41 1A92                                           i2u713_41 1A0A  
                                         i2u705_41 1982                                           i2u730_40 1B2C  
                                         i2u722_40 1AA4                                           i2u714_40 1A1C  
                                         i2u706_40 1994                                           i2u730_41 1B28  
                                         i2u722_41 1AA0                                           i2u714_41 1A18  
                                         i2u706_41 1990                                           i2u731_40 1B3C  
                                         i2u723_40 1AB4                                           i2u715_40 1A2C  
                                         i2u707_40 19A4                                           i2u731_41 1B38  
                                         i2u723_41 1AB0                                           i2u715_41 1A28  
                                         i2u707_41 19A0                                           i2u740_40 1BD8  
                                         i2u732_40 1B54                                           i2u724_40 1ACC  
                                         i2u716_40 1A44                                           i2u708_40 19BC  
                                         i2u740_41 1BD4                                           i2u732_41 1B50  
                                         i2u724_41 1AC8                                           i2u716_41 1A40  
                                         i2u708_41 19B8                                           i2u741_40 1BE6  
                                         i2u733_40 1B62                                           i2u725_40 1ADA  
                                         i2u717_40 1A52                                           i2u709_40 19CA  
                                         i2u741_41 1BE2                                           i2u733_41 1B5E  
                                         i2u725_41 1AD6                                           i2u717_41 1A4E  
                                         i2u709_41 19C6                                           i2u750_40 1C78  
                                         i2u742_40 1BF8                                           i2u734_40 1B70  
                                         i2u726_40 1AE8                                           i2u718_40 1A60  
                                         i2u750_41 1C74                                           i2u742_41 1BF4  
                                         i2u734_41 1B6C                                           i2u726_41 1AE4  
                                         i2u718_41 1A5C                                           i2u583_40 2F10  
                                         i2u751_40 1C86                                           i2u743_40 1C06  
                                         i2u735_40 1B80                                           i2u727_40 1AF8  
                                         i2u719_40 1A70                                           i2u583_41 2F0C  
                                         i2u751_41 1C82                                           i2u743_41 1C02  
                                         i2u735_41 1B7C                                           i2u727_41 1AF4  
                                         i2u719_41 1A6C                                           i2u592_40 2EE0  
                                         i2u752_40 1C98                                           i2u744_40 1C18  
                                         i2u736_40 1B98                                           i2u728_40 1B10  
                                         i2u592_41 2EDC                                           i2u752_41 1C94  
                                         i2u744_41 1C14                                           i2u736_41 1B94  
                                         i2u728_41 1B0C                                           i2u584_48 2F16  
                                         i2u585_40 2F8C                                           i2u753_40 1CA6  
                                         i2u745_40 1C26                                           i2u737_40 1BA6  
                                         i2u729_40 1B1E                                           i2u584_49 2F28  
                                         i2u585_41 2F88                                           i2u753_41 1CA2  
                                         i2u745_41 1C22                                           i2u737_41 1BA2  
                                         i2u729_41 1B1A                                           i2u586_40 2F72  
                                         i2u593_48 2EE6                                           i2u754_40 1CB8  
                                         i2u746_40 1C38                                           i2u738_40 1BB8  
                                         i2u586_41 2F6E                                           i2u593_49 2EF8  
                                         i2u754_41 1CB4                                           i2u746_41 1C34  
                                         i2u738_41 1BB4                                           i2u587_40 2F58  
                                         i2u755_40 1CC6                                           i2u747_40 1C46  
                                         i2u739_40 1BC6                                           i2u587_41 2F54  
                                         i2u755_41 1CC2                                           i2u747_41 1C42  
                                         i2u739_41 1BC2                                           i2u588_40 2F3E  
                                         i2u756_40 1CD8                                           i2u748_40 1C58  
                                         i2u588_41 2F3A                                           i2u756_41 1CD4  
                                         i2u748_41 1C54                                           i2u757_40 1CE6  
                                         i2u749_40 1C66                                           i2u757_41 1CE2  
                                         i2u749_41 1C62                                           i2u758_40 1CF8  
                                         i2u758_41 1CF4                                           i2u759_40 1D06  
                                         i2u759_41 1D02                                           i2u698_40 1918  
                                         i2u698_41 1914                                           i2u699_40 1926  
                                         i2u699_41 1922                                           _TMR0_ISR 2FB8  
             __end_of_CCP1_DefaultInterruptHandler 301C                       _CCP1_DefaultInterruptHandler 301A  
                                         _TMR1_ISR 2FC6                                           _TMR2_ISR 2FE6  
                                         _TMR3_ISR 2EC2                                         _ADCON0bits 000FC2  
                                       _ADCON1bits 000FC1                                         _ADCON2bits 000FC0  
                          __end_of_MSSP_I2C_BC_ISR 2FFC                               ??_gpio_pin_intialize 0010  
                fp__Timer3_DefaultInterruptHandler 0000                   ??_Timer3_DefaultInterruptHandler 0001  
                  ?_Timer3_DefaultInterruptHandler 0001                             ??_CCP_Interrupt_Config 0006  
                          gpio_pin_write_logic@ret 000D                                        _INTCON2bits 000FF1  
                                      _INTCON3bits 000FF0                                          copy_data0 2C52  
                                        copy_data1 2C72                                          copy_data2 2C92  
                                   _Second_Copture 0092                                         _EECON1bits 000FA6  
                           ?_application_intialize 0001                                           __Hrparam 0000  
                                         __Lrparam 0000                      __end_of_CCP_Mode_Timer_Select 2DAE  
                                RB6_ISR@RB6_Source 0001                              _CCP1_InterruptHandler 00C6  
                      __end_of_ecu_layer_intialize 3016                    fp__CCP1_DefaultInterruptHandler 0000  
                    ?_CCP1_DefaultInterruptHandler 0001                                 __end_of_btn_values 1011  
                            _TMR1_InterruptHandler 00A2                                           ___xxtofl 2280  
                                     _MSSP_I2C_ISR 2FF4                                           __ptext10 2280  
                                         __ptext11 2A8E                                           __ptext20 2EC2  
                                         __ptext12 14D6                                           __ptext21 2FA8  
                                         __ptext13 1D16                                           __ptext30 2FF4  
                                         __ptext22 2FE6                                           __ptext14 1016  
                                         __ptext31 2FF8                                           __ptext23 2FC6  
                                         __ptext15 2E88                                           __ptext40 3010  
                                         __ptext32 2FFC                                           __ptext24 2FB8  
                                         __ptext16 2434                                           __ptext41 0000  
                                         __ptext33 3000                                           __ptext25 2F2A  
                                         __ptext17 2822                                           __ptext34 3004  
                                         __ptext26 2F44                                           __ptext18 2D3E  
                                         __ptext35 3008                                           __ptext27 2F5E  
                                         __ptext36 3018                                           __ptext28 2F78  
                                         __ptext37 300C                                           __ptext29 3016  
                                         __ptext38 2EFA                                           __ptext39 301A  
                                     _MSSP_SPI_ISR 3016                                        CCP_Init@ret 00FB  
                                         isa$xinst 000000                                           int$flags 007C  
                         Timer3_Mode_Select@_timer 0004                                   ?_MSSP_I2C_BC_ISR 0001  
                                       _INTCONbits 000FF2                       __end_of_gpio_pin_write_logic 2A8E  
                                         intlevel2 0000                                     Timer3_Init@ret 000A  
                        _EUSART_TxInterruptHandler 009A                            _CCP_Capture_Mode_Config 2822  
                         ?_CCP_Compare_Mode_Config 0007                                _CCP_PWM_Mode_Config 20B0  
                                   _port_registers 0100                                        _SSPCON1bits 000FC6  
                                      _SSPCON2bits 000FC5                                      ___fladd@signs 0050  
                            _CCP2_InterruptHandler 00C4                               ?_CCP_PWM_Mode_Config 005E  
                                     ___fladd@aexp 0051                                       ___fladd@bexp 0052  
                            _TMR2_InterruptHandler 00A0                                  ?_InterruptManager 0001  
